 zopfli

 Timestamp is 5bb862c5 (Sat Oct  6 15:22:45 2018)

 Preferred load address is 0000000180000000

 Start         Length     Name                   Class
 0001:00000000 00000110H .text$di                CODE
 0001:00000110 00045b80H .text$mn                CODE
 0001:00045c90 00000020H .text$mn$00             CODE
 0001:00045cb0 00000d10H .text$x                 CODE
 0001:000469c0 00000174H .text$yd                CODE
 0002:00000000 000002c8H .idata$5                DATA
 0002:000002c8 00000010H .00cfg                  DATA
 0002:000002d8 00000008H .CRT$XCA                DATA
 0002:000002e0 00000038H .CRT$XCC                DATA
 0002:00000318 00000010H .CRT$XCL                DATA
 0002:00000328 00000008H .CRT$XCU                DATA
 0002:00000330 00000008H .CRT$XCZ                DATA
 0002:00000338 00000008H .CRT$XIA                DATA
 0002:00000340 00000030H .CRT$XIC                DATA
 0002:00000370 00000008H .CRT$XIZ                DATA
 0002:00000378 00000008H .CRT$XLA                DATA
 0002:00000380 00000008H .CRT$XLZ                DATA
 0002:00000388 00000008H .CRT$XPA                DATA
 0002:00000390 00000010H .CRT$XPX                DATA
 0002:000003a0 00000008H .CRT$XPXA               DATA
 0002:000003a8 00000008H .CRT$XPZ                DATA
 0002:000003b0 00000008H .CRT$XTA                DATA
 0002:000003b8 00000008H .CRT$XTZ                DATA
 0002:000003c0 000152b8H .rdata                  DATA
 0002:00015678 00000028H .rdata$T                DATA
 0002:000156a0 00000f44H .rdata$r                DATA
 0002:000165e4 0000049cH .rdata$zzzdbg           DATA
 0002:00016a80 00000008H .rtc$IAA                DATA
 0002:00016a88 00000008H .rtc$IZZ                DATA
 0002:00016a90 00000008H .rtc$TAA                DATA
 0002:00016a98 00000008H .rtc$TZZ                DATA
 0002:00016aa0 000048d0H .xdata                  DATA
 0002:0001b370 000002a4H .xdata$x                DATA
 0002:0001b614 00000020H .didat$2                DATA
 0002:0001b634 00000024H .didat$3                DATA
 0002:0001b658 000001d8H .didat$4                DATA
 0002:0001b830 00000e08H .didat$6                DATA
 0002:0001c638 000001d8H .didat$7                DATA
 0002:0001c810 00000050H .edata                  DATA
 0002:0001c860 00000014H .idata$2                DATA
 0002:0001c874 00000014H .idata$3                DATA
 0002:0001c888 000002c8H .idata$4                DATA
 0002:0001cb50 00000666H .idata$6                DATA
 0003:00000000 00000b90H .data                   DATA
 0003:00000b90 00000590H .data$r                 DATA
 0003:00001120 000001e0H .didat$5                DATA
 0003:00001300 0000196cH .bss                    DATA
 0004:00000000 000037c8H .pdata                  DATA
 0005:00000000 000000b8H .gfids$x                DATA
 0005:000000b8 000001ecH .gfids$y                DATA
 0006:00000000 00000004H .tls                    DATA
 0006:00000004 00000004H .tls$                   DATA
 0006:00000008 00000001H .tls$ZZZ                DATA
 0007:00000000 00000060H .rsrc$01                DATA
 0007:00000060 00000180H .rsrc$02                DATA

  Address         Publics by Value              Rva+Base               Lib:Object

 0000:00000000       __guard_iat_table          0000000000000000     <absolute>
 0000:00000000       __dynamic_value_reloc_table 0000000000000000     <absolute>
 0000:00000000       __guard_iat_count          0000000000000000     <absolute>
 0000:00000000       __guard_longjmp_table      0000000000000000     <absolute>
 0000:00000000       __guard_longjmp_count      0000000000000000     <absolute>
 0000:00000000       __guard_fids_count         0000000000000000     <absolute>
 0000:00000000       ___safe_se_handler_table   0000000000000000     <absolute>
 0000:00000000       ___safe_se_handler_count   0000000000000000     <absolute>
 0000:00000000       __guard_fids_table         0000000000000000     <absolute>
 0000:00000100       __guard_flags              0000000000000100     <absolute>
 0000:00000000       __ImageBase                0000000180000000     <linker-defined>
 0001:00000110       ?_Deallocate@std@@YAXPEAX_K1@Z 0000000180001110 f i zopfli-binding.obj
 0001:00000250       ?NewInstance@Nan@@YA?AV?$MaybeLocal@VObject@v8@@@v8@@V?$Local@VObjectTemplate@v8@@@3@@Z 0000000180001250 f i zopfli-binding.obj
 0001:000002d0       ?GetFunction@Nan@@YA?AV?$MaybeLocal@VFunction@v8@@@v8@@V?$Local@VFunctionTemplate@v8@@@3@@Z 00000001800012d0 f i zopfli-binding.obj
 0001:00000350       ?Get@Nan@@YA?AV?$MaybeLocal@VValue@v8@@@v8@@V?$Local@VObject@v8@@@3@V?$Local@VValue@v8@@@3@@Z 0000000180001350 f i zopfli-binding.obj
 0001:000003e0       ?Has@Nan@@YA?AV?$Maybe@_N@v8@@V?$Local@VObject@v8@@@3@V?$Local@VString@v8@@@3@@Z 00000001800013e0 f i zopfli-binding.obj
 0001:00000460       ?convert@?$ToFactory@VUint32@v8@@@imp@Nan@@SA?AV?$MaybeLocal@VUint32@v8@@@v8@@V?$Local@VValue@v8@@@5@@Z 0000000180001460 f i zopfli-binding.obj
 0001:000004e0       ?New@?$Factory@VFunctionTemplate@v8@@@imp@Nan@@SA?AV?$Local@VFunctionTemplate@v8@@@v8@@P6AXAEBV?$FunctionCallbackInfo@VValue@v8@@@3@@ZV?$Local@VValue@v8@@@5@V?$Local@VSignature@v8@@@5@@Z 00000001800014e0 f i zopfli-binding.obj
 0001:00000660       ??1EscapableHandleScope@Nan@@QEAA@XZ 0000000180001660 f i zopfli-binding.obj
 0001:00000660       ??1HandleScope@Nan@@QEAA@XZ 0000000180001660 f i zopfli-binding.obj
 0001:00000670       ?ThrowTypeError@Nan@@YAXPEBD@Z 0000000180001670 f i zopfli-binding.obj
 0001:00000710       ??0Utf8String@Nan@@QEAA@V?$Local@VValue@v8@@@v8@@@Z 0000000180001710 f i zopfli-binding.obj
 0001:00000820       ??1Utf8String@Nan@@QEAA@XZ 0000000180001820 f i zopfli-binding.obj
 0001:00000840       ?Call@Callback@Nan@@QEBA?AV?$Local@VValue@v8@@@v8@@HQEAV34@@Z 0000000180001840 f i zopfli-binding.obj
 0001:00000900       ?Call@Callback@Nan@@QEBA?AV?$MaybeLocal@VValue@v8@@@v8@@HQEAV?$Local@VValue@v8@@@4@PEAVAsyncResource@2@@Z 0000000180001900 f i zopfli-binding.obj
 0001:000009c0       ?Call_@Callback@Nan@@AEBA?AV?$Local@VValue@v8@@@v8@@PEAVIsolate@4@V?$Local@VObject@v8@@@4@HQEAV34@@Z 00000001800019c0 f i zopfli-binding.obj
 0001:00000a80       ??0AsyncWorker@Nan@@QEAA@PEAVCallback@1@PEBD@Z 0000000180001a80 f i zopfli-binding.obj
 0001:00000b70       ??1AsyncWorker@Nan@@UEAA@XZ 0000000180001b70 f i zopfli-binding.obj
 0001:00000c40       ?WorkComplete@AsyncWorker@Nan@@UEAAXXZ 0000000180001c40 f i zopfli-binding.obj
 0001:00000ce0       ?Destroy@AsyncWorker@Nan@@UEAAXXZ 0000000180001ce0 f i zopfli-binding.obj
 0001:00000d00       ?HandleOKCallback@AsyncWorker@Nan@@MEAAXXZ 0000000180001d00 f i zopfli-binding.obj
 0001:00000d50       ?HandleErrorCallback@AsyncWorker@Nan@@MEAAXXZ 0000000180001d50 f i zopfli-binding.obj
 0001:00000e00       ??_EAsyncWorker@Nan@@UEAAPEAXI@Z 0000000180001e00 f i * CIL library *:* CIL module *
 0001:00000e00       ??_GAsyncWorker@Nan@@UEAAPEAXI@Z 0000000180001e00 f i zopfli-binding.obj
 0001:00000e40       ??1?$Persistent@VObject@v8@@V?$NonCopyablePersistentTraits@VObject@v8@@@2@@Nan@@QEAA@XZ 0000000180001e40 f i zopfli-binding.obj
 0001:00000e60       ?AsyncExecute@Nan@@YAXPEAUuv_work_s@@@Z 0000000180001e60 f i zopfli-binding.obj
 0001:00000ed0       ?AsyncExecuteComplete@Nan@@YAXPEAUuv_work_s@@@Z 0000000180001ed0 f i zopfli-binding.obj
 0001:00000f10       ?ParseArgs@nodezopfli@@YAXAEBV?$FunctionCallbackInfo@VValue@v8@@@Nan@@AEAW4ZopfliFormat@@AEAUZopfliOptions@@@Z 0000000180001f10 f i zopfli-binding.obj
 0001:000015a0       ??0CompressWorker@nodezopfli@@QEAA@PEAVCallback@Nan@@AEAW4ZopfliFormat@@AEAUZopfliOptions@@V?$Local@VObject@v8@@@v8@@@Z 00000001800025a0 f i zopfli-binding.obj
 0001:00001730       ?Execute@CompressWorker@nodezopfli@@UEAAXXZ 0000000180002730 f i zopfli-binding.obj
 0001:00001780       ?HandleOKCallback@CompressWorker@nodezopfli@@UEAAXXZ 0000000180002780 f i zopfli-binding.obj
 0001:00001850       ??_GCompressWorker@nodezopfli@@UEAAPEAXI@Z 0000000180002850 f i zopfli-binding.obj
 0001:00001850       ??_ECompressWorker@nodezopfli@@UEAAPEAXI@Z 0000000180002850 f i * CIL library *:* CIL module *
 0001:000018a0       ?Async@CompressBinding@nodezopfli@@SAXAEBV?$FunctionCallbackInfo@VValue@v8@@@Nan@@@Z 00000001800028a0 f   zopfli-binding.obj
 0001:00001a40       ?Sync@CompressBinding@nodezopfli@@SAXAEBV?$FunctionCallbackInfo@VValue@v8@@@Nan@@@Z 0000000180002a40 f   zopfli-binding.obj
 0001:00001cd0       ?updateAdler32@nodezopfli@@YAIIPEBE_K@Z 0000000180002cd0 f   zopfli-binding.obj
 0001:00001d50       ?Adler32@nodezopfli@@YAXAEBV?$FunctionCallbackInfo@VValue@v8@@@Nan@@@Z 0000000180002d50 f   zopfli-binding.obj
 0001:00001ef0       ?Init@nodezopfli@@YAXV?$Local@VObject@v8@@@v8@@@Z 0000000180002ef0 f   zopfli-binding.obj
 0001:00001f70       ??1?$basic_string@DU?$char_traits@D@std@@V?$allocator@D@2@@std@@QEAA@XZ 0000000180002f70 f i zopfli-binding.obj
 0001:00002000       ??4?$basic_string@DU?$char_traits@D@std@@V?$allocator@D@2@@std@@QEAAAEAV01@$$QEAV01@@Z 0000000180003000 f i zopfli-binding.obj
 0001:000020b0       ?assign@?$basic_string@DU?$char_traits@D@std@@V?$allocator@D@2@@std@@QEAAAEAV12@PEBD_K@Z 00000001800030b0 f i zopfli-binding.obj
 0001:000021e0       ?assign@?$basic_string@DU?$char_traits@D@std@@V?$allocator@D@2@@std@@QEAAAEAV12@AEBV12@_K1@Z 00000001800031e0 f i zopfli-binding.obj
 0001:00002310       ?_Assign_rv@?$basic_string@DU?$char_traits@D@std@@V?$allocator@D@2@@std@@QEAAX$$QEAV12@@Z 0000000180003310 f i zopfli-binding.obj
 0001:00002390       ?erase@?$basic_string@DU?$char_traits@D@std@@V?$allocator@D@2@@std@@QEAAAEAV12@_K0@Z 0000000180003390 f i zopfli-binding.obj
 0001:00002460       ?_Copy@?$basic_string@DU?$char_traits@D@std@@V?$allocator@D@2@@std@@QEAAX_K0@Z 0000000180003460 f i zopfli-binding.obj
 0001:000025e0       ??$SetMethod@VObject@v8@@VLocal@2@@Nan@@YAXV?$Local@VObject@v8@@@v8@@PEBDP6AXAEBV?$FunctionCallbackInfo@VValue@v8@@@0@@Z@Z 00000001800035e0 f i zopfli-binding.obj
 0001:000026a0       ??$SetMethodAux@V?$Local@VObject@v8@@@v8@@@imp@Nan@@YAXV?$Local@VObject@v8@@@v8@@V?$Local@VString@v8@@@3@V?$Local@VFunctionTemplate@v8@@@3@ZZ 00000001800036a0 f i zopfli-binding.obj
 0001:000026f0       __local_stdio_printf_options 00000001800036f0 f i zopflipng.obj
 0001:00002700       printf                     0000000180003700 f i zopflipng.obj
 0001:00002760       ?convert@?$ToFactory@VInteger@v8@@@imp@Nan@@SA?AV?$MaybeLocal@VInteger@v8@@@v8@@V?$Local@VValue@v8@@@5@@Z 0000000180003760 f i zopflipng.obj
 0001:000027e0       ?parseOptions@@YAXAEBV?$Local@VObject@v8@@@v8@@AEAUZopfliPNGOptions@@@Z 00000001800037e0 f   zopflipng.obj
 0001:00003260       ?PNGDeflate@@YAXAEBV?$FunctionCallbackInfo@VValue@v8@@@Nan@@@Z 0000000180004260 f   zopflipng.obj
 0001:00003a80       ??1ZopfliPNGOptions@@QEAA@XZ 0000000180004a80 f i zopflipng.obj
 0001:00003b00       ??1?$vector@V?$basic_string@DU?$char_traits@D@std@@V?$allocator@D@2@@std@@V?$allocator@V?$basic_string@DU?$char_traits@D@std@@V?$allocator@D@2@@std@@@2@@std@@QEAA@XZ 0000000180004b00 f i zopflipng.obj
 0001:00003b40       ??1?$vector@EV?$allocator@E@std@@@std@@QEAA@XZ 0000000180004b40 f i zopflipng.obj
 0001:00003b50       ?_Reserve@?$vector@W4ZopfliPNGFilterStrategy@@V?$allocator@W4ZopfliPNGFilterStrategy@@@std@@@std@@IEAAX_K@Z 0000000180004b50 f i zopflipng.obj
 0001:00003be0       ?_Tidy@?$vector@EV?$allocator@E@std@@@std@@IEAAXXZ 0000000180004be0 f i zopflipng.obj
 0001:00003c50       ?append@?$basic_string@DU?$char_traits@D@std@@V?$allocator@D@2@@std@@QEAAAEAV12@AEBV12@_K1@Z 0000000180004c50 f i zopflipng.obj
 0001:00003d80       ?deallocate@?$_Wrap_alloc@V?$allocator@E@std@@@std@@QEAAXPEAE_K@Z 0000000180004d80 f i zopflipng.obj
 0001:00003de0       ?deallocate@?$_Wrap_alloc@V?$allocator@V?$basic_string@DU?$char_traits@D@std@@V?$allocator@D@2@@std@@@std@@@std@@QEAAXPEAV?$basic_string@DU?$char_traits@D@std@@V?$allocator@D@2@@2@_K@Z 0000000180004de0 f i zopflipng.obj
 0001:00003e50       ?deallocate@?$_Wrap_alloc@V?$allocator@W4ZopfliPNGFilterStrategy@@@std@@@std@@QEAAXPEAW4ZopfliPNGFilterStrategy@@_K@Z 0000000180004e50 f i zopflipng.obj
 0001:00003ec0       ?_Reallocate@?$vector@W4ZopfliPNGFilterStrategy@@V?$allocator@W4ZopfliPNGFilterStrategy@@@std@@@std@@IEAAX_K@Z 0000000180004ec0 f i zopflipng.obj
 0001:00003fa0       ??$?HDU?$char_traits@D@std@@V?$allocator@D@1@@std@@YA?AV?$basic_string@DU?$char_traits@D@std@@V?$allocator@D@2@@0@$$QEAV10@AEBV10@@Z 0000000180004fa0 f i zopflipng.obj
 0001:00003ff0       ??$_Destroy_range1@V?$allocator@V?$basic_string@DU?$char_traits@D@std@@V?$allocator@D@2@@std@@@std@@PEAV?$basic_string@DU?$char_traits@D@std@@V?$allocator@D@2@@2@@std@@YAXPEAV?$basic_string@DU?$char_traits@D@std@@V?$allocator@D@2@@0@0AEAU?$_Wrap_alloc@V?$allocator@V?$basic_string@DU?$char_traits@D@std@@V?$allocator@D@2@@std@@@std@@@0@U?$integral_constant@_N$0A@@0@@Z 0000000180004ff0 f i zopflipng.obj
 0001:000040b0       fprintf                    00000001800050b0 f i blocksplitter.obj
 0001:000045e0       ZopfliBlockSplitLZ77       00000001800055e0 f   blocksplitter.obj
 0001:00004820       ZopfliBlockSplit           0000000180005820 f   blocksplitter.obj
 0001:00004a80       ZopfliInitCache            0000000180005a80 f   cache.obj
 0001:00004c50       ZopfliSublenToCache        0000000180005c50 f   cache.obj
 0001:00006550       OptimizeHuffmanForRle      0000000180007550 f   deflate.obj
 0001:00006d80       ZopfliCalculateBlockSize   0000000180007d80 f   deflate.obj
 0001:00007050       ZopfliCalculateBlockSizeAutoType 0000000180008050 f   deflate.obj
 0001:00007d90       ZopfliDeflatePart          0000000180008d90 f   deflate.obj
 0001:00008160       ZopfliDeflate              0000000180009160 f   deflate.obj
 0001:000082a0       ZopfliGzipCompress         00000001800092a0 f   gzip_container.obj
 0001:000087b0       ZopfliAllocHash            00000001800097b0 f   hash.obj
 0001:00008820       ZopfliResetHash            0000000180009820 f   hash.obj
 0001:000088e0       ZopfliUpdateHash           00000001800098e0 f   hash.obj
 0001:00008c90       ZopfliLengthLimitedCodeLengths 0000000180009c90 f   katajainen.obj
 0001:00008f50       ZopfliCopyLZ77Store        0000000180009f50 f   lz77.obj
 0001:00009210       ZopfliStoreLitLenDist      000000018000a210 f   lz77.obj
 0001:00009570       ZopfliAppendLZ77Store      000000018000a570 f   lz77.obj
 0001:00009aa0       ZopfliLZ77GetHistogram     000000018000aaa0 f   lz77.obj
 0001:00009cc0       ZopfliVerifyLenDist        000000018000acc0 f   lz77.obj
 0001:0000a0d0       ZopfliFindLongestMatch     000000018000b0d0 f   lz77.obj
 0001:0000a5e0       ZopfliLZ77Greedy           000000018000b5e0 f   lz77.obj
 0001:0000bc60       ZopfliLZ77Optimal          000000018000cc60 f   squeeze.obj
 0001:0000c3a0       ZopfliLZ77OptimalFixed     000000018000d3a0 f   squeeze.obj
 0001:0000c590       ZopfliCalculateEntropy     000000018000d590 f   tree.obj
 0001:0000c7a0       ZopfliZlibCompress         000000018000d7a0 f   zlib_container.obj
 0001:0000c9f0       ZopfliCompress             000000018000d9f0 f   zopfli_lib.obj
 0001:0000caa0       ?_Unlock@?$basic_streambuf@DU?$char_traits@D@std@@@std@@UEAAXXZ 000000018000daa0 f i libcpmt:cout.obj
 0001:0000caa0       _guard_check_icall_nop     000000018000daa0 f i LIBCMT:guard_support.obj
 0001:0000caa0       ?imbue@?$basic_streambuf@DU?$char_traits@D@std@@@std@@MEAAXAEBVlocale@2@@Z 000000018000daa0 f i libcpmt:cout.obj
 0001:0000caa0       ?_Doraise@exception@stdext@@MEBAXXZ 000000018000daa0 f i lodepng_util.obj
 0001:0000caa0       ??3@YAXPEAX0@Z             000000018000daa0 f i zopflipng_lib.obj
 0001:0000caa0       __except_validate_context_record 000000018000daa0 f i libvcruntime:jbcxrval.obj
 0001:0000caa0       ?_Lock@?$basic_streambuf@DU?$char_traits@D@std@@@std@@UEAAXXZ 000000018000daa0 f i libcpmt:cout.obj
 0001:0000cab0       ?CustomPNGDeflate@@YAIPEAPEAEPEA_KPEBE_KPEBULodePNGCompressSettings@@@Z 000000018000dab0 f   zopflipng_lib.obj
 0001:0000cb50       ?LossyOptimizeTransparent@@YAXPEAVState@lodepng@@PEAEII@Z 000000018000db50 f   zopflipng_lib.obj
 0001:0000d5e0       ??1?$set@IU?$less@I@std@@V?$allocator@I@2@@std@@QEAA@XZ 000000018000e5e0 f i zopflipng_lib.obj
 0001:0000d610       ?TryOptimize@@YAIAEBV?$vector@EV?$allocator@E@std@@@std@@IIAEBVState@lodepng@@_N20W4ZopfliPNGFilterStrategy@@2HPEBUZopfliPNGOptions@@PEAV12@@Z 000000018000e610 f   zopflipng_lib.obj
 0001:0000dc60       ?AutoChooseFilterStrategy@@YAIAEBV?$vector@EV?$allocator@E@std@@@std@@IIAEBVState@lodepng@@_N20HPEAW4ZopfliPNGFilterStrategy@@PEA_N@Z 000000018000ec60 f   zopflipng_lib.obj
 0001:0000de30       ?ChunksToKeep@@YAXAEBV?$vector@EV?$allocator@E@std@@@std@@AEBV?$vector@V?$basic_string@DU?$char_traits@D@std@@V?$allocator@D@2@@std@@V?$allocator@V?$basic_string@DU?$char_traits@D@std@@V?$allocator@D@2@@std@@@2@@2@PEAV?$set@V?$basic_string@DU?$char_traits@D@std@@V?$allocator@D@2@@std@@U?$less@V?$basic_string@DU?$char_traits@D@std@@V?$allocator@D@2@@std@@@2@V?$allocator@V?$basic_string@DU?$char_traits@D@std@@V?$allocator@D@2@@std@@@2@@2@@Z 000000018000ee30 f   zopflipng_lib.obj
 0001:0000e080       ?KeepChunks@@YAXAEBV?$vector@EV?$allocator@E@std@@@std@@AEBV?$vector@V?$basic_string@DU?$char_traits@D@std@@V?$allocator@D@2@@std@@V?$allocator@V?$basic_string@DU?$char_traits@D@std@@V?$allocator@D@2@@std@@@2@@2@PEAV12@@Z 000000018000f080 f   zopflipng_lib.obj
 0001:0000e520       ?ZopfliPNGOptimize@@YAHAEBV?$vector@EV?$allocator@E@std@@@std@@AEBUZopfliPNGOptions@@_NPEAV12@@Z 000000018000f520 f   zopflipng_lib.obj
 0001:0000edc0       ??1?$set@V?$basic_string@DU?$char_traits@D@std@@V?$allocator@D@2@@std@@U?$less@V?$basic_string@DU?$char_traits@D@std@@V?$allocator@D@2@@std@@@2@V?$allocator@V?$basic_string@DU?$char_traits@D@std@@V?$allocator@D@2@@std@@@2@@std@@QEAA@XZ 000000018000fdc0 f i zopflipng_lib.obj
 0001:0000edf0       ?clear@?$_Tree@V?$_Tset_traits@IU?$less@I@std@@V?$allocator@I@2@$0A@@std@@@std@@QEAAXXZ 000000018000fdf0 f i zopflipng_lib.obj
 0001:0000ee60       ??1?$vector@V?$vector@EV?$allocator@E@std@@@std@@V?$allocator@V?$vector@EV?$allocator@E@std@@@std@@@2@@std@@QEAA@XZ 000000018000fe60 f i zopflipng_lib.obj
 0001:0000eec0       ??0?$vector@V?$vector@EV?$allocator@E@std@@@std@@V?$allocator@V?$vector@EV?$allocator@E@std@@@std@@@2@@std@@QEAA@XZ 000000018000fec0 f i zopflipng_lib.obj
 0001:0000eec0       ??0?$vector@V?$basic_string@DU?$char_traits@D@std@@V?$allocator@D@2@@std@@V?$allocator@V?$basic_string@DU?$char_traits@D@std@@V?$allocator@D@2@@std@@@2@@std@@QEAA@XZ 000000018000fec0 f i zopflipng_lib.obj
 0001:0000eee0       ?push_back@?$vector@EV?$allocator@E@std@@@std@@QEAAXAEBE@Z 000000018000fee0 f i zopflipng_lib.obj
 0001:0000ef70       ?resize@?$vector@EV?$allocator@E@std@@@std@@QEAAX_KAEBE@Z 000000018000ff70 f i zopflipng_lib.obj
 0001:0000f0c0       ?compare@?$basic_string@DU?$char_traits@D@std@@V?$allocator@D@2@@std@@QEBAHAEBV12@@Z 00000001800100c0 f i zopflipng_lib.obj
 0001:0000f140       ?_Erase@?$_Tree@V?$_Tset_traits@IU?$less@I@std@@V?$allocator@I@2@$0A@@std@@@std@@IEAAXPEAU?$_Tree_node@IPEAX@2@@Z 0000000180010140 f i zopflipng_lib.obj
 0001:0000f190       ?_Reserve@?$vector@V?$vector@EV?$allocator@E@std@@@std@@V?$allocator@V?$vector@EV?$allocator@E@std@@@std@@@2@@std@@IEAAX_K@Z 0000000180010190 f i zopflipng_lib.obj
 0001:0000f260       ?_Reserve@?$vector@EV?$allocator@E@std@@@std@@IEAAX_K@Z 0000000180010260 f i zopflipng_lib.obj
 0001:0000f2e0       ?_Reserve@?$vector@V?$basic_string@DU?$char_traits@D@std@@V?$allocator@D@2@@std@@V?$allocator@V?$basic_string@DU?$char_traits@D@std@@V?$allocator@D@2@@std@@@2@@std@@IEAAX_K@Z 00000001800102e0 f i zopflipng_lib.obj
 0001:0000f370       ?erase@?$_Tree@V?$_Tset_traits@V?$basic_string@DU?$char_traits@D@std@@V?$allocator@D@2@@std@@U?$less@V?$basic_string@DU?$char_traits@D@std@@V?$allocator@D@2@@std@@@2@V?$allocator@V?$basic_string@DU?$char_traits@D@std@@V?$allocator@D@2@@std@@@2@$0A@@std@@@std@@QEAA?AV?$_Tree_const_iterator@V?$_Tree_val@U?$_Tree_simple_types@V?$basic_string@DU?$char_traits@D@std@@V?$allocator@D@2@@std@@@std@@@std@@@2@V32@0@Z 0000000180010370 f i zopflipng_lib.obj
 0001:0000f470       ?deallocate@?$_Wrap_alloc@V?$allocator@V?$vector@EV?$allocator@E@std@@@std@@@std@@@std@@QEAAXPEAV?$vector@EV?$allocator@E@std@@@2@_K@Z 0000000180010470 f i zopflipng_lib.obj
 0001:0000f4e0       ?erase@?$_Tree@V?$_Tset_traits@IU?$less@I@std@@V?$allocator@I@2@$0A@@std@@@std@@QEAA?AV?$_Tree_const_iterator@V?$_Tree_val@U?$_Tree_simple_types@I@std@@@std@@@2@V32@0@Z 00000001800104e0 f i zopflipng_lib.obj
 0001:0000f5c0       ?_Reallocate@?$vector@V?$vector@EV?$allocator@E@std@@@std@@V?$allocator@V?$vector@EV?$allocator@E@std@@@std@@@2@@std@@IEAAX_K@Z 00000001800105c0 f i zopflipng_lib.obj
 0001:0000f730       ?_Reallocate@?$vector@EV?$allocator@E@std@@@std@@IEAAX_K@Z 0000000180010730 f i zopflipng_lib.obj
 0001:0000f830       ?_Reallocate@?$vector@V?$basic_string@DU?$char_traits@D@std@@V?$allocator@D@2@@std@@V?$allocator@V?$basic_string@DU?$char_traits@D@std@@V?$allocator@D@2@@std@@@2@@std@@IEAAX_K@Z 0000000180010830 f i zopflipng_lib.obj
 0001:0000f960       ?erase@?$_Tree@V?$_Tset_traits@V?$basic_string@DU?$char_traits@D@std@@V?$allocator@D@2@@std@@U?$less@V?$basic_string@DU?$char_traits@D@std@@V?$allocator@D@2@@std@@@2@V?$allocator@V?$basic_string@DU?$char_traits@D@std@@V?$allocator@D@2@@std@@@2@$0A@@std@@@std@@QEAA?AV?$_Tree_const_iterator@V?$_Tree_val@U?$_Tree_simple_types@V?$basic_string@DU?$char_traits@D@std@@V?$allocator@D@2@@std@@@std@@@std@@@2@V32@@Z 0000000180010960 f i zopflipng_lib.obj
 0001:0000fe00       ?allocate@?$_Wrap_alloc@V?$allocator@E@std@@@std@@QEAAPEAE_K@Z 0000000180010e00 f i zopflipng_lib.obj
 0001:0000fe60       ?erase@?$_Tree@V?$_Tset_traits@IU?$less@I@std@@V?$allocator@I@2@$0A@@std@@@std@@QEAA?AV?$_Tree_const_iterator@V?$_Tree_val@U?$_Tree_simple_types@I@std@@@std@@@2@V32@@Z 0000000180010e60 f i zopflipng_lib.obj
 0001:000102a0       ?_Rrotate@?$_Tree@V?$_Tset_traits@IU?$less@I@std@@V?$allocator@I@2@$0A@@std@@@std@@IEAAXPEAU?$_Tree_node@IPEAX@2@@Z 00000001800112a0 f i zopflipng_lib.obj
 0001:000102a0       ?_Rrotate@?$_Tree@V?$_Tset_traits@V?$basic_string@DU?$char_traits@D@std@@V?$allocator@D@2@@std@@U?$less@V?$basic_string@DU?$char_traits@D@std@@V?$allocator@D@2@@std@@@2@V?$allocator@V?$basic_string@DU?$char_traits@D@std@@V?$allocator@D@2@@std@@@2@$0A@@std@@@std@@IEAAXPEAU?$_Tree_node@V?$basic_string@DU?$char_traits@D@std@@V?$allocator@D@2@@std@@PEAX@2@@Z 00000001800112a0 f i zopflipng_lib.obj
 0001:00010300       ?_Lrotate@?$_Tree@V?$_Tset_traits@V?$basic_string@DU?$char_traits@D@std@@V?$allocator@D@2@@std@@U?$less@V?$basic_string@DU?$char_traits@D@std@@V?$allocator@D@2@@std@@@2@V?$allocator@V?$basic_string@DU?$char_traits@D@std@@V?$allocator@D@2@@std@@@2@$0A@@std@@@std@@IEAAXPEAU?$_Tree_node@V?$basic_string@DU?$char_traits@D@std@@V?$allocator@D@2@@std@@PEAX@2@@Z 0000000180011300 f i zopflipng_lib.obj
 0001:00010300       ?_Lrotate@?$_Tree@V?$_Tset_traits@IU?$less@I@std@@V?$allocator@I@2@$0A@@std@@@std@@IEAAXPEAU?$_Tree_node@IPEAX@2@@Z 0000000180011300 f i zopflipng_lib.obj
 0001:00010360       ?_Erase@?$_Tree@V?$_Tset_traits@V?$basic_string@DU?$char_traits@D@std@@V?$allocator@D@2@@std@@U?$less@V?$basic_string@DU?$char_traits@D@std@@V?$allocator@D@2@@std@@@2@V?$allocator@V?$basic_string@DU?$char_traits@D@std@@V?$allocator@D@2@@std@@@2@$0A@@std@@@std@@IEAAXPEAU?$_Tree_node@V?$basic_string@DU?$char_traits@D@std@@V?$allocator@D@2@@std@@PEAX@2@@Z 0000000180011360 f i zopflipng_lib.obj
 0001:00010440       ??$_Eqrange@V?$basic_string@DU?$char_traits@D@std@@V?$allocator@D@2@@std@@@?$_Tree@V?$_Tset_traits@V?$basic_string@DU?$char_traits@D@std@@V?$allocator@D@2@@std@@U?$less@V?$basic_string@DU?$char_traits@D@std@@V?$allocator@D@2@@std@@@2@V?$allocator@V?$basic_string@DU?$char_traits@D@std@@V?$allocator@D@2@@std@@@2@$0A@@std@@@std@@IEBA?AU?$pair@V?$_Tree_const_iterator@V?$_Tree_val@U?$_Tree_simple_types@V?$basic_string@DU?$char_traits@D@std@@V?$allocator@D@2@@std@@@std@@@std@@@std@@V12@@1@AEBV?$basic_string@DU?$char_traits@D@std@@V?$allocator@D@2@@1@@Z 0000000180011440 f i zopflipng_lib.obj
 0001:000105d0       ??$_Insert_nohint@AEBV?$basic_string@DU?$char_traits@D@std@@V?$allocator@D@2@@std@@U_Nil@2@@?$_Tree@V?$_Tset_traits@V?$basic_string@DU?$char_traits@D@std@@V?$allocator@D@2@@std@@U?$less@V?$basic_string@DU?$char_traits@D@std@@V?$allocator@D@2@@std@@@2@V?$allocator@V?$basic_string@DU?$char_traits@D@std@@V?$allocator@D@2@@std@@@2@$0A@@std@@@std@@IEAA?AU?$pair@V?$_Tree_const_iterator@V?$_Tree_val@U?$_Tree_simple_types@V?$basic_string@DU?$char_traits@D@std@@V?$allocator@D@2@@std@@@std@@@std@@@std@@_N@1@_NAEBV?$basic_string@DU?$char_traits@D@std@@V?$allocator@D@2@@1@U_Nil@1@@Z 00000001800115d0 f i zopflipng_lib.obj
 0001:00010790       ??$_Distance1@V?$_Tree_const_iterator@V?$_Tree_val@U?$_Tree_simple_types@V?$basic_string@DU?$char_traits@D@std@@V?$allocator@D@2@@std@@@std@@@std@@@std@@@std@@YA_JV?$_Tree_const_iterator@V?$_Tree_val@U?$_Tree_simple_types@V?$basic_string@DU?$char_traits@D@std@@V?$allocator@D@2@@std@@@std@@@std@@@0@0Uinput_iterator_tag@0@@Z 0000000180011790 f i zopflipng_lib.obj
 0001:00010810       ??$_Destroy_range1@V?$allocator@V?$vector@EV?$allocator@E@std@@@std@@@std@@PEAV?$vector@EV?$allocator@E@std@@@2@@std@@YAXPEAV?$vector@EV?$allocator@E@std@@@0@0AEAU?$_Wrap_alloc@V?$allocator@V?$vector@EV?$allocator@E@std@@@std@@@std@@@0@U?$integral_constant@_N$0A@@0@@Z 0000000180011810 f i zopflipng_lib.obj
 0001:000108b0       ??$_Insert_at@AEBIU_Nil@std@@@?$_Tree@V?$_Tset_traits@IU?$less@I@std@@V?$allocator@I@2@$0A@@std@@@std@@IEAA?AV?$_Tree_const_iterator@V?$_Tree_val@U?$_Tree_simple_types@I@std@@@std@@@1@_NPEAU?$_Tree_node@IPEAX@1@AEBIU_Nil@1@@Z 00000001800118b0 f i zopflipng_lib.obj
 0001:00010bc0       ??$_Insert_at@AEBV?$basic_string@DU?$char_traits@D@std@@V?$allocator@D@2@@std@@U_Nil@2@@?$_Tree@V?$_Tset_traits@V?$basic_string@DU?$char_traits@D@std@@V?$allocator@D@2@@std@@U?$less@V?$basic_string@DU?$char_traits@D@std@@V?$allocator@D@2@@std@@@2@V?$allocator@V?$basic_string@DU?$char_traits@D@std@@V?$allocator@D@2@@std@@@2@$0A@@std@@@std@@IEAA?AV?$_Tree_const_iterator@V?$_Tree_val@U?$_Tree_simple_types@V?$basic_string@DU?$char_traits@D@std@@V?$allocator@D@2@@std@@@std@@@std@@@1@_NPEAU?$_Tree_node@V?$basic_string@DU?$char_traits@D@std@@V?$allocator@D@2@@std@@PEAX@1@AEBV?$basic_string@DU?$char_traits@D@std@@V?$allocator@D@2@@1@U_Nil@1@@Z 0000000180011bc0 f i zopflipng_lib.obj
 0001:00010ef0       ?_Buy@?$vector@EV?$allocator@E@std@@@std@@IEAA_N_K@Z 0000000180011ef0 f i zopflipng_lib.obj
 0001:00010f70       ??1LodePNGState@@UEAA@XZ   0000000180011f70 f i lodepng.obj
 0001:00010f80       ??_GLodePNGState@@UEAAPEAXI@Z 0000000180011f80 f i lodepng.obj
 0001:00010f80       ??_ELodePNGState@@UEAAPEAXI@Z 0000000180011f80 f i * CIL library *:* CIL module *
 0001:00011c80       ?lodepng_huffman_code_lengths@@YAIPEAIPEBI_KI@Z 0000000180012c80 f   lodepng.obj
 0001:000152f0       ?lodepng_zlib_decompress@@YAIPEAPEAEPEA_KPEBE_KPEBULodePNGDecompressSettings@@@Z 00000001800162f0 f   lodepng.obj
 0001:00015450       ?lodepng_zlib_compress@@YAIPEAPEAEPEA_KPEBE_KPEBULodePNGCompressSettings@@@Z 0000000180016450 f   lodepng.obj
 0001:000156a0       ?lodepng_chunk_type_equals@@YAEPEBEPEBD@Z 00000001800166a0 f   lodepng.obj
 0001:00015700       ?lodepng_chunk_check_crc@@YAIPEBE@Z 0000000180016700 f   lodepng.obj
 0001:000157b0       ?lodepng_chunk_generate_crc@@YAXPEAE@Z 00000001800167b0 f   lodepng.obj
 0001:00015850       ?lodepng_chunk_append@@YAIPEAPEAEPEA_KPEBE@Z 0000000180016850 f   lodepng.obj
 0001:00015910       ?lodepng_chunk_create@@YAIPEAPEAEPEA_KIPEBDPEBE@Z 0000000180016910 f   lodepng.obj
 0001:00015a70       ?lodepng_color_mode_copy@@YAIPEAULodePNGColorMode@@PEBU1@@Z 0000000180016a70 f   lodepng.obj
 0001:00015bb0       ?lodepng_palette_add@@YAIPEAULodePNGColorMode@@EEEE@Z 0000000180016bb0 f   lodepng.obj
 0001:00015c50       ?lodepng_get_raw_size@@YA_KIIPEBULodePNGColorMode@@@Z 0000000180016c50 f   lodepng.obj
 0001:00016000       ?lodepng_add_text@@YAIPEAULodePNGInfo@@PEBD1@Z 0000000180017000 f   lodepng.obj
 0001:00016460       ?lodepng_add_itext@@YAIPEAULodePNGInfo@@PEBD111@Z 0000000180017460 f   lodepng.obj
 0001:00016630       ?lodepng_info_cleanup@@YAXPEAULodePNGInfo@@@Z 0000000180017630 f   lodepng.obj
 0001:00016690       ?lodepng_info_copy@@YAIPEAULodePNGInfo@@PEBU1@@Z 0000000180017690 f   lodepng.obj
 0001:000178a0       ?lodepng_convert@@YAIPEAEPEBEPEBULodePNGColorMode@@2II@Z 00000001800188a0 f   lodepng.obj
 0001:00017ba0       ?lodepng_get_color_profile@@YAIPEAULodePNGColorProfile@@PEBEIIPEBULodePNGColorMode@@@Z 0000000180018ba0 f   lodepng.obj
 0001:000183d0       ?lodepng_auto_choose_color@@YAIPEAULodePNGColorMode@@PEBEIIPEBU1@@Z 00000001800193d0 f   lodepng.obj
 0001:00018710       ?lodepng_inspect@@YAIPEAI0PEAULodePNGState@@PEBE_K@Z 0000000180019710 f   lodepng.obj
 0001:0001ac10       ?lodepng_decode@@YAIPEAPEAEPEAI1PEAULodePNGState@@PEBE_K@Z 000000018001bc10 f   lodepng.obj
 0001:0001ad70       ?lodepng_decode_memory@@YAIPEAPEAEPEAI1PEBE_KW4LodePNGColorType@@I@Z 000000018001bd70 f   lodepng.obj
 0001:0001ae90       ?lodepng_state_init@@YAXPEAULodePNGState@@@Z 000000018001be90 f   lodepng.obj
 0001:0001b010       ?lodepng_state_cleanup@@YAXPEAULodePNGState@@@Z 000000018001c010 f   lodepng.obj
 0001:0001dd30       ?lodepng_encode@@YAIPEAPEAEPEA_KPEBEIIPEAULodePNGState@@@Z 000000018001ed30 f   lodepng.obj
 0001:0001e580       ?lodepng_error_text@@YAPEBDI@Z 000000018001f580 f   lodepng.obj
 0001:0001e990       ??_GState@lodepng@@UEAAPEAXI@Z 000000018001f990 f i lodepng.obj
 0001:0001e990       ??_EState@lodepng@@UEAAPEAXI@Z 000000018001f990 f i * CIL library *:* CIL module *
 0001:0001e9e0       ??1State@lodepng@@UEAA@XZ  000000018001f9e0 f   lodepng.obj
 0001:0001ea10       ?decode@lodepng@@YAIAEAV?$vector@EV?$allocator@E@std@@@std@@AEAI1PEBE_KW4LodePNGColorType@@I@Z 000000018001fa10 f   lodepng.obj
 0001:0001eb80       ?encode@lodepng@@YAIAEAV?$vector@EV?$allocator@E@std@@@std@@AEBV23@IIAEAVState@1@@Z 000000018001fb80 f   lodepng.obj
 0001:0001eca0       ?resize@?$vector@EV?$allocator@E@std@@@std@@QEAAX_K@Z 000000018001fca0 f i lodepng.obj
 0001:0001ed70       ??$_Insert@PEAE@?$vector@EV?$allocator@E@std@@@std@@QEAAXV?$_Vector_const_iterator@V?$_Vector_val@U?$_Simple_types@E@std@@@std@@@1@PEAE1Uforward_iterator_tag@1@@Z 000000018001fd70 f i lodepng.obj
 0001:0001eed0       ??$_Rotate_unchecked1@PEAE@std@@YAPEAEPEAE00Urandom_access_iterator_tag@0@@Z 000000018001fed0 f i lodepng.obj
 0001:0001ef80       ?what@exception@stdext@@UEBAPEBDXZ 000000018001ff80 f i lodepng_util.obj
 0001:0001efa0       ?_Raise@exception@stdext@@QEBAXXZ 000000018001ffa0 f i lodepng_util.obj
 0001:0001efe0       ??_Gruntime_error@std@@UEAAPEAXI@Z 000000018001ffe0 f i lodepng_util.obj
 0001:0001efe0       ??_Gexception@stdext@@UEAAPEAXI@Z 000000018001ffe0 f i lodepng_util.obj
 0001:0001efe0       ??_Eexception@stdext@@UEAAPEAXI@Z 000000018001ffe0 f i * CIL library *:* CIL module *
 0001:0001efe0       ??_Eruntime_error@std@@UEAAPEAXI@Z 000000018001ffe0 f i * CIL library *:* CIL module *
 0001:0001f010       ??1runtime_error@std@@UEAA@XZ 0000000180020010 f i lodepng_util.obj
 0001:0001f010       ??1failure@ios_base@std@@UEAA@XZ 0000000180020010 f i lodepng_util.obj
 0001:0001f020       ??0_Locinfo@std@@QEAA@PEBD@Z 0000000180020020 f i lodepng_util.obj
 0001:0001f0c0       ??1_Locinfo@std@@QEAA@XZ   00000001800200c0 f i lodepng_util.obj
 0001:0001f160       ??_E_Facet_base@std@@UEAAPEAXI@Z 0000000180020160 f i * CIL library *:* CIL module *
 0001:0001f160       ??_G_Facet_base@std@@UEAAPEAXI@Z 0000000180020160 f i lodepng_util.obj
 0001:0001f190       ?_Incref@facet@locale@std@@UEAAXXZ 0000000180020190 f i lodepng_util.obj
 0001:0001f1a0       ?_Decref@facet@locale@std@@UEAAPEAV_Facet_base@3@XZ 00000001800201a0 f i lodepng_util.obj
 0001:0001f1b0       ??1locale@std@@QEAA@XZ     00000001800201b0 f i lodepng_util.obj
 0001:0001f1e0       ?_Getcat@?$ctype@D@std@@SA_KPEAPEBVfacet@locale@2@PEBV42@@Z 00000001800201e0 f i lodepng_util.obj
 0001:0001f340       ?do_tolower@?$ctype@D@std@@MEBADD@Z 0000000180020340 f i lodepng_util.obj
 0001:0001f350       ?do_tolower@?$ctype@D@std@@MEBAPEBDPEADPEBD@Z 0000000180020350 f i lodepng_util.obj
 0001:0001f3b0       ?do_toupper@?$ctype@D@std@@MEBADD@Z 00000001800203b0 f i lodepng_util.obj
 0001:0001f3c0       ?do_toupper@?$ctype@D@std@@MEBAPEBDPEADPEBD@Z 00000001800203c0 f i lodepng_util.obj
 0001:0001f420       ?do_widen@?$ctype@D@std@@MEBADD@Z 0000000180020420 f i lodepng_util.obj
 0001:0001f420       ?do_narrow@?$ctype@D@std@@MEBADDD@Z 0000000180020420 f i lodepng_util.obj
 0001:0001f430       ?do_widen@?$ctype@D@std@@MEBAPEBDPEBD0PEAD@Z 0000000180020430 f i lodepng_util.obj
 0001:0001f450       ?do_narrow@?$ctype@D@std@@MEBAPEBDPEBD0DPEAD@Z 0000000180020450 f i lodepng_util.obj
 0001:0001f470       ??_G?$ctype@D@std@@MEAAPEAXI@Z 0000000180020470 f i lodepng_util.obj
 0001:0001f470       ??_E?$ctype@D@std@@MEAAPEAXI@Z 0000000180020470 f i * CIL library *:* CIL module *
 0001:0001f4e0       ??_G_Iostream_error_category@std@@UEAAPEAXI@Z 00000001800204e0 f i lodepng_util.obj
 0001:0001f4e0       ??_Eerror_category@std@@UEAAPEAXI@Z 00000001800204e0 f i * CIL library *:* CIL module *
 0001:0001f4e0       ??_E_Iostream_error_category@std@@UEAAPEAXI@Z 00000001800204e0 f i * CIL library *:* CIL module *
 0001:0001f4e0       ??_Gerror_category@std@@UEAAPEAXI@Z 00000001800204e0 f i lodepng_util.obj
 0001:0001f510       ?message@error_code@std@@QEBA?AV?$basic_string@DU?$char_traits@D@std@@V?$allocator@D@2@@2@XZ 0000000180020510 f i lodepng_util.obj
 0001:0001f540       ?default_error_condition@error_category@std@@UEBA?AVerror_condition@2@H@Z 0000000180020540 f i lodepng_util.obj
 0001:0001f550       ?equivalent@error_category@std@@UEBA_NHAEBVerror_condition@2@@Z 0000000180020550 f i lodepng_util.obj
 0001:0001f5b0       ?equivalent@error_category@std@@UEBA_NAEBVerror_code@2@H@Z 00000001800205b0 f i lodepng_util.obj
 0001:0001f5d0       ?_Makestr@_System_error@std@@CA?AV?$basic_string@DU?$char_traits@D@std@@V?$allocator@D@2@@2@Verror_code@2@V32@@Z 00000001800205d0 f i lodepng_util.obj
 0001:0001f6e0       ??_E_System_error@std@@UEAAPEAXI@Z 00000001800206e0 f i * CIL library *:* CIL module *
 0001:0001f6e0       ??_G_System_error@std@@UEAAPEAXI@Z 00000001800206e0 f i lodepng_util.obj
 0001:0001f6e0       ??_Gfailure@ios_base@std@@UEAAPEAXI@Z 00000001800206e0 f i lodepng_util.obj
 0001:0001f6e0       ??_Efailure@ios_base@std@@UEAAPEAXI@Z 00000001800206e0 f i * CIL library *:* CIL module *
 0001:0001f710       ?message@_Generic_error_category@std@@UEBA?AV?$basic_string@DU?$char_traits@D@std@@V?$allocator@D@2@@2@H@Z 0000000180020710 f i lodepng_util.obj
 0001:0001f770       ?name@_Iostream_error_category@std@@UEBAPEBDXZ 0000000180020770 f i lodepng_util.obj
 0001:0001f780       ?message@_Iostream_error_category@std@@UEBA?AV?$basic_string@DU?$char_traits@D@std@@V?$allocator@D@2@@2@H@Z 0000000180020780 f i lodepng_util.obj
 0001:0001f7d0       ?clear@ios_base@std@@QEAAXH_N@Z 00000001800207d0 f i lodepng_util.obj
 0001:0001fc70       ?getloc@ios_base@std@@QEBA?AVlocale@2@XZ 0000000180020c70 f i lodepng_util.obj
 0001:0001fca0       ?getChunks@lodepng@@YAIQEAV?$vector@V?$basic_string@DU?$char_traits@D@std@@V?$allocator@D@2@@std@@V?$allocator@V?$basic_string@DU?$char_traits@D@std@@V?$allocator@D@2@@std@@@2@@std@@QEAV?$vector@V?$vector@EV?$allocator@E@std@@@std@@V?$allocator@V?$vector@EV?$allocator@E@std@@@std@@@2@@3@AEBV?$vector@EV?$allocator@E@std@@@3@@Z 0000000180020ca0 f   lodepng_util.obj
 0001:00020130       ?insertChunks@lodepng@@YAIAEAV?$vector@EV?$allocator@E@std@@@std@@QEBV?$vector@V?$vector@EV?$allocator@E@std@@@std@@V?$allocator@V?$vector@EV?$allocator@E@std@@@std@@@2@@3@@Z 0000000180021130 f   lodepng_util.obj
 0001:000206c0       ?getFilterTypesInterlaced@lodepng@@YAIAEAV?$vector@V?$vector@EV?$allocator@E@std@@@std@@V?$allocator@V?$vector@EV?$allocator@E@std@@@std@@@2@@std@@AEBV?$vector@EV?$allocator@E@std@@@3@@Z 00000001800216c0 f   lodepng_util.obj
 0001:00021060       ?getFilterTypes@lodepng@@YAIAEAV?$vector@EV?$allocator@E@std@@@std@@AEBV23@@Z 0000000180022060 f   lodepng_util.obj
 0001:00021350       ?resize@?$vector@V?$vector@EV?$allocator@E@std@@@std@@V?$allocator@V?$vector@EV?$allocator@E@std@@@std@@@2@@std@@QEAAX_K@Z 0000000180022350 f i lodepng_util.obj
 0001:00021450       ?push_back@?$vector@V?$vector@EV?$allocator@E@std@@@std@@V?$allocator@V?$vector@EV?$allocator@E@std@@@std@@@2@@std@@QEAAX$$QEAV?$vector@EV?$allocator@E@std@@@2@@Z 0000000180022450 f i lodepng_util.obj
 0001:00021560       ?push_back@?$vector@V?$basic_string@DU?$char_traits@D@std@@V?$allocator@D@2@@std@@V?$allocator@V?$basic_string@DU?$char_traits@D@std@@V?$allocator@D@2@@std@@@2@@std@@QEAAXAEBV?$basic_string@DU?$char_traits@D@std@@V?$allocator@D@2@@2@@Z 0000000180022560 f i lodepng_util.obj
 0001:00021630       ??4?$vector@EV?$allocator@E@std@@@std@@QEAAAEAV01@AEBV01@@Z 0000000180022630 f i lodepng_util.obj
 0001:00021740       ??1?$_Yarn@_W@std@@QEAA@XZ 0000000180022740 f i lodepng_util.obj
 0001:00021740       ??1?$_Yarn@D@std@@QEAA@XZ  0000000180022740 f i lodepng_util.obj
 0001:00021770       ?append@?$basic_string@DU?$char_traits@D@std@@V?$allocator@D@2@@std@@QEAAAEAV12@PEBD_K@Z 0000000180022770 f i lodepng_util.obj
 0001:000218c0       ?append@?$basic_string@DU?$char_traits@D@std@@V?$allocator@D@2@@std@@QEAAAEAV12@_KD@Z 00000001800228c0 f i lodepng_util.obj
 0001:000219d0       ??$use_facet@V?$ctype@D@std@@@std@@YAAEBV?$ctype@D@0@AEBVlocale@0@@Z 00000001800229d0 f i lodepng_util.obj
 0001:00021b00       ??$_Immortalize@V_Iostream_error_category@std@@@std@@YAAEAV_Iostream_error_category@0@XZ 0000000180022b00 f i lodepng_util.obj
 0001:00021b80       ?widen@?$basic_ios@DU?$char_traits@D@std@@@std@@QEBADD@Z 0000000180022b80 f i lodepng_util.obj
 0001:00021c00       ??$_Insert@V?$_Vector_iterator@V?$_Vector_val@U?$_Simple_types@E@std@@@std@@@std@@@?$vector@EV?$allocator@E@std@@@std@@QEAAXV?$_Vector_const_iterator@V?$_Vector_val@U?$_Simple_types@E@std@@@std@@@1@V?$_Vector_iterator@V?$_Vector_val@U?$_Simple_types@E@std@@@std@@@1@1Uforward_iterator_tag@1@@Z 0000000180022c00 f i lodepng_util.obj
 0001:00021c00       ??$_Insert@V?$_Vector_const_iterator@V?$_Vector_val@U?$_Simple_types@E@std@@@std@@@std@@@?$vector@EV?$allocator@E@std@@@std@@QEAAXV?$_Vector_const_iterator@V?$_Vector_val@U?$_Simple_types@E@std@@@std@@@1@00Uforward_iterator_tag@1@@Z 0000000180022c00 f i lodepng_util.obj
 0001:00021dbc       __imp_load_uv_queue_work   0000000180022dbc f   node:node.exe
 0001:00021dc8       __tailMerge_node_exe       0000000180022dc8 f i node:node.exe
 0001:00021e41       __imp_load_?Global@Context@v8@@QEAA?AV?$Local@VObject@v8@@@2@XZ 0000000180022e41 f   node:node.exe
 0001:00021e4d       __imp_load_?Value@External@v8@@QEBAPEAXXZ 0000000180022e4d f   node:node.exe
 0001:00021e59       __imp_load_?New@External@v8@@SA?AV?$Local@VExternal@v8@@@2@PEAVIsolate@2@PEAX@Z 0000000180022e59 f   node:node.exe
 0001:00021e65       __imp_load_?NewFromUnsigned@Integer@v8@@SA?AV?$Local@VInteger@v8@@@2@PEAVIsolate@2@I@Z 0000000180022e65 f   node:node.exe
 0001:00021e71       __imp_load_?ThrowException@Isolate@v8@@QEAA?AV?$Local@VValue@v8@@@2@V32@@Z 0000000180022e71 f   node:node.exe
 0001:00021e7d       __imp_load_?GetCurrentContext@Isolate@v8@@QEAA?AV?$Local@VContext@v8@@@2@XZ 0000000180022e7d f   node:node.exe
 0001:00021e89       __imp_load_?GetCurrent@Isolate@v8@@SAPEAV12@XZ 0000000180022e89 f   node:node.exe
 0001:00021e95       __imp_load_?CreateHandle@HandleScope@v8@@KAPEAPEAVObject@internal@2@PEAVIsolate@42@PEAV342@@Z 0000000180022e95 f   node:node.exe
 0001:00021ea1       __imp_load_?CreateHandle@HandleScope@v8@@CAPEAPEAVObject@internal@2@PEAVHeapObject@42@PEAV342@@Z 0000000180022ea1 f   node:node.exe
 0001:00021ead       __imp_load_??1HandleScope@v8@@QEAA@XZ 0000000180022ead f   node:node.exe
 0001:00021eb9       __imp_load_??0HandleScope@v8@@QEAA@PEAVIsolate@1@@Z 0000000180022eb9 f   node:node.exe
 0001:00021ec5       __imp_load_?Error@Exception@v8@@SA?AV?$Local@VValue@v8@@@2@V?$Local@VString@v8@@@2@@Z 0000000180022ec5 f   node:node.exe
 0001:00021ed1       __imp_load_?TypeError@Exception@v8@@SA?AV?$Local@VValue@v8@@@2@V?$Local@VString@v8@@@2@@Z 0000000180022ed1 f   node:node.exe
 0001:00021edd       __imp_load_?SetClassName@FunctionTemplate@v8@@QEAAXV?$Local@VString@v8@@@2@@Z 0000000180022edd f   node:node.exe
 0001:00021ee9       __imp_load_?GetFunction@FunctionTemplate@v8@@QEAA?AV?$MaybeLocal@VFunction@v8@@@2@V?$Local@VContext@v8@@@2@@Z 0000000180022ee9 f   node:node.exe
 0001:00021ef5       __imp_load_?New@FunctionTemplate@v8@@SA?AV?$Local@VFunctionTemplate@v8@@@2@PEAVIsolate@2@P6AXAEBV?$FunctionCallbackInfo@VValue@v8@@@2@@ZV?$Local@VValue@v8@@@2@V?$Local@VSignature@v8@@@2@HW4ConstructorBehavior@2@@Z 0000000180022ef5 f   node:node.exe
 0001:00021f01       __imp_load_?ToLocalEmpty@V8@v8@@CAXXZ 0000000180022f01 f   node:node.exe
 0001:00021f0d       __imp_load_?FromJustIsNothing@V8@v8@@CAXXZ 0000000180022f0d f   node:node.exe
 0001:00021f19       __imp_load_?DisposeGlobal@V8@v8@@CAXPEAPEAVObject@internal@2@@Z 0000000180022f19 f   node:node.exe
 0001:00021f25       __imp_load_?GlobalizeReference@V8@v8@@CAPEAPEAVObject@internal@2@PEAVIsolate@42@PEAPEAV342@@Z 0000000180022f25 f   node:node.exe
 0001:00021f31       __imp_load_?Int32Value@Value@v8@@QEBAHXZ 0000000180022f31 f   node:node.exe
 0001:00021f3d       __imp_load_?Uint32Value@Value@v8@@QEBAIXZ 0000000180022f3d f   node:node.exe
 0001:00021f49       __imp_load_?BooleanValue@Value@v8@@QEBA_NXZ 0000000180022f49 f   node:node.exe
 0001:00021f55       __imp_load_?ToUint32@Value@v8@@QEBA?AV?$MaybeLocal@VUint32@v8@@@2@V?$Local@VContext@v8@@@2@@Z 0000000180022f55 f   node:node.exe
 0001:00021f61       __imp_load_?IsUint32@Value@v8@@QEBA_NXZ 0000000180022f61 f   node:node.exe
 0001:00021f6d       __imp_load_?IsInt32@Value@v8@@QEBA_NXZ 0000000180022f6d f   node:node.exe
 0001:00021f79       __imp_load_?IsObject@Value@v8@@QEBA_NXZ 0000000180022f79 f   node:node.exe
 0001:00021f85       __imp_load_?IsFunction@Value@v8@@QEBA_NXZ 0000000180022f85 f   node:node.exe
 0001:00021f91       __imp_load_?Escape@EscapableHandleScope@v8@@AEAAPEAPEAVObject@internal@2@PEAPEAV342@@Z 0000000180022f91 f   node:node.exe
 0001:00021f9d       __imp_load_??0EscapableHandleScope@v8@@QEAA@PEAVIsolate@1@@Z 0000000180022f9d f   node:node.exe
 0001:00021fa9       __imp_load_?NewFromUtf8@String@v8@@SA?AV?$MaybeLocal@VString@v8@@@2@PEAVIsolate@2@PEBDW4NewStringType@2@H@Z 0000000180022fa9 f   node:node.exe
 0001:00021fb5       __imp_load_?WriteUtf8@String@v8@@QEBAHPEADHPEAHH@Z 0000000180022fb5 f   node:node.exe
 0001:00021fc1       __imp_load_?Length@String@v8@@QEBAHXZ 0000000180022fc1 f   node:node.exe
 0001:00021fcd       __imp_load_?SlowGetInternalField@Object@v8@@AEAA?AV?$Local@VValue@v8@@@2@H@Z 0000000180022fcd f   node:node.exe
 0001:00021fd9       __imp_load_?New@Object@v8@@SA?AV?$Local@VObject@v8@@@2@PEAVIsolate@2@@Z 0000000180022fd9 f   node:node.exe
 0001:00021fe5       __imp_load_?SetInternalField@Object@v8@@QEAAXHV?$Local@VValue@v8@@@2@@Z 0000000180022fe5 f   node:node.exe
 0001:00021ff1       __imp_load_?Has@Object@v8@@QEAA?AV?$Maybe@_N@2@V?$Local@VContext@v8@@@2@V?$Local@VValue@v8@@@2@@Z 0000000180022ff1 f   node:node.exe
 0001:00021ffd       __imp_load_?Get@Object@v8@@QEAA?AV?$MaybeLocal@VValue@v8@@@2@V?$Local@VContext@v8@@@2@V?$Local@VValue@v8@@@2@@Z 0000000180022ffd f   node:node.exe
 0001:00022009       __imp_load_?Set@Object@v8@@QEAA_NV?$Local@VValue@v8@@@2@0@Z 0000000180023009 f   node:node.exe
 0001:00022015       __imp_load_?SetInternalFieldCount@ObjectTemplate@v8@@QEAAXH@Z 0000000180023015 f   node:node.exe
 0001:00022021       __imp_load_?NewInstance@ObjectTemplate@v8@@QEAA?AV?$MaybeLocal@VObject@v8@@@2@V?$Local@VContext@v8@@@2@@Z 0000000180023021 f   node:node.exe
 0001:0002202d       __imp_load_?New@ObjectTemplate@v8@@SA?AV?$Local@VObjectTemplate@v8@@@2@PEAVIsolate@2@V?$Local@VFunctionTemplate@v8@@@2@@Z 000000018002302d f   node:node.exe
 0001:00022039       __imp_load_node_module_register 0000000180023039 f   node:node.exe
 0001:00022045       __imp_load_?HasInstance@Buffer@node@@YA_NV?$Local@VValue@v8@@@v8@@@Z 0000000180023045 f   node:node.exe
 0001:00022051       __imp_load_?New@Buffer@node@@YA?AV?$MaybeLocal@VObject@v8@@@v8@@PEAVIsolate@4@PEAD_K@Z 0000000180023051 f   node:node.exe
 0001:0002205d       __imp_load_?Data@Buffer@node@@YAPEADV?$Local@VObject@v8@@@v8@@@Z 000000018002305d f   node:node.exe
 0001:00022069       __imp_load_?Length@Buffer@node@@YA_KV?$Local@VObject@v8@@@v8@@@Z 0000000180023069 f   node:node.exe
 0001:00022075       __imp_load_?MakeCallback@node@@YA?AV?$Local@VValue@v8@@@v8@@PEAVIsolate@3@V?$Local@VObject@v8@@@3@V?$Local@VFunction@v8@@@3@HPEAV23@@Z 0000000180023075 f   node:node.exe
 0001:00022081       __imp_load_?GetCurrentEventLoop@node@@YAPEAUuv_loop_s@@PEAVIsolate@v8@@@Z 0000000180023081 f   node:node.exe
 0001:0002208d       __imp_load_?ToObject@Value@v8@@QEBA?AV?$Local@VObject@v8@@@2@XZ 000000018002308d f   node:node.exe
 0001:00022099       __imp_load_?ToString@Value@v8@@QEBA?AV?$Local@VString@v8@@@2@XZ 0000000180023099 f   node:node.exe
 0001:000220a5       __imp_load_??1EscapableHandleScope@v8@@QEAA@XZ 00000001800230a5 f   node:node.exe
 0001:000220b1       __imp_load_?Length@Array@v8@@QEBAIXZ 00000001800230b1 f   node:node.exe
 0001:000220bd       __imp_load_?ToInteger@Value@v8@@QEBA?AV?$MaybeLocal@VInteger@v8@@@2@V?$Local@VContext@v8@@@2@@Z 00000001800230bd f   node:node.exe
 0001:000220c9       __imp_load_?IsNumber@Value@v8@@QEBA_NXZ 00000001800230c9 f   node:node.exe
 0001:000220d5       __imp_load_?IsArray@Value@v8@@QEBA_NXZ 00000001800230d5 f   node:node.exe
 0001:000220e1       __imp_load_?Get@Object@v8@@QEAA?AV?$Local@VValue@v8@@@2@I@Z 00000001800230e1 f   node:node.exe
 0001:000220f0       ??0bad_alloc@std@@QEAA@AEBV01@@Z 00000001800230f0 f i libcpmt:xthrow.obj
 0001:00022130       ??0bad_alloc@std@@QEAA@XZ  0000000180023130 f i libcpmt:xthrow.obj
 0001:00022150       ??0exception@std@@QEAA@AEBV01@@Z 0000000180023150 f i libcpmt:xthrow.obj
 0001:00022188       ??0length_error@std@@QEAA@AEBV01@@Z 0000000180023188 f i libcpmt:xthrow.obj
 0001:000221c8       ??0length_error@std@@QEAA@PEBD@Z 00000001800231c8 f i libcpmt:xthrow.obj
 0001:00022214       ??0logic_error@std@@QEAA@AEBV01@@Z 0000000180023214 f i libcpmt:xthrow.obj
 0001:00022254       ??0out_of_range@std@@QEAA@AEBV01@@Z 0000000180023254 f i libcpmt:xthrow.obj
 0001:00022294       ??0out_of_range@std@@QEAA@PEBD@Z 0000000180023294 f i libcpmt:xthrow.obj
 0001:000222e0       ??1out_of_range@std@@UEAA@XZ 00000001800232e0 f i libcpmt:xthrow.obj
 0001:000222e0       ??1bad_array_new_length@std@@UEAA@XZ 00000001800232e0 f i LIBCMT:throw_bad_alloc.obj
 0001:000222e0       ??1length_error@std@@UEAA@XZ 00000001800232e0 f i libcpmt:xthrow.obj
 0001:000222e0       ??1bad_alloc@std@@UEAA@XZ  00000001800232e0 f i libcpmt:xthrow.obj
 0001:000222e0       ??1bad_cast@std@@UEAA@XZ   00000001800232e0 f i libcpmt:cout.obj
 0001:000222e0       ??1bad_exception@std@@UEAA@XZ 00000001800232e0 f i libvcruntime:frame.obj
 0001:000222f4       ??_Ebad_exception@std@@UEAAPEAXI@Z 00000001800232f4 f i libvcruntime:frame.obj
 0001:000222f4       ??_Glength_error@std@@UEAAPEAXI@Z 00000001800232f4 f i libcpmt:xthrow.obj
 0001:000222f4       ??_Eout_of_range@std@@UEAAPEAXI@Z 00000001800232f4 f i libcpmt:xthrow.obj
 0001:000222f4       ??_Ebad_cast@std@@UEAAPEAXI@Z 00000001800232f4 f i libcpmt:cout.obj
 0001:000222f4       ??_Eexception@std@@UEAAPEAXI@Z 00000001800232f4 f i libcpmt:xthrow.obj
 0001:000222f4       ??_Glogic_error@std@@UEAAPEAXI@Z 00000001800232f4 f i libcpmt:xthrow.obj
 0001:000222f4       ??_Elogic_error@std@@UEAAPEAXI@Z 00000001800232f4 f i libcpmt:xthrow.obj
 0001:000222f4       ??_Gout_of_range@std@@UEAAPEAXI@Z 00000001800232f4 f i libcpmt:xthrow.obj
 0001:000222f4       ??_Gbad_alloc@std@@UEAAPEAXI@Z 00000001800232f4 f i libcpmt:xthrow.obj
 0001:000222f4       ??_Gbad_array_new_length@std@@UEAAPEAXI@Z 00000001800232f4 f i LIBCMT:throw_bad_alloc.obj
 0001:000222f4       ??_Ebad_array_new_length@std@@UEAAPEAXI@Z 00000001800232f4 f i LIBCMT:throw_bad_alloc.obj
 0001:000222f4       ??_Gbad_exception@std@@UEAAPEAXI@Z 00000001800232f4 f i libvcruntime:frame.obj
 0001:000222f4       ??_Ebad_alloc@std@@UEAAPEAXI@Z 00000001800232f4 f i libcpmt:xthrow.obj
 0001:000222f4       ??_Elength_error@std@@UEAAPEAXI@Z 00000001800232f4 f i libcpmt:xthrow.obj
 0001:000222f4       ??_Gbad_cast@std@@UEAAPEAXI@Z 00000001800232f4 f i libcpmt:cout.obj
 0001:000222f4       ??_Gexception@std@@UEAAPEAXI@Z 00000001800232f4 f i libcpmt:xthrow.obj
 0001:00022338       ?_Xlength_error@std@@YAXPEBD@Z 0000000180023338 f   libcpmt:xthrow.obj
 0001:0002235c       ?_Xout_of_range@std@@YAXPEBD@Z 000000018002335c f   libcpmt:xthrow.obj
 0001:00022380       ?what@exception@std@@UEBAPEBDXZ 0000000180023380 f i libcpmt:xthrow.obj
 0001:00022394       ??0_Init_locks@std@@QEAA@XZ 0000000180023394 f   libcpmt:xlock.obj
 0001:000223e0       ??0_Lockit@std@@QEAA@H@Z   00000001800233e0 f   libcpmt:xlock.obj
 0001:0002241c       ??1_Init_locks@std@@QEAA@XZ 000000018002341c f   libcpmt:xlock.obj
 0001:00022460       ??1_Lockit@std@@QEAA@XZ    0000000180023460 f   libcpmt:xlock.obj
 0001:00022494       ??$use_facet@V?$codecvt@DDU_Mbstatet@@@std@@@std@@YAAEBV?$codecvt@DDU_Mbstatet@@@0@AEBVlocale@0@@Z 0000000180023494 f i libcpmt:cout.obj
 0001:000225cc       ??0?$basic_ostream@DU?$char_traits@D@std@@@std@@QEAA@PEAV?$basic_streambuf@DU?$char_traits@D@std@@@1@_N@Z 00000001800235cc f i libcpmt:cout.obj
 0001:00022694       ??0?$basic_streambuf@DU?$char_traits@D@std@@@std@@IEAA@XZ 0000000180023694 f i libcpmt:cout.obj
 0001:00022744       ??0_Init_cout@std@@QEAA@XZ 0000000180023744 f i libcpmt:cout.obj
 0001:000227b0       ??0bad_cast@std@@QEAA@AEBV01@@Z 00000001800237b0 f i libcpmt:cout.obj
 0001:000227f0       ??0bad_cast@std@@QEAA@XZ   00000001800237f0 f i libcpmt:cout.obj
 0001:00022810       ??1?$basic_filebuf@DU?$char_traits@D@std@@@std@@UEAA@XZ 0000000180023810 f i libcpmt:cout.obj
 0001:000228bc       ??1?$basic_ios@DU?$char_traits@D@std@@@std@@UEAA@XZ 00000001800238bc f i libcpmt:cout.obj
 0001:000228e0       ??_E?$basic_ostream@DU?$char_traits@D@std@@@std@@$4PPPPPPPM@A@EAAPEAXI@Z 00000001800238e0 f i libcpmt:cout.obj
 0001:000228ec       ??_E?$basic_filebuf@DU?$char_traits@D@std@@@std@@UEAAPEAXI@Z 00000001800238ec f i libcpmt:cout.obj
 0001:000228ec       ??_G?$basic_filebuf@DU?$char_traits@D@std@@@std@@UEAAPEAXI@Z 00000001800238ec f i libcpmt:cout.obj
 0001:00022920       ??_E?$basic_ios@DU?$char_traits@D@std@@@std@@UEAAPEAXI@Z 0000000180023920 f i libcpmt:cout.obj
 0001:00022920       ??_G?$basic_ios@DU?$char_traits@D@std@@@std@@UEAAPEAXI@Z 0000000180023920 f i libcpmt:cout.obj
 0001:0002296c       ??_E?$basic_ostream@DU?$char_traits@D@std@@@std@@UEAAPEAXI@Z 000000018002396c f i libcpmt:cout.obj
 0001:0002296c       ??_G?$basic_ostream@DU?$char_traits@D@std@@@std@@UEAAPEAXI@Z 000000018002396c f i libcpmt:cout.obj
 0001:000229dc       ??_G?$basic_streambuf@DU?$char_traits@D@std@@@std@@UEAAPEAXI@Z 00000001800239dc f i libcpmt:cout.obj
 0001:000229dc       ??_E?$basic_streambuf@DU?$char_traits@D@std@@@std@@UEAAPEAXI@Z 00000001800239dc f i libcpmt:cout.obj
 0001:00022a2c       ??_G?$codecvt@DDU_Mbstatet@@@std@@MEAAPEAXI@Z 0000000180023a2c f i libcpmt:cout.obj
 0001:00022a2c       ??_E?$codecvt@DDU_Mbstatet@@@std@@MEAAPEAXI@Z 0000000180023a2c f i libcpmt:cout.obj
 0001:00022a58       ??_Gios_base@std@@UEAAPEAXI@Z 0000000180023a58 f i libcpmt:cout.obj
 0001:00022a58       ??_Eios_base@std@@UEAAPEAXI@Z 0000000180023a58 f i libcpmt:cout.obj
 0001:00022aa4       ??_Glocale@std@@QEAAPEAXI@Z 0000000180023aa4 f i libcpmt:cout.obj
 0001:00022b34       ?_Endwrite@?$basic_filebuf@DU?$char_traits@D@std@@@std@@IEAA_NXZ 0000000180023b34 f i libcpmt:cout.obj
 0001:00022ce8       ?_Getcat@?$codecvt@DDU_Mbstatet@@@std@@SA_KPEAPEBVfacet@locale@2@PEBV42@@Z 0000000180023ce8 f i libcpmt:cout.obj
 0001:00022dac       ?_Init@?$basic_filebuf@DU?$char_traits@D@std@@@std@@IEAAXPEAU_iobuf@@W4_Initfl@12@@Z 0000000180023dac f i libcpmt:cout.obj
 0001:00022e98       ?_Init@ios_base@std@@IEAAXXZ 0000000180023e98 f i libcpmt:cout.obj
 0001:00022f18       ?_Initcvt@?$basic_filebuf@DU?$char_traits@D@std@@@std@@IEAAXPEBV?$codecvt@DDU_Mbstatet@@@2@@Z 0000000180023f18 f i libcpmt:cout.obj
 0001:00022fb8       ?_Lock@?$basic_filebuf@DU?$char_traits@D@std@@@std@@UEAAXXZ 0000000180023fb8 f i libcpmt:cout.obj
 0001:00022fd4       ?_Unlock@?$basic_filebuf@DU?$char_traits@D@std@@@std@@UEAAXXZ 0000000180023fd4 f i libcpmt:cout.obj
 0001:00022ff0       ?do_always_noconv@?$codecvt@DDU_Mbstatet@@@std@@MEBA_NXZ 0000000180023ff0 f i libcpmt:cout.obj
 0001:00022ff0       __acrt_uninitialize_command_line 0000000180023ff0 f i libucrt:argv_data.obj
 0001:00022ff4       ?do_max_length@codecvt_base@std@@MEBAHXZ 0000000180023ff4 f i libcpmt:cout.obj
 0001:00022ff4       DllMain                    0000000180023ff4 f i LIBCMT:dll_dllmain_stub.obj
 0001:00022ff4       _get_startup_argv_mode     0000000180023ff4 f i LIBCMT:argv_mode.obj
 0001:00022ff4       ?do_encoding@codecvt_base@std@@MEBAHXZ 0000000180023ff4 f i libcpmt:cout.obj
 0001:00022ffc       ?do_length@?$codecvt@DDU_Mbstatet@@@std@@MEBAHAEAU_Mbstatet@@PEBD1_K@Z 0000000180023ffc f i libcpmt:cout.obj
 0001:00023010       ?do_out@?$codecvt@DDU_Mbstatet@@@std@@MEBAHAEAU_Mbstatet@@PEBD1AEAPEBDPEAD3AEAPEAD@Z 0000000180024010 f i libcpmt:cout.obj
 0001:00023010       ?do_in@?$codecvt@DDU_Mbstatet@@@std@@MEBAHAEAU_Mbstatet@@PEBD1AEAPEBDPEAD3AEAPEAD@Z 0000000180024010 f i libcpmt:cout.obj
 0001:0002302c       ?do_unshift@?$codecvt@DDU_Mbstatet@@@std@@MEBAHAEAU_Mbstatet@@PEAD1AEAPEAD@Z 000000018002402c f i libcpmt:cout.obj
 0001:00023038       ?imbue@?$basic_filebuf@DU?$char_traits@D@std@@@std@@MEAAXAEBVlocale@2@@Z 0000000180024038 f i libcpmt:cout.obj
 0001:0002305c       ?overflow@?$basic_filebuf@DU?$char_traits@D@std@@@std@@MEAAHH@Z 000000018002405c f i libcpmt:cout.obj
 0001:000232bc       ?underflow@?$basic_streambuf@DU?$char_traits@D@std@@@std@@MEAAHXZ 00000001800242bc f i libcpmt:cout.obj
 0001:000232bc       ?overflow@?$basic_streambuf@DU?$char_traits@D@std@@@std@@MEAAHH@Z 00000001800242bc f i libcpmt:cout.obj
 0001:000232bc       ?pbackfail@?$basic_streambuf@DU?$char_traits@D@std@@@std@@MEAAHH@Z 00000001800242bc f i libcpmt:cout.obj
 0001:000232c0       ?pbackfail@?$basic_filebuf@DU?$char_traits@D@std@@@std@@MEAAHH@Z 00000001800242c0 f i libcpmt:cout.obj
 0001:00023390       ?seekoff@?$basic_filebuf@DU?$char_traits@D@std@@@std@@MEAA?AV?$fpos@U_Mbstatet@@@2@_JHH@Z 0000000180024390 f i libcpmt:cout.obj
 0001:0002347c       ?seekoff@?$basic_streambuf@DU?$char_traits@D@std@@@std@@MEAA?AV?$fpos@U_Mbstatet@@@2@_JHH@Z 000000018002447c f i libcpmt:cout.obj
 0001:0002347c       ?seekpos@?$basic_streambuf@DU?$char_traits@D@std@@@std@@MEAA?AV?$fpos@U_Mbstatet@@@2@V32@H@Z 000000018002447c f i libcpmt:cout.obj
 0001:00023498       ?seekpos@?$basic_filebuf@DU?$char_traits@D@std@@@std@@MEAA?AV?$fpos@U_Mbstatet@@@2@V32@H@Z 0000000180024498 f i libcpmt:cout.obj
 0001:00023598       ?setbuf@?$basic_filebuf@DU?$char_traits@D@std@@@std@@MEAAPEAV?$basic_streambuf@DU?$char_traits@D@std@@@2@PEAD_J@Z 0000000180024598 f i libcpmt:cout.obj
 0001:000235ec       ?setbuf@?$basic_streambuf@DU?$char_traits@D@std@@@std@@MEAAPEAV12@PEAD_J@Z 00000001800245ec f i libcpmt:cout.obj
 0001:000235f0       ?sync@?$basic_filebuf@DU?$char_traits@D@std@@@std@@MEAAHXZ 00000001800245f0 f i libcpmt:cout.obj
 0001:00023650       ?uflow@?$basic_filebuf@DU?$char_traits@D@std@@@std@@MEAAHXZ 0000000180024650 f i libcpmt:cout.obj
 0001:000238e8       ?uflow@?$basic_streambuf@DU?$char_traits@D@std@@@std@@MEAAHXZ 00000001800248e8 f i libcpmt:cout.obj
 0001:00023934       ?underflow@?$basic_filebuf@DU?$char_traits@D@std@@@std@@MEAAHXZ 0000000180024934 f i libcpmt:cout.obj
 0001:000239ac       ?xsgetn@?$basic_streambuf@DU?$char_traits@D@std@@@std@@MEAA_JPEAD_J@Z 00000001800249ac f i libcpmt:cout.obj
 0001:00023a6c       ?xsputn@?$basic_streambuf@DU?$char_traits@D@std@@@std@@MEAA_JPEBD_J@Z 0000000180024a6c f i libcpmt:cout.obj
 0001:00023b30       ??4?$_Yarn@D@std@@QEAAAEAV01@PEBD@Z 0000000180024b30 f i libcpmt:locale0.obj
 0001:00023ba8       ??_G_Fac_node@std@@QEAAPEAXI@Z 0000000180024ba8 f i libcpmt:locale0.obj
 0001:00023c34       ??_E_Locimp@locale@std@@MEAAPEAXI@Z 0000000180024c34 f i libcpmt:locale0.obj
 0001:00023c34       ??_G_Locimp@locale@std@@MEAAPEAXI@Z 0000000180024c34 f i libcpmt:locale0.obj
 0001:00023ca0       ?_Facet_Register@std@@YAXPEAV_Facet_base@1@@Z 0000000180024ca0 f   libcpmt:locale0.obj
 0001:00023cd8       ?_Getgloballocale@locale@std@@CAPEAV_Locimp@12@XZ 0000000180024cd8 f   libcpmt:locale0.obj
 0001:00023ce0       ?_Init@locale@std@@CAPEAV_Locimp@12@_N@Z 0000000180024ce0 f   libcpmt:locale0.obj
 0001:00023d9c       ?_Locimp_dtor@_Locimp@locale@std@@CAXPEAV123@@Z 0000000180024d9c f   libcpmt:locale0.obj
 0001:00023e44       ?_Locinfo_ctor@_Locinfo@std@@SAXPEAV12@PEBD@Z 0000000180024e44 f   libcpmt:locale0.obj
 0001:00023eb0       ?_Locinfo_dtor@_Locinfo@std@@SAXPEAV12@@Z 0000000180024eb0 f   libcpmt:locale0.obj
 0001:00023ed4       ?_New_Locimp@_Locimp@locale@std@@CAPEAV123@_N@Z 0000000180024ed4 f   libcpmt:locale0.obj
 0001:00023f44       ?_Setgloballocale@locale@std@@CAXPEAX@Z 0000000180024f44 f   libcpmt:locale0.obj
 0001:00023f78       _Deletegloballocale        0000000180024f78 f   libcpmt:locale0.obj
 0001:00024000       ?_Syserror_map@std@@YAPEBDH@Z 0000000180025000 f   libcpmt:syserror.obj
 0001:00024028       _Getctype                  0000000180025028 f   libcpmt:_tolower.obj
 0001:000240e8       _Tolower                   00000001800250e8 f   libcpmt:_tolower.obj
 0001:00024210       _Toupper                   0000000180025210 f   libcpmt:_toupper.obj
 0001:00024348       _Mtxdst                    0000000180025348 f   libcpmt:xmtx.obj
 0001:00024350       _Mtxinit                   0000000180025350 f   libcpmt:xmtx.obj
 0001:00024360       _Mtxlock                   0000000180025360 f   libcpmt:xmtx.obj
 0001:00024368       _Mtxunlock                 0000000180025368 f   libcpmt:xmtx.obj
 0001:00024370       ?_Addstd@ios_base@std@@SAXPEAV12@@Z 0000000180025370 f   libcpmt:ios.obj
 0001:000243e0       ?_Ios_base_dtor@ios_base@std@@CAXPEAV12@@Z 00000001800253e0 f   libcpmt:ios.obj
 0001:00024424       ?_Tidy@ios_base@std@@AEAAXXZ 0000000180025424 f i libcpmt:ios.obj
 0001:000244b4       ?_Atexit@@YAXP6AXXZ@Z      00000001800254b4 f   libcpmt:iosptrs.obj
 0001:000244f4       __crtLCMapStringA          00000001800254f4 f   libcpmt:StlLCMapStringA.obj
 0001:00024cb0       __crtInitializeCriticalSectionEx 0000000180025cb0 f   libcpmt:winapisupp.obj
 0001:00024d10       GetTableIndexFromLocaleName 0000000180025d10 f   libcpmt:winapinls.obj
 0001:00024d9c       __crtDownlevelLocaleNameToLCID 0000000180025d9c f   libcpmt:winapinls.obj
 0001:00024dd0       __crtLCMapStringEx         0000000180025dd0 f   libcpmt:winapinls.obj
 0001:00024e8c       __wcsnicmp_ascii           0000000180025e8c f   libcpmt:winapinls.obj
 0001:00024f00       __security_check_cookie    0000000180025f00 f   LIBCMT:_amdsecgs_.obj
 0001:00024f24       ??_V@YAXPEAX@Z             0000000180025f24 f   LIBCMT:delete_array.obj
 0001:00024f24       ??3@YAXPEAX_K@Z            0000000180025f24 f   LIBCMT:delete_scalar_size.obj
 0001:00024f2c       ??2@YAPEAX_K@Z             0000000180025f2c f   LIBCMT:new_scalar.obj
 0001:00024f68       ??3@YAXPEAX@Z              0000000180025f68 f   LIBCMT:delete_scalar.obj
 0001:00024f70       ??_M@YAXPEAX_K1P6AX0@Z@Z   0000000180025f70 f   LIBCMT:ehvecdtr.obj
 0001:00024fdc       ?__ArrayUnwind@@YAXPEAX_K1P6AX0@Z@Z 0000000180025fdc f   LIBCMT:ehvecdtr.obj
 0001:00025040       ??_L@YAXPEAX_K1P6AX0@Z2@Z  0000000180026040 f   LIBCMT:ehvecctr.obj
 0001:000251f8       _Init_thread_footer        00000001800261f8 f   LIBCMT:thread_safe_statics.obj
 0001:00025258       _Init_thread_header        0000000180026258 f   LIBCMT:thread_safe_statics.obj
 0001:000252c0       _Init_thread_notify        00000001800262c0 f   LIBCMT:thread_safe_statics.obj
 0001:0002531c       _Init_thread_wait          000000018002631c f   LIBCMT:thread_safe_statics.obj
 0001:000253b4       __scrt_acquire_startup_lock 00000001800263b4 f   LIBCMT:utility.obj
 0001:000253f0       __scrt_dllmain_after_initialize_c 00000001800263f0 f   LIBCMT:utility.obj
 0001:00025424       __scrt_dllmain_before_initialize_c 0000000180026424 f   LIBCMT:utility.obj
 0001:0002543c       __scrt_dllmain_crt_thread_attach 000000018002643c f   LIBCMT:utility.obj
 0001:00025464       __scrt_dllmain_crt_thread_detach 0000000180026464 f   LIBCMT:utility.obj
 0001:0002547c       __scrt_dllmain_exception_filter 000000018002647c f   LIBCMT:utility.obj
 0001:000254e0       __scrt_dllmain_uninitialize_c 00000001800264e0 f   LIBCMT:utility.obj
 0001:00025510       __scrt_dllmain_uninitialize_critical 0000000180026510 f   LIBCMT:utility.obj
 0001:00025524       __scrt_initialize_crt      0000000180026524 f   LIBCMT:utility.obj
 0001:00025570       __scrt_initialize_onexit_tables 0000000180026570 f   LIBCMT:utility.obj
 0001:0002563c       __scrt_is_nonwritable_in_current_image 000000018002663c f   LIBCMT:utility.obj
 0001:000256d8       __scrt_release_startup_lock 00000001800266d8 f   LIBCMT:utility.obj
 0001:000256fc       __scrt_uninitialize_crt    00000001800266fc f   LIBCMT:utility.obj
 0001:00025728       _onexit                    0000000180026728 f   LIBCMT:utility.obj
 0001:00025778       atexit                     0000000180026778 f   LIBCMT:utility.obj
 0001:00025adc       _DllMainCRTStartup         0000000180026adc f   LIBCMT:dll_dllmain.obj
 0001:00025b1c       ??_Etype_info@@UEAAPEAXI@Z 0000000180026b1c f i LIBCMT:std_type_info_static.obj
 0001:00025b1c       ??_Gtype_info@@UEAAPEAXI@Z 0000000180026b1c f i LIBCMT:std_type_info_static.obj
 0001:00025b48       __GSHandlerCheck           0000000180026b48 f   LIBCMT:_gshandler_.obj
 0001:00025b68       __GSHandlerCheckCommon     0000000180026b68 f   LIBCMT:_gshandler_.obj
 0001:00025bc4       __GSHandlerCheck_EH        0000000180026bc4 f   LIBCMT:gshandlereh.obj
 0001:00025c44       _guard_check_icall         0000000180026c44 f i LIBCMT:checkcfg.obj
 0001:00025c60       __chkstk                   0000000180026c60 f   LIBCMT:_chkstk_.obj
 0001:00025c60       _alloca_probe              0000000180026c60 f   LIBCMT:_chkstk_.obj
 0001:00025cb4       __raise_securityfailure    0000000180026cb4 f   LIBCMT:gs_report.obj
 0001:00025ce8       __report_gsfailure         0000000180026ce8 f   LIBCMT:gs_report.obj
 0001:00025dbc       __report_rangecheckfailure 0000000180026dbc f   LIBCMT:gs_report.obj
 0001:00025dd0       __report_securityfailure   0000000180026dd0 f   LIBCMT:gs_report.obj
 0001:00025f50       ??0bad_array_new_length@std@@QEAA@AEBV01@@Z 0000000180026f50 f i LIBCMT:throw_bad_alloc.obj
 0001:00025f90       ??0bad_array_new_length@std@@QEAA@XZ 0000000180026f90 f i LIBCMT:throw_bad_alloc.obj
 0001:00025fb0       ?_Xbad_alloc@std@@YAXXZ    0000000180026fb0 f   libcpmt:xthrow.obj
 0001:00025fb0       ?__scrt_throw_std_bad_alloc@@YAXXZ 0000000180026fb0 f   LIBCMT:throw_bad_alloc.obj
 0001:00025fd0       ?__scrt_throw_std_bad_array_new_length@@YAXXZ 0000000180026fd0 f   LIBCMT:throw_bad_alloc.obj
 0001:00025ff0       __crt_debugger_hook        0000000180026ff0 f   LIBCMT:utility_desktop.obj
 0001:00025ff8       __scrt_fastfail            0000000180026ff8 f   LIBCMT:utility_desktop.obj
 0001:00026140       __isa_available_init       0000000180027140 f   LIBCMT:_cpu_disp_.obj
 0001:00026308       __scrt_is_ucrt_dll_in_use  0000000180027308 f   LIBCMT:ucrt_detection.obj
 0001:00026314       __security_init_cookie     0000000180027314 f   LIBCMT:gs_support.obj
 0001:000263c0       ?__scrt_initialize_type_info@@YAXXZ 00000001800273c0 f   LIBCMT:tncleanup.obj
 0001:000263d0       ?__scrt_uninitialize_type_info@@YAXXZ 00000001800273d0 f   LIBCMT:tncleanup.obj
 0001:000263dc       __local_stdio_scanf_options 00000001800273dc f i LIBCMT:default_local_stdio_options.obj
 0001:000263e4       __scrt_initialize_default_local_stdio_options 00000001800273e4 f   LIBCMT:default_local_stdio_options.obj
 0001:00026400       __scrt_get_dyn_tls_init_callback 0000000180027400 f   LIBCMT:dyn_tls_init.obj
 0001:00026408       _RTC_Initialize            0000000180027408 f   LIBCMT:_initsect_.obj
 0001:00026454       _RTC_Terminate             0000000180027454 f   LIBCMT:_initsect_.obj
 0001:000264b0       memmove                    00000001800274b0 f   libvcruntime:memcpy.obj
 0001:000264b0       memcpy                     00000001800274b0 f   libvcruntime:memcpy.obj
 0001:000268e8       _purecall                  00000001800278e8 f   libvcruntime:purevirt.obj
 0001:00026924       __DestructExceptionObject  0000000180027924 f   libvcruntime:frame.obj
 0001:000269ac       ??0bad_exception@std@@QEAA@AEBV01@@Z 00000001800279ac f i libvcruntime:frame.obj
 0001:000269ec       ??0bad_exception@std@@QEAA@XZ 00000001800279ec f i libvcruntime:frame.obj
 0001:00027368       ?_CallMemberFunction0@@YAXPEAXP6AX0@Z@Z 0000000180028368 f i libvcruntime:frame.obj
 0001:0002736c       ?_CallMemberFunction1@@YAXPEAXP6AX0@Z0@Z 000000018002836c f i libvcruntime:frame.obj
 0001:00027378       ?_CallMemberFunction2@@YAXPEAXP6AX0@Z0H@Z 0000000180028378 f i libvcruntime:frame.obj
 0001:00027388       __AdjustPointer            0000000180028388 f   libvcruntime:frame.obj
 0001:000273ac       __BuildCatchObject         00000001800283ac f   libvcruntime:frame.obj
 0001:00027470       __BuildCatchObjectHelper   0000000180028470 f   libvcruntime:frame.obj
 0001:00027650       __CxxCallCatchBlock        0000000180028650 f   libvcruntime:frame.obj
 0001:0002783c       __FrameUnwindFilter        000000018002883c f   libvcruntime:frame.obj
 0001:00027888       __FrameUnwindToState       0000000180028888 f   libvcruntime:frame.obj
 0001:00027a1c       __InternalCxxFrameHandler  0000000180028a1c f   libvcruntime:frame.obj
 0001:00027c74       __TypeMatch                0000000180028c74 f   libvcruntime:frame.obj
 0001:00027db4       __std_terminate            0000000180028db4 f   libvcruntime:frame.obj
 0001:00027dc0       __std_exception_copy       0000000180028dc0 f   libvcruntime:std_exception.obj
 0001:00027e50       __std_exception_destroy    0000000180028e50 f   libvcruntime:std_exception.obj
 0001:00027e78       _CxxThrowException         0000000180028e78 f   libvcruntime:throw.obj
 0001:00027f50       ?_ExecutionInCatch@@YAHPEAU_xDISPATCHER_CONTEXT@@PEBU_s_FuncInfo@@@Z 0000000180028f50 f   libvcruntime:trnsctrl.obj
 0001:00027fc4       ?_GetEstablisherFrame@@YAPEA_KPEA_KPEAU_xDISPATCHER_CONTEXT@@PEBU_s_FuncInfo@@0@Z 0000000180028fc4 f   libvcruntime:trnsctrl.obj
 0001:00028090       ?_GetRangeOfTrysToCheck@@YAPEBU_s_TryBlockMapEntry@@PEA_KPEBU_s_FuncInfo@@HHPEAI2PEAU_xDISPATCHER_CONTEXT@@@Z 0000000180029090 f   libvcruntime:trnsctrl.obj
 0001:000281bc       ?__FrameUnwindToEmptyState@@YAXPEA_KPEAU_xDISPATCHER_CONTEXT@@PEBU_s_FuncInfo@@@Z 00000001800291bc f   libvcruntime:trnsctrl.obj
 0001:00028250       ?__SehTransFilter@@YAHPEAU_EXCEPTION_POINTERS@@PEAUEHExceptionRecord@@PEA_KPEAU_CONTEXT@@PEAU_xDISPATCHER_CONTEXT@@PEBU_s_FuncInfo@@PEAH@Z 0000000180029250 f   libvcruntime:trnsctrl.obj
 0001:000282e8       _CallSETranslator          00000001800292e8 f   libvcruntime:trnsctrl.obj
 0001:00028340       _CreateFrameInfo           0000000180029340 f   libvcruntime:trnsctrl.obj
 0001:0002837c       _FindAndUnlinkFrame        000000018002937c f   libvcruntime:trnsctrl.obj
 0001:000283d4       _GetImageBase              00000001800293d4 f   libvcruntime:trnsctrl.obj
 0001:000283e8       _GetThrowImageBase         00000001800293e8 f   libvcruntime:trnsctrl.obj
 0001:000283fc       _IsExceptionObjectToBeDestroyed 00000001800293fc f   libvcruntime:trnsctrl.obj
 0001:0002842c       _SetImageBase              000000018002942c f   libvcruntime:trnsctrl.obj
 0001:00028444       _SetThrowImageBase         0000000180029444 f   libvcruntime:trnsctrl.obj
 0001:0002845c       _UnwindNestedFrames        000000018002945c f   libvcruntime:trnsctrl.obj
 0001:00028580       __CxxFrameHandler3         0000000180029580 f   libvcruntime:trnsctrl.obj
 0001:00028610       memset                     0000000180029610 f   libvcruntime:memset.obj
 0001:000287c0       memcmp                     00000001800297c0 f   libvcruntime:memcmp.obj
 0001:00028888       __C_specific_handler       0000000180029888 f   libvcruntime:_chandler_.obj
 0001:00028c4c       __vcrt_FlsAlloc            0000000180029c4c f   libvcruntime:winapi_downlevel.obj
 0001:00028ca0       __vcrt_FlsFree             0000000180029ca0 f   libvcruntime:winapi_downlevel.obj
 0001:00028cf4       __vcrt_FlsGetValue         0000000180029cf4 f   libvcruntime:winapi_downlevel.obj
 0001:00028d48       __vcrt_FlsSetValue         0000000180029d48 f   libvcruntime:winapi_downlevel.obj
 0001:00028db0       __vcrt_InitializeCriticalSectionEx 0000000180029db0 f   libvcruntime:winapi_downlevel.obj
 0001:00028e28       __vcrt_initialize_winapi_thunks 0000000180029e28 f   libvcruntime:winapi_downlevel.obj
 0001:00028e74       __vcrt_uninitialize_winapi_thunks 0000000180029e74 f   libvcruntime:winapi_downlevel.obj
 0001:00028eb4       __vcrt_initialize          0000000180029eb4 f   libvcruntime:initialization.obj
 0001:00028ee8       __vcrt_thread_attach       0000000180029ee8 f   libvcruntime:initialization.obj
 0001:00028efc       __vcrt_thread_detach       0000000180029efc f   libvcruntime:initialization.obj
 0001:00028f10       __vcrt_uninitialize        0000000180029f10 f   libvcruntime:initialization.obj
 0001:00028f30       __vcrt_uninitialize_critical 0000000180029f30 f   libvcruntime:initialization.obj
 0001:00028f40       __std_type_info_compare    0000000180029f40 f   libvcruntime:std_type_info.obj
 0001:00028f68       __std_type_info_destroy_list 0000000180029f68 f   libvcruntime:std_type_info.obj
 0001:00028f94       __vcrt_initialize_pure_virtual_call_handler 0000000180029f94 f   libvcruntime:purevirt_data.obj
 0001:00028fb8       __vcrt_freefls             0000000180029fb8 f   libvcruntime:per_thread_data.obj
 0001:00028fd8       __vcrt_freeptd             0000000180029fd8 f   libvcruntime:per_thread_data.obj
 0001:00029028       __vcrt_getptd              000000018002a028 f   libvcruntime:per_thread_data.obj
 0001:00029044       __vcrt_getptd_noexit       000000018002a044 f   libvcruntime:per_thread_data.obj
 0001:000290fc       __vcrt_initialize_ptd      000000018002a0fc f   libvcruntime:per_thread_data.obj
 0001:0002913c       __vcrt_uninitialize_ptd    000000018002a13c f   libvcruntime:per_thread_data.obj
 0001:00029160       ?__GetCurrentState@@YAHPEA_KPEAU_xDISPATCHER_CONTEXT@@PEBU_s_FuncInfo@@@Z 000000018002a160 f   libvcruntime:ehstate.obj
 0001:00029188       ?__GetUnwindTryBlock@@YAHPEA_KPEAU_xDISPATCHER_CONTEXT@@PEBU_s_FuncInfo@@@Z 000000018002a188 f   libvcruntime:ehstate.obj
 0001:000291b4       ?__SetState@@YAXPEA_KPEAU_xDISPATCHER_CONTEXT@@PEBU_s_FuncInfo@@H@Z 000000018002a1b4 f   libvcruntime:ehstate.obj
 0001:000291c0       ?__SetUnwindTryBlock@@YAXPEA_KPEAU_xDISPATCHER_CONTEXT@@PEBU_s_FuncInfo@@H@Z 000000018002a1c0 f   libvcruntime:ehstate.obj
 0001:000291fc       ?__StateFromControlPc@@YAHPEBU_s_FuncInfo@@PEAU_xDISPATCHER_CONTEXT@@@Z 000000018002a1fc f   libvcruntime:ehstate.obj
 0001:00029204       ?__StateFromIp@@YAHPEBU_s_FuncInfo@@PEAU_xDISPATCHER_CONTEXT@@_J@Z 000000018002a204 f   libvcruntime:ehstate.obj
 0001:00029280       _CallSettingFrame          000000018002a280 f   libvcruntime:handlers.obj
 0001:000292d0       _local_unwind              000000018002a2d0 f   libvcruntime:_jmpuwind_.obj
 0001:00029300       _NLG_Notify                000000018002a300 f   libvcruntime:_jmpuwind_.obj
 0001:00029320       __NLG_Dispatch2            000000018002a320 f   libvcruntime:_jmpuwind_.obj
 0001:00029330       __NLG_Return2              000000018002a330 f   libvcruntime:_jmpuwind_.obj
 0001:00029334       __vcrt_initialize_locks    000000018002a334 f   libvcruntime:locks.obj
 0001:0002937c       __vcrt_uninitialize_locks  000000018002a37c f   libvcruntime:locks.obj
 0001:000293b4       free                       000000018002a3b4 f   libucrt:free.obj
 0001:00029da4       ??$ftprintf@PEAU_iobuf@@PEB_WAEBQEB_WAEBQEB_WAEBI@?$__crt_char_traits@_W@@SAH$$QEAPEAU_iobuf@@$$QEAPEB_WAEBQEB_W2AEBI@Z 000000018002ada4 f i libucrt:assert.obj
 0001:00029dcc       _wassert                   000000018002adcc f   libucrt:assert.obj
 0001:00029e50       fwprintf                   000000018002ae50 f i libucrt:assert.obj
 0001:00029e94       swprintf                   000000018002ae94 f i libucrt:assert.obj
 0001:00029ee8       __acrt_call_reportfault    000000018002aee8 f   libucrt:invalid_parameter.obj
 0001:0002a044       __acrt_initialize_invalid_parameter_handler 000000018002b044 f   libucrt:invalid_parameter.obj
 0001:0002a04c       _invalid_parameter         000000018002b04c f   libucrt:invalid_parameter.obj
 0001:0002a0f4       _invalid_parameter_noinfo  000000018002b0f4 f   libucrt:invalid_parameter.obj
 0001:0002a114       _invalid_parameter_noinfo_noreturn 000000018002b114 f   libucrt:invalid_parameter.obj
 0001:0002a144       _invoke_watson             000000018002b144 f   libucrt:invalid_parameter.obj
 0001:0002a18c       malloc                     000000018002b18c f   libucrt:malloc.obj
 0001:0002a194       __acrt_initialize_stdio    000000018002b194 f   libucrt:_file.obj
 0001:0002a2b4       __acrt_iob_func            000000018002b2b4 f   libucrt:_file.obj
 0001:0002a2c8       __acrt_uninitialize_stdio  000000018002b2c8 f   libucrt:_file.obj
 0001:0002a324       _get_stream_buffer_pointers 000000018002b324 f   libucrt:_file.obj
 0001:0002a36c       _lock_file                 000000018002b36c f   libucrt:_file.obj
 0001:0002a378       _unlock_file               000000018002b378 f   libucrt:_file.obj
 0001:0002a384       ??$?RV<lambda_7b91131dde12e1c3dfc74ff76b3f2eac>@@AEAV<lambda_dd75445284c072d0bd3768540cc698fa>@@V<lambda_16bc4ecb55b4718497c16bceaea2ceaf>@@@?$__crt_seh_guarded_call@H@@QEAAH$$QEAV<lambda_7b91131dde12e1c3dfc74ff76b3f2eac>@@AEAV<lambda_dd75445284c072d0bd3768540cc698fa>@@$$QEAV<lambda_16bc4ecb55b4718497c16bceaea2ceaf>@@@Z 000000018002b384 f i libucrt:output.obj
 0001:0002a3c4       ??$?RV<lambda_aa279a7bcb127014629d5b1d62c7325d>@@AEAV<lambda_0a64b6a4deda75c01876f29c44fc5eb3>@@V<lambda_3323e69fbefe9d1a11713e670d47cdfa>@@@?$__crt_seh_guarded_call@H@@QEAAH$$QEAV<lambda_aa279a7bcb127014629d5b1d62c7325d>@@AEAV<lambda_0a64b6a4deda75c01876f29c44fc5eb3>@@$$QEAV<lambda_3323e69fbefe9d1a11713e670d47cdfa>@@@Z 000000018002b3c4 f i libucrt:output.obj
 0001:0002a404       ??$ensure_buffer_is_big_enough@D@formatting_buffer@__crt_stdio_output@@QEAA_N_K@Z 000000018002b404 f i libucrt:output.obj
 0001:0002a4b0       ??$is_wide_character_specifier@D@__crt_stdio_output@@YA_N_KDW4length_modifier@0@@Z 000000018002b4b0 f i libucrt:output.obj
 0001:0002a4e0       ??$is_wide_character_specifier@_W@__crt_stdio_output@@YA_N_K_WW4length_modifier@0@@Z 000000018002b4e0 f i libucrt:output.obj
 0001:0002a524       ??$type_case_integer_parse_into_buffer@I@?$output_processor@_WV?$string_output_adapter@_W@__crt_stdio_output@@V?$standard_base@_WV?$string_output_adapter@_W@__crt_stdio_output@@@2@@__crt_stdio_output@@AEAAXII_N@Z 000000018002b524 f i libucrt:output.obj
 0001:0002a524       ??$type_case_integer_parse_into_buffer@I@?$output_processor@_WV?$stream_output_adapter@_W@__crt_stdio_output@@V?$standard_base@_WV?$stream_output_adapter@_W@__crt_stdio_output@@@2@@__crt_stdio_output@@AEAAXII_N@Z 000000018002b524 f i libucrt:output.obj
 0001:0002a524       ??$type_case_integer_parse_into_buffer@I@?$output_processor@DV?$stream_output_adapter@D@__crt_stdio_output@@V?$standard_base@DV?$stream_output_adapter@D@__crt_stdio_output@@@2@@__crt_stdio_output@@AEAAXII_N@Z 000000018002b524 f i libucrt:output.obj
 0001:0002a5c0       ??$type_case_integer_parse_into_buffer@_K@?$output_processor@_WV?$string_output_adapter@_W@__crt_stdio_output@@V?$standard_base@_WV?$string_output_adapter@_W@__crt_stdio_output@@@2@@__crt_stdio_output@@AEAAX_KI_N@Z 000000018002b5c0 f i libucrt:output.obj
 0001:0002a5c0       ??$type_case_integer_parse_into_buffer@_K@?$output_processor@_WV?$stream_output_adapter@_W@__crt_stdio_output@@V?$standard_base@_WV?$stream_output_adapter@_W@__crt_stdio_output@@@2@@__crt_stdio_output@@AEAAX_KI_N@Z 000000018002b5c0 f i libucrt:output.obj
 0001:0002a5c0       ??$type_case_integer_parse_into_buffer@_K@?$output_processor@DV?$stream_output_adapter@D@__crt_stdio_output@@V?$standard_base@DV?$stream_output_adapter@D@__crt_stdio_output@@@2@@__crt_stdio_output@@AEAAX_KI_N@Z 000000018002b5c0 f i libucrt:output.obj
 0001:0002a65c       ??$write_multiple_characters@V?$stream_output_adapter@D@__crt_stdio_output@@D@__crt_stdio_output@@YAXAEBV?$stream_output_adapter@D@0@DHQEAH@Z 000000018002b65c f i libucrt:output.obj
 0001:0002a6e0       ??$write_multiple_characters@V?$stream_output_adapter@_W@__crt_stdio_output@@D@__crt_stdio_output@@YAXAEBV?$stream_output_adapter@_W@0@DHQEAH@Z 000000018002b6e0 f i libucrt:output.obj
 0001:0002a770       ??$write_multiple_characters@V?$string_output_adapter@_W@__crt_stdio_output@@D@__crt_stdio_output@@YAXAEBV?$string_output_adapter@_W@0@DHQEAH@Z 000000018002b770 f i libucrt:output.obj
 0001:0002a7e0       ??0?$output_processor@DV?$stream_output_adapter@D@__crt_stdio_output@@V?$standard_base@DV?$stream_output_adapter@D@__crt_stdio_output@@@2@@__crt_stdio_output@@QEAA@AEBV?$stream_output_adapter@D@1@_KQEBDQEAU__crt_locale_pointers@@QEAD@Z 000000018002b7e0 f i libucrt:output.obj
 0001:0002a85c       ??0?$output_processor@_WV?$stream_output_adapter@_W@__crt_stdio_output@@V?$standard_base@_WV?$stream_output_adapter@_W@__crt_stdio_output@@@2@@__crt_stdio_output@@QEAA@AEBV?$stream_output_adapter@_W@1@_KQEB_WQEAU__crt_locale_pointers@@QEAD@Z 000000018002b85c f i libucrt:output.obj
 0001:0002a85c       ??0?$output_processor@_WV?$string_output_adapter@_W@__crt_stdio_output@@V?$standard_base@_WV?$string_output_adapter@_W@__crt_stdio_output@@@2@@__crt_stdio_output@@QEAA@AEBV?$string_output_adapter@_W@1@_KQEB_WQEAU__crt_locale_pointers@@QEAD@Z 000000018002b85c f i libucrt:output.obj
 0001:0002a8dc       ??0_LocaleUpdate@@QEAA@QEAU__crt_locale_pointers@@@Z 000000018002b8dc f i libucrt:output.obj
 0001:0002ab4c       ?force_decimal_point@__crt_stdio_output@@YAXPEADQEAU__crt_locale_pointers@@@Z 000000018002bb4c f i libucrt:output.obj
 0001:0002abbc       ?parse_int_from_format_string@?$output_processor@DV?$stream_output_adapter@D@__crt_stdio_output@@V?$standard_base@DV?$stream_output_adapter@D@__crt_stdio_output@@@2@@__crt_stdio_output@@AEAA_NQEAH@Z 000000018002bbbc f i libucrt:output.obj
 0001:0002ac40       ?parse_int_from_format_string@?$output_processor@_WV?$string_output_adapter@_W@__crt_stdio_output@@V?$standard_base@_WV?$string_output_adapter@_W@__crt_stdio_output@@@2@@__crt_stdio_output@@AEAA_NQEAH@Z 000000018002bc40 f i libucrt:output.obj
 0001:0002ac40       ?parse_int_from_format_string@?$output_processor@_WV?$stream_output_adapter@_W@__crt_stdio_output@@V?$standard_base@_WV?$stream_output_adapter@_W@__crt_stdio_output@@@2@@__crt_stdio_output@@AEAA_NQEAH@Z 000000018002bc40 f i libucrt:output.obj
 0001:0002acc0       ?process@?$output_processor@DV?$stream_output_adapter@D@__crt_stdio_output@@V?$standard_base@DV?$stream_output_adapter@D@__crt_stdio_output@@@2@@__crt_stdio_output@@QEAAHXZ 000000018002bcc0 f i libucrt:output.obj
 0001:0002aed0       ?process@?$output_processor@_WV?$stream_output_adapter@_W@__crt_stdio_output@@V?$standard_base@_WV?$stream_output_adapter@_W@__crt_stdio_output@@@2@@__crt_stdio_output@@QEAAHXZ 000000018002bed0 f i libucrt:output.obj
 0001:0002b148       ?process@?$output_processor@_WV?$string_output_adapter@_W@__crt_stdio_output@@V?$standard_base@_WV?$string_output_adapter@_W@__crt_stdio_output@@@2@@__crt_stdio_output@@QEAAHXZ 000000018002c148 f i libucrt:output.obj
 0001:0002b3c4       ?state_case_normal@?$output_processor@DV?$stream_output_adapter@D@__crt_stdio_output@@V?$standard_base@DV?$stream_output_adapter@D@__crt_stdio_output@@@2@@__crt_stdio_output@@AEAA_NXZ 000000018002c3c4 f i libucrt:output.obj
 0001:0002b434       ?state_case_normal_tchar@?$output_processor@DV?$stream_output_adapter@D@__crt_stdio_output@@V?$standard_base@DV?$stream_output_adapter@D@__crt_stdio_output@@@2@@__crt_stdio_output@@AEAA_ND@Z 000000018002c434 f i libucrt:output.obj
 0001:0002b4c8       ?state_case_size@?$output_processor@DV?$stream_output_adapter@D@__crt_stdio_output@@V?$standard_base@DV?$stream_output_adapter@D@__crt_stdio_output@@@2@@__crt_stdio_output@@AEAA_NXZ 000000018002c4c8 f i libucrt:output.obj
 0001:0002b644       ?state_case_size@?$output_processor@_WV?$stream_output_adapter@_W@__crt_stdio_output@@V?$standard_base@_WV?$stream_output_adapter@_W@__crt_stdio_output@@@2@@__crt_stdio_output@@AEAA_NXZ 000000018002c644 f i libucrt:output.obj
 0001:0002b7e8       ?state_case_size@?$output_processor@_WV?$string_output_adapter@_W@__crt_stdio_output@@V?$standard_base@_WV?$string_output_adapter@_W@__crt_stdio_output@@@2@@__crt_stdio_output@@AEAA_NXZ 000000018002c7e8 f i libucrt:output.obj
 0001:0002b98c       ?state_case_type@?$output_processor@DV?$stream_output_adapter@D@__crt_stdio_output@@V?$standard_base@DV?$stream_output_adapter@D@__crt_stdio_output@@@2@@__crt_stdio_output@@AEAA_NXZ 000000018002c98c f i libucrt:output.obj
 0001:0002bc08       ?state_case_type@?$output_processor@_WV?$stream_output_adapter@_W@__crt_stdio_output@@V?$standard_base@_WV?$stream_output_adapter@_W@__crt_stdio_output@@@2@@__crt_stdio_output@@AEAA_NXZ 000000018002cc08 f i libucrt:output.obj
 0001:0002bed4       ?state_case_type@?$output_processor@_WV?$string_output_adapter@_W@__crt_stdio_output@@V?$standard_base@_WV?$string_output_adapter@_W@__crt_stdio_output@@@2@@__crt_stdio_output@@AEAA_NXZ 000000018002ced4 f i libucrt:output.obj
 0001:0002c1a0       ?type_case_Z@?$output_processor@DV?$stream_output_adapter@D@__crt_stdio_output@@V?$standard_base@DV?$stream_output_adapter@D@__crt_stdio_output@@@2@@__crt_stdio_output@@AEAA_NXZ 000000018002d1a0 f i libucrt:output.obj
 0001:0002c220       ?type_case_Z@?$output_processor@_WV?$string_output_adapter@_W@__crt_stdio_output@@V?$standard_base@_WV?$string_output_adapter@_W@__crt_stdio_output@@@2@@__crt_stdio_output@@AEAA_NXZ 000000018002d220 f i libucrt:output.obj
 0001:0002c220       ?type_case_Z@?$output_processor@_WV?$stream_output_adapter@_W@__crt_stdio_output@@V?$standard_base@_WV?$stream_output_adapter@_W@__crt_stdio_output@@@2@@__crt_stdio_output@@AEAA_NXZ 000000018002d220 f i libucrt:output.obj
 0001:0002c2a0       ?type_case_a@?$output_processor@DV?$stream_output_adapter@D@__crt_stdio_output@@V?$standard_base@DV?$stream_output_adapter@D@__crt_stdio_output@@@2@@__crt_stdio_output@@AEAA_NXZ 000000018002d2a0 f i libucrt:output.obj
 0001:0002c4bc       ?type_case_a@?$output_processor@_WV?$string_output_adapter@_W@__crt_stdio_output@@V?$standard_base@_WV?$string_output_adapter@_W@__crt_stdio_output@@@2@@__crt_stdio_output@@AEAA_NXZ 000000018002d4bc f i libucrt:output.obj
 0001:0002c4bc       ?type_case_a@?$output_processor@_WV?$stream_output_adapter@_W@__crt_stdio_output@@V?$standard_base@_WV?$stream_output_adapter@_W@__crt_stdio_output@@@2@@__crt_stdio_output@@AEAA_NXZ 000000018002d4bc f i libucrt:output.obj
 0001:0002c700       ?type_case_c_tchar@?$output_processor@DV?$stream_output_adapter@D@__crt_stdio_output@@V?$standard_base@DV?$stream_output_adapter@D@__crt_stdio_output@@@2@@__crt_stdio_output@@AEAA_ND@Z 000000018002d700 f i libucrt:output.obj
 0001:0002c7b4       ?type_case_c_tchar@?$output_processor@_WV?$string_output_adapter@_W@__crt_stdio_output@@V?$standard_base@_WV?$string_output_adapter@_W@__crt_stdio_output@@@2@@__crt_stdio_output@@AEAA_N_W@Z 000000018002d7b4 f i libucrt:output.obj
 0001:0002c7b4       ?type_case_c_tchar@?$output_processor@_WV?$stream_output_adapter@_W@__crt_stdio_output@@V?$standard_base@_WV?$stream_output_adapter@_W@__crt_stdio_output@@@2@@__crt_stdio_output@@AEAA_N_W@Z 000000018002d7b4 f i libucrt:output.obj
 0001:0002c85c       ?type_case_integer@?$output_processor@DV?$stream_output_adapter@D@__crt_stdio_output@@V?$standard_base@DV?$stream_output_adapter@D@__crt_stdio_output@@@2@@__crt_stdio_output@@AEAA_NI_N@Z 000000018002d85c f i libucrt:output.obj
 0001:0002c85c       ?type_case_integer@?$output_processor@_WV?$string_output_adapter@_W@__crt_stdio_output@@V?$standard_base@_WV?$string_output_adapter@_W@__crt_stdio_output@@@2@@__crt_stdio_output@@AEAA_NI_N@Z 000000018002d85c f i libucrt:output.obj
 0001:0002c85c       ?type_case_integer@?$output_processor@_WV?$stream_output_adapter@_W@__crt_stdio_output@@V?$standard_base@_WV?$stream_output_adapter@_W@__crt_stdio_output@@@2@@__crt_stdio_output@@AEAA_NI_N@Z 000000018002d85c f i libucrt:output.obj
 0001:0002c9fc       ?type_case_n@?$output_processor@_WV?$string_output_adapter@_W@__crt_stdio_output@@V?$standard_base@_WV?$string_output_adapter@_W@__crt_stdio_output@@@2@@__crt_stdio_output@@AEAA_NXZ 000000018002d9fc f i libucrt:output.obj
 0001:0002c9fc       ?type_case_n@?$output_processor@DV?$stream_output_adapter@D@__crt_stdio_output@@V?$standard_base@DV?$stream_output_adapter@D@__crt_stdio_output@@@2@@__crt_stdio_output@@AEAA_NXZ 000000018002d9fc f i libucrt:output.obj
 0001:0002c9fc       ?type_case_n@?$output_processor@_WV?$stream_output_adapter@_W@__crt_stdio_output@@V?$standard_base@_WV?$stream_output_adapter@_W@__crt_stdio_output@@@2@@__crt_stdio_output@@AEAA_NXZ 000000018002d9fc f i libucrt:output.obj
 0001:0002cad8       ?type_case_s@?$output_processor@DV?$stream_output_adapter@D@__crt_stdio_output@@V?$standard_base@DV?$stream_output_adapter@D@__crt_stdio_output@@@2@@__crt_stdio_output@@AEAA_NXZ 000000018002dad8 f i libucrt:output.obj
 0001:0002cb68       ?type_case_s@?$output_processor@_WV?$stream_output_adapter@_W@__crt_stdio_output@@V?$standard_base@_WV?$stream_output_adapter@_W@__crt_stdio_output@@@2@@__crt_stdio_output@@AEAA_NXZ 000000018002db68 f i libucrt:output.obj
 0001:0002cb68       ?type_case_s@?$output_processor@_WV?$string_output_adapter@_W@__crt_stdio_output@@V?$standard_base@_WV?$string_output_adapter@_W@__crt_stdio_output@@@2@@__crt_stdio_output@@AEAA_NXZ 000000018002db68 f i libucrt:output.obj
 0001:0002cc30       ?validate_stream_is_ansi_if_required@?$__acrt_stdio_char_traits@D@@SA_NQEAU_iobuf@@@Z 000000018002dc30 f i libucrt:output.obj
 0001:0002ccbc       ?write_stored_string_tchar@?$output_processor@DV?$stream_output_adapter@D@__crt_stdio_output@@V?$standard_base@DV?$stream_output_adapter@D@__crt_stdio_output@@@2@@__crt_stdio_output@@AEAA_ND@Z 000000018002dcbc f i libucrt:output.obj
 0001:0002cd94       ?write_stored_string_tchar@?$output_processor@_WV?$stream_output_adapter@_W@__crt_stdio_output@@V?$standard_base@_WV?$stream_output_adapter@_W@__crt_stdio_output@@@2@@__crt_stdio_output@@AEAA_N_W@Z 000000018002dd94 f i libucrt:output.obj
 0001:0002ce80       ?write_stored_string_tchar@?$output_processor@_WV?$string_output_adapter@_W@__crt_stdio_output@@V?$standard_base@_WV?$string_output_adapter@_W@__crt_stdio_output@@@2@@__crt_stdio_output@@AEAA_N_W@Z 000000018002de80 f i libucrt:output.obj
 0001:0002cf70       ?write_string@?$stream_output_adapter@D@__crt_stdio_output@@QEBAXQEBDHQEAH1@Z 000000018002df70 f i libucrt:output.obj
 0001:0002d068       ?write_string@?$stream_output_adapter@_W@__crt_stdio_output@@QEBAXQEB_WHQEAH1@Z 000000018002e068 f i libucrt:output.obj
 0001:0002d174       ?write_string@?$string_output_adapter@_W@__crt_stdio_output@@QEBAXQEB_WHQEAH1@Z 000000018002e174 f i libucrt:output.obj
 0001:0002d234       __stdio_common_vfprintf    000000018002e234 f   libucrt:output.obj
 0001:0002d2c0       __stdio_common_vfwprintf   000000018002e2c0 f   libucrt:output.obj
 0001:0002d34c       __stdio_common_vswprintf   000000018002e34c f   libucrt:output.obj
 0001:0002d7b4       __acrt_initialize_thread_local_exit_callback 000000018002e7b4 f   libucrt:exit.obj
 0001:0002d7bc       _cexit                     000000018002e7bc f   libucrt:exit.obj
 0001:0002d7cc       _exit                      000000018002e7cc f   libucrt:exit.obj
 0001:0002d7d8       _is_c_termination_complete 000000018002e7d8 f   libucrt:exit.obj
 0001:0002d7e0       exit                       000000018002e7e0 f   libucrt:exit.obj
 0001:0002d7ec       realloc                    000000018002e7ec f   libucrt:realloc.obj
 0001:0002d8d0       qsort                      000000018002e8d0 f   libucrt:qsort.obj
 0001:0002e12c       _ftelli64                  000000018002f12c f   libucrt:ftell.obj
 0001:0002e134       _ftelli64_nolock           000000018002f134 f   libucrt:ftell.obj
 0001:0002e13c       ftell                      000000018002f13c f   libucrt:ftell.obj
 0001:0002e214       fopen                      000000018002f214 f   libucrt:fopen.obj
 0001:0002e220       _fclose_nolock             000000018002f220 f   libucrt:fclose.obj
 0001:0002e2a4       fclose                     000000018002f2a4 f   libucrt:fclose.obj
 0001:0002e584       _fseeki64                  000000018002f584 f   libucrt:fseek.obj
 0001:0002e58c       fseek                      000000018002f58c f   libucrt:fseek.obj
 0001:0002e594       ??$?RV<lambda_5d4c3fee44080f75d5d9762853974fe0>@@AEAV<lambda_532e024f4337e6fc7ad266c2bef9f4ed>@@V<lambda_c87bdc10097eb2402edb8ba9bdf0697b>@@@?$__crt_seh_guarded_call@_K@@QEAA_K$$QEAV<lambda_5d4c3fee44080f75d5d9762853974fe0>@@AEAV<lambda_532e024f4337e6fc7ad266c2bef9f4ed>@@$$QEAV<lambda_c87bdc10097eb2402edb8ba9bdf0697b>@@@Z 000000018002f594 f i libucrt:fwrite.obj
 0001:0002e638       _fwrite_nolock             000000018002f638 f   libucrt:fwrite.obj
 0001:0002e7d4       fwrite                     000000018002f7d4 f   libucrt:fwrite.obj
 0001:0002e858       _fread_nolock_s            000000018002f858 f   libucrt:fread.obj
 0001:0002ead8       fread                      000000018002fad8 f   libucrt:fread.obj
 0001:0002eaf8       fread_s                    000000018002faf8 f   libucrt:fread.obj
 0001:0002eba0       abort                      000000018002fba0 f   libucrt:abort.obj
 0001:0002ebf8       __ascii_stricmp            000000018002fbf8 f   libucrt:stricmp.obj
 0001:0002ec34       _stricmp                   000000018002fc34 f   libucrt:stricmp.obj
 0001:0002ec7c       _stricmp_l                 000000018002fc7c f   libucrt:stricmp.obj
 0001:0002ed30       __acrt_initialize_locks    000000018002fd30 f   libucrt:locks.obj
 0001:0002ed78       __acrt_lock                000000018002fd78 f   libucrt:locks.obj
 0001:0002ed94       __acrt_uninitialize_locks  000000018002fd94 f   libucrt:locks.obj
 0001:0002edcc       __acrt_unlock              000000018002fdcc f   libucrt:locks.obj
 0001:0002ede8       _lock_locales              000000018002fde8 f   libucrt:locks.obj
 0001:0002edf8       _unlock_locales            000000018002fdf8 f   libucrt:locks.obj
 0001:0002ee08       __acrt_errno_from_os_error 000000018002fe08 f   libucrt:errno.obj
 0001:0002ee50       __acrt_errno_map_os_error  000000018002fe50 f   libucrt:errno.obj
 0001:0002eea0       __doserrno                 000000018002fea0 f   libucrt:errno.obj
 0001:0002eec0       _errno                     000000018002fec0 f   libucrt:errno.obj
 0001:0002eee0       __acrt_stdio_flush_nolock  000000018002fee0 f   libucrt:fflush.obj
 0001:0002ef58       _fflush_nolock             000000018002ff58 f   libucrt:fflush.obj
 0001:0002efa4       _flushall                  000000018002ffa4 f   libucrt:fflush.obj
 0001:0002f094       fflush                     0000000180030094 f   libucrt:fflush.obj
 0001:0002f0d8       _fgetc_nolock              00000001800300d8 f   libucrt:fgetc.obj
 0001:0002f11c       fgetc                      000000018003011c f   libucrt:fgetc.obj
 0001:0002f220       fgetpos                    0000000180030220 f   libucrt:fgetpos.obj
 0001:0002f26c       _fputc_nolock              000000018003026c f   libucrt:fputc.obj
 0001:0002f284       fputc                      0000000180030284 f   libucrt:fputc.obj
 0001:0002f3a4       fsetpos                    00000001800303a4 f   libucrt:fsetpos.obj
 0001:0002f3dc       ??$?RV<lambda_7a5ef57ff966f610505f1d28a3d40618>@@AEAV<lambda_b721fa326cdb32351d23dfa67958c160>@@V<lambda_5e0fb27672408a07956fe59e48ccb2aa>@@@?$__crt_seh_guarded_call@H@@QEAAH$$QEAV<lambda_7a5ef57ff966f610505f1d28a3d40618>@@AEAV<lambda_b721fa326cdb32351d23dfa67958c160>@@$$QEAV<lambda_5e0fb27672408a07956fe59e48ccb2aa>@@@Z 00000001800303dc f i libucrt:setvbuf.obj
 0001:0002f50c       setvbuf                    000000018003050c f   libucrt:setvbuf.obj
 0001:0002f5ac       _ungetc_nolock             00000001800305ac f   libucrt:ungetc.obj
 0001:0002f6bc       ungetc                     00000001800306bc f   libucrt:ungetc.obj
 0001:0002f804       setlocale                  0000000180030804 f   libucrt:setlocale.obj
 0001:0002f9d0       _calloc_base               00000001800309d0 f   libucrt:calloc_base.obj
 0001:0002fa48       __pctype_func              0000000180030a48 f   libucrt:ctype.obj
 0001:0002fa78       isdigit                    0000000180030a78 f i libucrt:_ctype.obj
 0001:0002faec       islower                    0000000180030aec f i libucrt:_ctype.obj
 0001:0002fb60       isupper                    0000000180030b60 f i libucrt:_ctype.obj
 0001:0002fbd4       _wcsdup                    0000000180030bd4 f   libucrt:wcsdup.obj
 0001:0002fc58       ___lc_codepage_func        0000000180030c58 f   libucrt:initctype.obj
 0001:0002fc88       ___lc_locale_name_func     0000000180030c88 f   libucrt:initctype.obj
 0001:0002fcbc       __acrt_locale_initialize_ctype 0000000180030cbc f   libucrt:initctype.obj
 0001:00030308       _ismbblead                 0000000180031308 f   libucrt:ismbbyte.obj
 0001:0003031c       _malloc_base               000000018003131c f   libucrt:malloc_base.obj
 0001:0003037c       _realloc_base              000000018003137c f   libucrt:realloc_base.obj
 0001:00030400       ??$make_c_string_character_source@DPEAPEAD@__crt_strtox@@YA?AV?$c_string_character_source@D@0@QEBDQEAPEAD@Z 0000000180031400 f i libucrt:strtod.obj
 0001:00030400       ??$make_c_string_character_source@_WPEAPEA_W@__crt_strtox@@YA?AV?$c_string_character_source@_W@0@QEB_WQEAPEA_W@Z 0000000180031400 f i libucrt:strtod.obj
 0001:00030400       ??$make_c_string_character_source@_W$$T@__crt_strtox@@YA?AV?$c_string_character_source@_W@0@QEB_W$$T@Z 0000000180031400 f i libucrt:atox.obj
 0001:00030420       ?divide@__crt_strtox@@YA_KAEAUbig_integer@1@AEBU21@@Z 0000000180031420 f i libucrt:strtod.obj
 0001:00030980       pow                        0000000180031980 f   libucrt:pow.obj
 0001:00032020       powf                       0000000180033020 f   libucrt:powf.obj
 0001:00032ee8       __strncnt                  0000000180033ee8 f   libucrt:strncnt.obj
 0001:00032f00       _free_base                 0000000180033f00 f   libucrt:free_base.obj
 0001:00032f90       _tolower_l                 0000000180033f90 f   libucrt:tolower_toupper.obj
 0001:000330d0       tolower                    00000001800340d0 f   libucrt:tolower_toupper.obj
 0001:000330fc       wcscpy_s                   00000001800340fc f   libucrt:wcscpy_s.obj
 0001:00033164       strnlen                    0000000180034164 f   libucrt:strnlen.obj
 0001:000332c0       wcsnlen                    00000001800342c0 f   libucrt:strnlen.obj
 0001:000334b0       __acrt_initialize_new_handler 00000001800344b0 f   libucrt:new_handler.obj
 0001:000334b8       _callnewh                  00000001800344b8 f   libucrt:new_handler.obj
 0001:000334f8       _query_new_handler         00000001800344f8 f   libucrt:new_handler.obj
 0001:0003352c       terminate                  000000018003452c f   libucrt:terminate.obj
 0001:00033554       _seh_filter_dll            0000000180034554 f   libucrt:exception_filter.obj
 0001:00033568       _seh_filter_exe            0000000180034568 f   libucrt:exception_filter.obj
 0001:000338b4       __acrt_allocate_buffer_for_argv 00000001800348b4 f   libucrt:argv_parsing.obj
 0001:00033918       _configure_narrow_argv     0000000180034918 f   libucrt:argv_parsing.obj
 0001:00033c74       __dcrt_uninitialize_environments_nolock 0000000180034c74 f   libucrt:environment_initialization.obj
 0001:00033cac       _initialize_narrow_environment 0000000180034cac f   libucrt:environment_initialization.obj
 0001:00033cb4       ??$?RV<lambda_b8c45f8f788dd370798f47cfe8ac3a86>@@AEAV<lambda_4e60a939b0d047cfe11ddc22648dfba9>@@V<lambda_332c3edc96d0294ec56c57d38c1cdfd5>@@@?$__crt_seh_guarded_call@H@@QEAAH$$QEAV<lambda_b8c45f8f788dd370798f47cfe8ac3a86>@@AEAV<lambda_4e60a939b0d047cfe11ddc22648dfba9>@@$$QEAV<lambda_332c3edc96d0294ec56c57d38c1cdfd5>@@@Z 0000000180034cb4 f i libucrt:onexit.obj
 0001:00033cf0       ??$?RV<lambda_e24bbb7b643b32fcea6fa61b31d4c984>@@AEAV<lambda_275893d493268fdec8709772e3fcec0e>@@V<lambda_9d71df4d7cf3f480f8d633942495c3b0>@@@?$__crt_seh_guarded_call@H@@QEAAH$$QEAV<lambda_e24bbb7b643b32fcea6fa61b31d4c984>@@AEAV<lambda_275893d493268fdec8709772e3fcec0e>@@$$QEAV<lambda_9d71df4d7cf3f480f8d633942495c3b0>@@@Z 0000000180034cf0 f i libucrt:onexit.obj
 0001:0003406c       _crt_atexit                000000018003506c f   libucrt:onexit.obj
 0001:0003407c       _execute_onexit_table      000000018003507c f   libucrt:onexit.obj
 0001:000340b8       _initialize_onexit_table   00000001800350b8 f   libucrt:onexit.obj
 0001:000340f8       _register_onexit_function  00000001800350f8 f   libucrt:onexit.obj
 0001:00034274       __acrt_initialize          0000000180035274 f   libucrt:initialization.obj
 0001:00034288       __acrt_thread_attach       0000000180035288 f   libucrt:initialization.obj
 0001:0003429c       __acrt_thread_detach       000000018003529c f   libucrt:initialization.obj
 0001:000342ac       __acrt_uninitialize        00000001800352ac f   libucrt:initialization.obj
 0001:000342c0       __acrt_uninitialize_critical 00000001800352c0 f   libucrt:initialization.obj
 0001:000342d0       _initterm                  00000001800352d0 f   libucrt:initterm.obj
 0001:00034348       _initterm_e                0000000180035348 f   libucrt:initterm.obj
 0001:00034394       strcpy_s                   0000000180035394 f   libucrt:strcpy_s.obj
 0001:000343f4       ??$is_overflow_condition@K@__crt_strtox@@YA_NIK@Z 00000001800353f4 f i libucrt:atox.obj
 0001:00034420       ??$parse_integer@KV?$c_string_character_source@D@__crt_strtox@@@__crt_strtox@@YAKQEAU__crt_locale_pointers@@V?$c_string_character_source@D@0@H_N@Z 0000000180035420 f i libucrt:atox.obj
 0001:00034734       ??$parse_integer@KV?$c_string_character_source@_W@__crt_strtox@@@__crt_strtox@@YAKQEAU__crt_locale_pointers@@V?$c_string_character_source@_W@0@H_N@Z 0000000180035734 f i libucrt:atox.obj
 0001:00034e08       _wtol                      0000000180035e08 f   libucrt:atox.obj
 0001:00034e34       _query_app_type            0000000180035e34 f   libucrt:report_runtime_error.obj
 0001:00034f64       _itow_s                    0000000180035f64 f   libucrt:xtoa.obj
 0001:00034f84       _set_error_mode            0000000180035f84 f   libucrt:set_error_mode.obj
 0001:00034fc4       wcscat_s                   0000000180035fc4 f   libucrt:wcscat_s.obj
 0001:00035044       wcsncat_s                  0000000180036044 f   libucrt:wcsncat_s.obj
 0001:0003516c       __acrt_show_wide_message_box 000000018003616c f   libucrt:crtmbox.obj
 0001:00035288       ??$?RV<lambda_c36588078e9f5dfd39652860aa6b3aaf>@@AEAV<lambda_ec61778202f4f5fc7e7711acc23c3bca>@@V<lambda_dc9d2797ccde5d239b4a0efae8ebd7db>@@@?$__crt_seh_guarded_call@P6AXH@Z@@QEAAP6AXH@Z$$QEAV<lambda_c36588078e9f5dfd39652860aa6b3aaf>@@AEAV<lambda_ec61778202f4f5fc7e7711acc23c3bca>@@$$QEAV<lambda_dc9d2797ccde5d239b4a0efae8ebd7db>@@@Z 0000000180036288 f i libucrt:signal.obj
 0001:000352d0       __acrt_get_sigabrt_handler 00000001800362d0 f   libucrt:signal.obj
 0001:00035300       __acrt_initialize_signal_handlers 0000000180036300 f   libucrt:signal.obj
 0001:00035320       raise                      0000000180036320 f   libucrt:signal.obj
 0001:000355bc       ??$?RV<lambda_46352004c1216016012b18bd6f87e700>@@AEAV<lambda_3bd07e1a1191394380780325891bf33f>@@V<lambda_334532d3f185bcaa59b5be82d7d22bff>@@@?$__crt_seh_guarded_call@X@@QEAAX$$QEAV<lambda_46352004c1216016012b18bd6f87e700>@@AEAV<lambda_3bd07e1a1191394380780325891bf33f>@@$$QEAV<lambda_334532d3f185bcaa59b5be82d7d22bff>@@@Z 00000001800365bc f i libucrt:per_thread_data.obj
 0001:0003561c       ??$?RV<lambda_5e887d1dcbef67a5eb4283622ba103bf>@@AEAV<lambda_4466841279450cc726390878d4a41900>@@V<lambda_341c25c0346d94847f1f3c463c57e077>@@@?$__crt_seh_guarded_call@X@@QEAAX$$QEAV<lambda_5e887d1dcbef67a5eb4283622ba103bf>@@AEAV<lambda_4466841279450cc726390878d4a41900>@@$$QEAV<lambda_341c25c0346d94847f1f3c463c57e077>@@@Z 000000018003661c f i libucrt:per_thread_data.obj
 0001:00035664       ??$?RV<lambda_72d1df2b273a38828b1ce30cbf4cdab5>@@AEAV<lambda_876a65b173b8412d3a47c70a915b0cf4>@@V<lambda_41932305e351933ebe8f8be3ed8bb5dc>@@@?$__crt_seh_guarded_call@X@@QEAAX$$QEAV<lambda_72d1df2b273a38828b1ce30cbf4cdab5>@@AEAV<lambda_876a65b173b8412d3a47c70a915b0cf4>@@$$QEAV<lambda_41932305e351933ebe8f8be3ed8bb5dc>@@@Z 0000000180036664 f i libucrt:per_thread_data.obj
 0001:000356a4       ??$?RV<lambda_fb3a7dec4e47f37f22dae91bb15c9095>@@AEAV<lambda_698284760c8add0bfb0756c19673e34b>@@V<lambda_dfb8eca1e75fef3034a8fb18dd509707>@@@?$__crt_seh_guarded_call@X@@QEAAX$$QEAV<lambda_fb3a7dec4e47f37f22dae91bb15c9095>@@AEAV<lambda_698284760c8add0bfb0756c19673e34b>@@$$QEAV<lambda_dfb8eca1e75fef3034a8fb18dd509707>@@@Z 00000001800366a4 f i libucrt:per_thread_data.obj
 0001:00035934       __acrt_freeptd             0000000180036934 f   libucrt:per_thread_data.obj
 0001:00035978       __acrt_getptd              0000000180036978 f   libucrt:per_thread_data.obj
 0001:00035a0c       __acrt_getptd_noexit       0000000180036a0c f   libucrt:per_thread_data.obj
 0001:00035aac       __acrt_initialize_ptd      0000000180036aac f   libucrt:per_thread_data.obj
 0001:00035ae8       __acrt_uninitialize_ptd    0000000180036ae8 f   libucrt:per_thread_data.obj
 0001:00035b50       ??$?RV<lambda_630b2aca97f6d20d5b5ea6529ea6b6af>@@AEAV<lambda_af91936f1d075d609f72d9d8cba980af>@@V<lambda_e82fa975f615b5c7c7b0e4d178fdae67>@@@?$__crt_seh_guarded_call@H@@QEAAH$$QEAV<lambda_630b2aca97f6d20d5b5ea6529ea6b6af>@@AEAV<lambda_af91936f1d075d609f72d9d8cba980af>@@$$QEAV<lambda_e82fa975f615b5c7c7b0e4d178fdae67>@@@Z 0000000180036b50 f i libucrt:winapi_thunks.obj
 0001:00035d88       __acrt_AreFileApisANSI     0000000180036d88 f   libucrt:winapi_thunks.obj
 0001:00035dd4       __acrt_EnumSystemLocalesEx 0000000180036dd4 f   libucrt:winapi_thunks.obj
 0001:00035e7c       __acrt_FlsAlloc            0000000180036e7c f   libucrt:winapi_thunks.obj
 0001:00035ed4       __acrt_FlsFree             0000000180036ed4 f   libucrt:winapi_thunks.obj
 0001:00035f2c       __acrt_FlsGetValue         0000000180036f2c f   libucrt:winapi_thunks.obj
 0001:00035f84       __acrt_FlsSetValue         0000000180036f84 f   libucrt:winapi_thunks.obj
 0001:00035fec       __acrt_GetLocaleInfoEx     0000000180036fec f   libucrt:winapi_thunks.obj
 0001:00036084       __acrt_GetUserDefaultLocaleName 0000000180037084 f   libucrt:winapi_thunks.obj
 0001:000360f8       __acrt_InitializeCriticalSectionEx 00000001800370f8 f   libucrt:winapi_thunks.obj
 0001:00036170       __acrt_IsValidLocaleName   0000000180037170 f   libucrt:winapi_thunks.obj
 0001:000361d8       __acrt_LCIDToLocaleName    00000001800371d8 f   libucrt:winapi_thunks.obj
 0001:00036264       __acrt_LCMapStringEx       0000000180037264 f   libucrt:winapi_thunks.obj
 0001:00036354       __acrt_LocaleNameToLCID    0000000180037354 f   libucrt:winapi_thunks.obj
 0001:000363bc       __acrt_MessageBoxW         00000001800373bc f   libucrt:winapi_thunks.obj
 0001:00036444       __acrt_can_show_message_box 0000000180037444 f   libucrt:winapi_thunks.obj
 0001:000364a0       __acrt_can_use_vista_locale_apis 00000001800374a0 f   libucrt:winapi_thunks.obj
 0001:000364d0       __acrt_get_parent_window   00000001800374d0 f   libucrt:winapi_thunks.obj
 0001:00036560       __acrt_initialize_winapi_thunks 0000000180037560 f   libucrt:winapi_thunks.obj
 0001:00036598       __acrt_is_interactive      0000000180037598 f   libucrt:winapi_thunks.obj
 0001:0003666c       __acrt_is_packaged_app     000000018003766c f   libucrt:winapi_thunks.obj
 0001:000366f4       __acrt_uninitialize_winapi_thunks 00000001800376f4 f   libucrt:winapi_thunks.obj
 0001:00036738       _fcloseall                 0000000180037738 f   libucrt:closeall.obj
 0001:000367ec       __acrt_stdio_free_buffer_nolock 00000001800377ec f   libucrt:_freebuf.obj
 0001:00036a14       __acrt_initialize_lowio    0000000180037a14 f   libucrt:ioinit.obj
 0001:00036a50       __acrt_uninitialize_lowio  0000000180037a50 f   libucrt:ioinit.obj
 0001:00036a90       strtol                     0000000180037a90 f   libucrt:strtox.obj
 0001:00036ac0       wcstol                     0000000180037ac0 f   libucrt:strtox.obj
 0001:00036af0       _mbtowc_l                  0000000180037af0 f   libucrt:mbtowc.obj
 0001:00036c38       mbtowc                     0000000180037c38 f   libucrt:mbtowc.obj
 0001:00036c40       _wctomb_s_l                0000000180037c40 f   libucrt:wctomb.obj
 0001:00036dc4       wctomb_s                   0000000180037dc4 f   libucrt:wctomb.obj
 0001:00036dd8       __acrt_update_locale_info  0000000180037dd8 f   libucrt:locale_update.obj
 0001:00036e0c       __acrt_update_multibyte_info 0000000180037e0c f   libucrt:locale_update.obj
 0001:00036e40       ?__acrt_fp_classify@@YA?AW4__acrt_fp_class@@AEBN@Z 0000000180037e40 f i libucrt:cvt.obj
 0001:00037878       __acrt_fp_format           0000000180038878 f   libucrt:cvt.obj
 0001:00037abc       _fputwc_nolock             0000000180038abc f   libucrt:fputwc.obj
 0001:00037c38       _fileno                    0000000180038c38 f   libucrt:fileno.obj
 0001:00037c60       _get_printf_count_output   0000000180038c60 f   libucrt:printf_count_output.obj
 0001:00037c78       __acrt_stdio_begin_temporary_buffering_nolock 0000000180038c78 f   libucrt:_sftbuf.obj
 0001:00037d48       __acrt_stdio_end_temporary_buffering_nolock 0000000180038d48 f   libucrt:_sftbuf.obj
 0001:00037d84       ?sync@?$basic_streambuf@DU?$char_traits@D@std@@@std@@MEAAHXZ 0000000180038d84 f   libcpmt:cout.obj
 0001:00037d84       ?showmanyc@?$basic_streambuf@DU?$char_traits@D@std@@@std@@MEAA_JXZ 0000000180038d84 f   libcpmt:cout.obj
 0001:00037d88       ??$?RV<lambda_5df02c53a8f32f81fd64e5bbb78039f1>@@AEAV<lambda_2af78c5f5901b1372d98f9ab3177dfa6>@@AEAV<lambda_f51fe5fd7c79a33db34fc9310f277369>@@@?$__crt_seh_guarded_call@X@@QEAAX$$QEAV<lambda_5df02c53a8f32f81fd64e5bbb78039f1>@@AEAV<lambda_2af78c5f5901b1372d98f9ab3177dfa6>@@AEAV<lambda_f51fe5fd7c79a33db34fc9310f277369>@@@Z 0000000180038d88 f i libucrt:wsetlocale.obj
 0001:00037db4       ??$?RV<lambda_d67e8342c384adda8f857579ab50b2ae>@@AEAV<lambda_30712929f77e709619002f448b6a9510>@@V<lambda_4525336fd7e478d965fb7ca7a337cad8>@@@?$__crt_seh_guarded_call@X@@QEAAX$$QEAV<lambda_d67e8342c384adda8f857579ab50b2ae>@@AEAV<lambda_30712929f77e709619002f448b6a9510>@@$$QEAV<lambda_4525336fd7e478d965fb7ca7a337cad8>@@@Z 0000000180038db4 f i libucrt:wsetlocale.obj
 0001:00037f80       __acrt_copy_locale_name    0000000180038f80 f   libucrt:wsetlocale.obj
 0001:00038004       __acrt_set_locale_changed  0000000180039004 f   libucrt:wsetlocale.obj
 0001:00038010       __acrt_uninitialize_locale 0000000180039010 f   libucrt:wsetlocale.obj
 0001:00038058       __lc_lctowcs               0000000180039058 f   libucrt:wsetlocale.obj
 0001:000380fc       __lc_wcstolc               00000001800390fc f   libucrt:wsetlocale.obj
 0001:00038374       _expandlocale              0000000180039374 f   libucrt:wsetlocale.obj
 0001:00038770       _wcscats                   0000000180039770 f   libucrt:wsetlocale.obj
 0001:000387d8       _wsetlocale                00000001800397d8 f   libucrt:wsetlocale.obj
 0001:000391b0       _lseeki64                  000000018003a1b0 f   libucrt:lseek.obj
 0001:000391b8       _lseeki64_nolock           000000018003a1b8 f   libucrt:lseek.obj
 0001:000396f0       _read                      000000018003a6f0 f   libucrt:read.obj
 0001:00039808       _read_nolock               000000018003a808 f   libucrt:read.obj
 0001:00039c70       ?__acrt_stdio_allocate_stream@@YA?AV__crt_stdio_stream@@XZ 000000018003ac70 f   libucrt:stream.obj
 0001:00039ccc       ?__acrt_stdio_free_stream@@YAXV__crt_stdio_stream@@@Z 000000018003accc f   libucrt:stream.obj
 0001:00039dfc       ??$__acrt_stdio_parse_mode@D@@YA?AU__acrt_stdio_stream_mode@@QEBD@Z 000000018003adfc f i libucrt:openfile.obj
 0001:0003a098       _openfile                  000000018003b098 f   libucrt:openfile.obj
 0001:0003a134       ??$?RV<lambda_bfedae4ebbf01fab1bb6dcc6a9e276e0>@@AEAV<lambda_2fe9b910cf3cbf4a0ab98a02ba45b3ec>@@V<lambda_237c231691f317818eb88cc1d5d642d6>@@@?$__crt_seh_guarded_call@H@@QEAAH$$QEAV<lambda_bfedae4ebbf01fab1bb6dcc6a9e276e0>@@AEAV<lambda_2fe9b910cf3cbf4a0ab98a02ba45b3ec>@@$$QEAV<lambda_237c231691f317818eb88cc1d5d642d6>@@@Z 000000018003b134 f i libucrt:close.obj
 0001:0003a1a8       _close                     000000018003b1a8 f   libucrt:close.obj
 0001:0003a24c       _close_nolock              000000018003b24c f   libucrt:close.obj
 0001:0003a8a8       _write                     000000018003b8a8 f   libucrt:write.obj
 0001:0003a994       _write_nolock              000000018003b994 f   libucrt:write.obj
 0001:0003ae88       __acrt_stdio_flush_and_write_narrow_nolock 000000018003be88 f   libucrt:_flsbuf.obj
 0001:0003af70       __acrt_stdio_flush_and_write_wide_nolock 000000018003bf70 f   libucrt:_flsbuf.obj
 0001:0003b204       __acrt_stdio_refill_and_read_narrow_nolock 000000018003c204 f   libucrt:_filbuf.obj
 0001:0003b20c       _raise_exc                 000000018003c20c f   libucrt:fpexcept.obj
 0001:0003b234       _raise_exc_ex              000000018003c234 f   libucrt:fpexcept.obj
 0001:0003b53c       _raise_excf                000000018003c53c f   libucrt:fpexcept.obj
 0001:0003b568       _set_errno_from_matherr    000000018003c568 f   libucrt:fpexcept.obj
 0001:0003b598       _clrfp                     000000018003c598 f   libucrt:fpctrl.obj
 0001:0003b5b8       _ctrlfp                    000000018003c5b8 f   libucrt:fpctrl.obj
 0001:0003b634       _set_statfp                000000018003c634 f   libucrt:fpctrl.obj
 0001:0003b654       _statfp                    000000018003c654 f   libucrt:fpctrl.obj
 0001:0003b668       ??$?RV<lambda_b521505b218e5242e90febf6bfebc422>@@AEAV<lambda_6978c1fb23f02e42e1d9e99668cc68aa>@@V<lambda_314360699dd331753a4119843814e9a7>@@@?$__crt_seh_guarded_call@H@@QEAAH$$QEAV<lambda_b521505b218e5242e90febf6bfebc422>@@AEAV<lambda_6978c1fb23f02e42e1d9e99668cc68aa>@@$$QEAV<lambda_314360699dd331753a4119843814e9a7>@@@Z 000000018003c668 f i libucrt:commit.obj
 0001:0003b6f4       _commit                    000000018003c6f4 f   libucrt:commit.obj
 0001:0003b788       __acrt_stdio_allocate_buffer_nolock 000000018003c788 f   libucrt:_getbuf.obj
 0001:0003b9c8       _mbstowcs_s_l              000000018003c9c8 f   libucrt:mbstowcs.obj
 0001:0003baf8       mbstowcs_s                 000000018003caf8 f   libucrt:mbstowcs.obj
 0001:0003be4c       _wcstombs_s_l              000000018003ce4c f   libucrt:wcstombs.obj
 0001:0003bf38       _query_new_mode            000000018003cf38 f   libucrt:new_mode.obj
 0001:0003bf40       __acrt_initialize_heap     000000018003cf40 f   libucrt:heap_handle.obj
 0001:0003bf5c       __acrt_uninitialize_heap   000000018003cf5c f   libucrt:heap_handle.obj
 0001:0003bf68       _isctype_l                 000000018003cf68 f   libucrt:isctype.obj
 0001:0003c218       __acrt_GetLocaleInfoA      000000018003d218 f   libucrt:getlocaleinfoa.obj
 0001:0003c3e0       __acrt_GetStringTypeA      000000018003d3e0 f   libucrt:getstringtypea.obj
 0001:0003c8f0       __acrt_LCMapStringA        000000018003d8f0 f   libucrt:lcmapstringa.obj
 0001:0003c988       iswctype                   000000018003d988 f   libucrt:iswctype.obj
 0001:0003ca00       __acrt_initialize_fma3     000000018003da00 f   libucrt:fma3_available.obj
 0001:0003ca70       _pow_special               000000018003da70 f   libucrt:pow_special.obj
 0001:0003cb94       _powf_special              000000018003db94 f   libucrt:pow_special.obj
 0001:0003cd20       _wcsicmp                   000000018003dd20 f   libucrt:wcsicmp.obj
 0001:0003cda8       _wcsicmp_l                 000000018003dda8 f   libucrt:wcsicmp.obj
 0001:0003ce98       __acrt_initialize_timeset  000000018003de98 f   libucrt:timeset.obj
 0001:0003cec8       _isleadbyte_l              000000018003dec8 f i libucrt:_wctype.obj
 0001:0003d3e4       ?expand_if_necessary@?$argument_list@D@?A0xca0879c4@@AEAAHXZ 000000018003e3e4 f i libucrt:argv_wildcards.obj
 0001:0003d4ac       __acrt_expand_narrow_argv_wildcards 000000018003e4ac f   libucrt:argv_wildcards.obj
 0001:0003d4b4       ??$?RV<lambda_99476a1ad63dd22509b5d3e65b0ffc95>@@AEAV<lambda_ad1ced32f4ac17aa236e5ef05d6b3b7c>@@V<lambda_f7424dd8d45958661754dc4f2697e9c3>@@@?$__crt_seh_guarded_call@X@@QEAAX$$QEAV<lambda_99476a1ad63dd22509b5d3e65b0ffc95>@@AEAV<lambda_ad1ced32f4ac17aa236e5ef05d6b3b7c>@@$$QEAV<lambda_f7424dd8d45958661754dc4f2697e9c3>@@@Z 000000018003e4b4 f i libucrt:mbctype.obj
 0001:0003dbb0       __acrt_initialize_multibyte 000000018003ebb0 f   libucrt:mbctype.obj
 0001:0003dbd8       __acrt_update_thread_multibyte_data 000000018003ebd8 f   libucrt:mbctype.obj
 0001:0003dc98       _setmbcp_nolock            000000018003ec98 f   libucrt:mbctype.obj
 0001:0003df40       __acrt_initialize_command_line 000000018003ef40 f   libucrt:argv_data.obj
 0001:0003df68       __dcrt_get_narrow_environment_from_os 000000018003ef68 f   libucrt:get_environment_from_os.obj
 0001:0003e06c       _recalloc                  000000018003f06c f   libucrt:recalloc.obj
 0001:0003e074       _recalloc_base             000000018003f074 f   libucrt:recalloc.obj
 0001:0003e10c       __acrt_execute_initializers 000000018003f10c f   libucrt:shared_initialization.obj
 0001:0003e1a0       __acrt_execute_uninitializers 000000018003f1a0 f   libucrt:shared_initialization.obj
 0001:0003e1f0       __acrt_has_user_matherr    000000018003f1f0 f   libucrt:matherr.obj
 0001:0003e210       __acrt_initialize_user_matherr 000000018003f210 f   libucrt:matherr.obj
 0001:0003e218       __acrt_invoke_user_matherr 000000018003f218 f   libucrt:matherr.obj
 0001:0003e260       wcsncpy_s                  000000018003f260 f   libucrt:wcsncpy_s.obj
 0001:0003e344       __acrt_add_locale_ref      000000018003f344 f   libucrt:locale_refcounting.obj
 0001:0003e3d0       __acrt_free_locale         000000018003f3d0 f   libucrt:locale_refcounting.obj
 0001:0003e548       __acrt_locale_add_lc_time_reference 000000018003f548 f   libucrt:locale_refcounting.obj
 0001:0003e570       __acrt_locale_free_lc_time_if_unreferenced 000000018003f570 f   libucrt:locale_refcounting.obj
 0001:0003e5a8       __acrt_locale_release_lc_time_reference 000000018003f5a8 f   libucrt:locale_refcounting.obj
 0001:0003e5d0       __acrt_release_locale_ref  000000018003f5d0 f   libucrt:locale_refcounting.obj
 0001:0003e678       __acrt_update_thread_locale_data 000000018003f678 f   libucrt:locale_refcounting.obj
 0001:0003e6e8       _updatetlocinfoEx_nolock   000000018003f6e8 f   libucrt:locale_refcounting.obj
 0001:0003e818       __acrt_DownlevelLCIDToLocaleName 000000018003f818 f   libucrt:lcidtoname_downlevel.obj
 0001:0003e8fc       __acrt_DownlevelLocaleNameToLCID 000000018003f8fc f   libucrt:lcidtoname_downlevel.obj
 0001:0003e930       __acrt_lowio_create_handle_array 000000018003f930 f   libucrt:osfinfo.obj
 0001:0003e9c8       __acrt_lowio_destroy_handle_array 000000018003f9c8 f   libucrt:osfinfo.obj
 0001:0003ea18       __acrt_lowio_ensure_fh_exists 000000018003fa18 f   libucrt:osfinfo.obj
 0001:0003ead0       __acrt_lowio_lock_fh       000000018003fad0 f   libucrt:osfinfo.obj
 0001:0003eaf4       __acrt_lowio_set_os_handle 000000018003faf4 f   libucrt:osfinfo.obj
 0001:0003ebb4       __acrt_lowio_unlock_fh     000000018003fbb4 f   libucrt:osfinfo.obj
 0001:0003ebd8       _alloc_osfhnd              000000018003fbd8 f   libucrt:osfinfo.obj
 0001:0003ed08       _free_osfhnd               000000018003fd08 f   libucrt:osfinfo.obj
 0001:0003edc4       _get_osfhandle             000000018003fdc4 f   libucrt:osfinfo.obj
 0001:0003ee3c       __acrt_fp_strflt_to_string 000000018003fe3c f   libucrt:_fptostr.obj
 0001:0003eefc       __acrt_fltout              000000018003fefc f   libucrt:cfout.obj
 0001:00040268       _isatty                    0000000180041268 f   libucrt:isatty.obj
 0001:000402c8       __acrt_locale_free_monetary 00000001800412c8 f   libucrt:initmon.obj
 0001:000403d4       __acrt_locale_initialize_monetary 00000001800413d4 f   libucrt:initmon.obj
 0001:0004090c       __acrt_locale_free_numeric 000000018004190c f   libucrt:initnum.obj
 0001:00040978       __acrt_locale_initialize_numeric 0000000180041978 f   libucrt:initnum.obj
 0001:00040ffc       __acrt_locale_free_time    0000000180041ffc f   libucrt:inittime.obj
 0001:00041104       __acrt_locale_initialize_time 0000000180042104 f   libucrt:inittime.obj
 0001:00041198       wcscspn                    0000000180042198 f   libucrt:wcscspn.obj
 0001:000411d8       wcsncmp                    00000001800421d8 f   libucrt:wcsncmp.obj
 0001:00041204       wcspbrk                    0000000180042204 f   libucrt:wcspbrk.obj
 0001:00041aa8       __acrt_get_qualified_locale 0000000180042aa8 f   libucrt:get_qualified_locale.obj
 0001:00042494       __acrt_get_qualified_locale_downlevel 0000000180043494 f   libucrt:getqloc_downlevel.obj
 0001:00042724       _wcsnicmp                  0000000180043724 f   libucrt:wcsnicmp.obj
 0001:000427c0       _wcsnicmp_l                00000001800437c0 f   libucrt:wcsnicmp.obj
 0001:000428f0       strncmp                    00000001800438f0 f   libucrt:strncmp.obj
 0001:00042970       __ascii_strnicmp           0000000180043970 f   libucrt:strnicmp.obj
 0001:000429b8       _strnicmp                  00000001800439b8 f   libucrt:strnicmp.obj
 0001:00042a08       _strnicmp_l                0000000180043a08 f   libucrt:strnicmp.obj
 0001:00043128       _sopen_nolock              0000000180044128 f   libucrt:open.obj
 0001:000431b8       _sopen_s                   00000001800441b8 f   libucrt:open.obj
 0001:000431ec       _wsopen_nolock             00000001800441ec f   libucrt:open.obj
 0001:000435dc       _putwch_nolock             00000001800445dc f   libucrt:putwch.obj
 0001:00043650       _get_fpsr                  0000000180044650 f   libucrt:fpsr.obj
 0001:00043660       _set_fpsr                  0000000180044660 f   libucrt:fpsr.obj
 0001:0004366a       _fclrf                     000000018004466a f   libucrt:fpsr.obj
 0001:0004367e       _frnd                      000000018004467e f   libucrt:fpsr.obj
 0001:000436a0       strncpy_s                  00000001800446a0 f   libucrt:strncpy_s.obj
 0001:00043774       _getfpcontrolword          0000000180044774 f   libucrt:_fenvutils.obj
 0001:0004378c       _getfpstatusword           000000018004478c f   libucrt:_fenvutils.obj
 0001:000437a0       _setfpcontrolword          00000001800447a0 f   libucrt:_fenvutils.obj
 0001:000437ac       _setfpstatusword           00000001800447ac f   libucrt:_fenvutils.obj
 0001:00043920       _handle_error              0000000180044920 f   libucrt:libm_error.obj
 0001:00043a48       _handle_errorf             0000000180044a48 f   libucrt:libm_error.obj
 0001:00043b7c       _handle_nan                0000000180044b7c f   libucrt:libm_error.obj
 0001:00043b98       _handle_nanf               0000000180044b98 f   libucrt:libm_error.obj
 0001:00043ba8       _towlower_l                0000000180044ba8 f   libucrt:towlower.obj
 0001:00043c6c       strpbrk                    0000000180044c6c f   libucrt:strpbrk.obj
 0001:00043d0c       _mbsdec                    0000000180044d0c f   libucrt:mbsdec.obj
 0001:00043d14       _mbsdec_l                  0000000180044d14 f   libucrt:mbsdec.obj
 0001:00043dc4       _msize                     0000000180044dc4 f   libucrt:msize.obj
 0001:00043e00       fegetenv                   0000000180044e00 f   libucrt:fegetenv.obj
 0001:00043e20       fesetenv                   0000000180044e20 f   libucrt:fesetenv.obj
 0001:00043e6c       feholdexcept               0000000180044e6c f   libucrt:feholdexcept.obj
 0001:00043ebc       ceil                       0000000180044ebc f   libucrt:ceil.obj
 0001:00043f80       log10                      0000000180044f80 f   libucrt:log10.obj
 0001:0004452c       wcscmp                     000000018004552c f   libucrt:wcscmp.obj
 0001:00044564       _get_fmode                 0000000180045564 f   libucrt:setmode.obj
 0001:00044594       _setmode_nolock            0000000180045594 f   libucrt:setmode.obj
 0001:00044674       __acrt_copy_path_to_wide_string 0000000180045674 f   libucrt:string_utilities.obj
 0001:0004476c       _chsize_nolock             000000018004576c f   libucrt:chsize.obj
 0001:000448e8       __dcrt_lowio_initialize_console_output 00000001800458e8 f   libucrt:initcon.obj
 0001:00044924       __dcrt_terminate_console_output 0000000180045924 f   libucrt:initcon.obj
 0001:00044944       _clearfp                   0000000180045944 f   libucrt:ieee.obj
 0001:00044998       _controlfp                 0000000180045998 f   libucrt:ieee.obj
 0001:000449a4       _statusfp                  00000001800459a4 f   libucrt:ieee.obj
 0001:00044c84       __acrt_LCMapStringW        0000000180045c84 f   libucrt:lcmapstringw.obj
 0001:00044d10       _log10_special             0000000180045d10 f   libucrt:log_special.obj
 0001:00044d30       _log_special               0000000180045d30 f   libucrt:log_special.obj
 0001:00044de6       IsProcessorFeaturePresent  0000000180045de6 f   kernel32:KERNEL32.dll
 0001:00044dec       RtlUnwindEx                0000000180045dec f   kernel32:KERNEL32.dll
 0001:00044df4       ?DloadAcquireSectionWriteAccess@@YAXXZ 0000000180045df4 f i DelayImp:delayhlp.obj
 0001:00044eb0       ?DloadGetSRWLockFunctionPointers@@YAEXZ 0000000180045eb0 f i DelayImp:delayhlp.obj
 0001:00044f4c       ?DloadMakePermanentImageCommit@@YAXPEAX_K@Z 0000000180045f4c f i DelayImp:delayhlp.obj
 0001:00044fe4       ?DloadObtainSection@@YAPEAXPEAK0@Z 0000000180045fe4 f i DelayImp:delayhlp.obj
 0001:0004507c       ?DloadProtectSection@@YAXKPEAK@Z 000000018004607c f i DelayImp:delayhlp.obj
 0001:0004510c       ?DloadReleaseSectionWriteAccess@@YAXXZ 000000018004610c f i DelayImp:delayhlp.obj
 0001:000451b0       __delayLoadHelper2         00000001800461b0 f   DelayImp:delayhlp.obj
 0001:000454b0       _FindPESection             00000001800464b0 f   LIBCMT:pesect.obj
 0001:00045500       _IsNonwritableInCurrentImage 0000000180046500 f   LIBCMT:pesect.obj
 0001:00045550       _ValidateImageBase         0000000180046550 f   LIBCMT:pesect.obj
 0001:00045580       strrchr                    0000000180046580 f   libvcruntime:strrchr.obj
 0001:000456c0       wcschr                     00000001800466c0 f   libvcruntime:wcschr.obj
 0001:00045760       log                        0000000180046760 f   libucrt:log.obj
 0001:00045ca0       _guard_dispatch_icall_nop  0000000180046ca0 f   LIBCMT:_guard_dispatch_.obj
 0001:000469c0       ??__F_Static@?1???$_Immortalize@V_Iostream_error_category@std@@@std@@YAAEAV_Iostream_error_category@0@XZ@YAXXZ 00000001800479c0 f i lodepng_util.obj
 0002:00000000       __imp_GetModuleHandleA     0000000180048000     kernel32:KERNEL32.dll
 0002:00000008       __imp_WideCharToMultiByte  0000000180048008     kernel32:KERNEL32.dll
 0002:00000010       __imp_EnterCriticalSection 0000000180048010     kernel32:KERNEL32.dll
 0002:00000018       __imp_LeaveCriticalSection 0000000180048018     kernel32:KERNEL32.dll
 0002:00000020       __imp_DeleteCriticalSection 0000000180048020     kernel32:KERNEL32.dll
 0002:00000028       __imp_EncodePointer        0000000180048028     kernel32:KERNEL32.dll
 0002:00000030       __imp_DecodePointer        0000000180048030     kernel32:KERNEL32.dll
 0002:00000038       __imp_MultiByteToWideChar  0000000180048038     kernel32:KERNEL32.dll
 0002:00000040       __imp_SetLastError         0000000180048040     kernel32:KERNEL32.dll
 0002:00000048       __imp_InitializeCriticalSectionAndSpinCount 0000000180048048     kernel32:KERNEL32.dll
 0002:00000050       __imp_CreateEventW         0000000180048050     kernel32:KERNEL32.dll
 0002:00000058       __imp_TlsAlloc             0000000180048058     kernel32:KERNEL32.dll
 0002:00000060       __imp_TlsGetValue          0000000180048060     kernel32:KERNEL32.dll
 0002:00000068       __imp_TlsSetValue          0000000180048068     kernel32:KERNEL32.dll
 0002:00000070       __imp_TlsFree              0000000180048070     kernel32:KERNEL32.dll
 0002:00000078       __imp_GetSystemTimeAsFileTime 0000000180048078     kernel32:KERNEL32.dll
 0002:00000080       __imp_GetModuleHandleW     0000000180048080     kernel32:KERNEL32.dll
 0002:00000088       __imp_GetProcAddress       0000000180048088     kernel32:KERNEL32.dll
 0002:00000090       __imp_LCMapStringW         0000000180048090     kernel32:KERNEL32.dll
 0002:00000098       __imp_GetLocaleInfoW       0000000180048098     kernel32:KERNEL32.dll
 0002:000000a0       __imp_GetStringTypeW       00000001800480a0     kernel32:KERNEL32.dll
 0002:000000a8       __imp_GetCPInfo            00000001800480a8     kernel32:KERNEL32.dll
 0002:000000b0       __imp_CloseHandle          00000001800480b0     kernel32:KERNEL32.dll
 0002:000000b8       __imp_SetEvent             00000001800480b8     kernel32:KERNEL32.dll
 0002:000000c0       __imp_ResetEvent           00000001800480c0     kernel32:KERNEL32.dll
 0002:000000c8       __imp_WaitForSingleObjectEx 00000001800480c8     kernel32:KERNEL32.dll
 0002:000000d0       __imp_RtlCaptureContext    00000001800480d0     kernel32:KERNEL32.dll
 0002:000000d8       __imp_RtlLookupFunctionEntry 00000001800480d8     kernel32:KERNEL32.dll
 0002:000000e0       __imp_RtlVirtualUnwind     00000001800480e0     kernel32:KERNEL32.dll
 0002:000000e8       __imp_UnhandledExceptionFilter 00000001800480e8     kernel32:KERNEL32.dll
 0002:000000f0       __imp_SetUnhandledExceptionFilter 00000001800480f0     kernel32:KERNEL32.dll
 0002:000000f8       __imp_GetCurrentProcess    00000001800480f8     kernel32:KERNEL32.dll
 0002:00000100       __imp_TerminateProcess     0000000180048100     kernel32:KERNEL32.dll
 0002:00000108       __imp_IsProcessorFeaturePresent 0000000180048108     kernel32:KERNEL32.dll
 0002:00000110       __imp_IsDebuggerPresent    0000000180048110     kernel32:KERNEL32.dll
 0002:00000118       __imp_GetStartupInfoW      0000000180048118     kernel32:KERNEL32.dll
 0002:00000120       __imp_QueryPerformanceCounter 0000000180048120     kernel32:KERNEL32.dll
 0002:00000128       __imp_GetCurrentProcessId  0000000180048128     kernel32:KERNEL32.dll
 0002:00000130       __imp_GetCurrentThreadId   0000000180048130     kernel32:KERNEL32.dll
 0002:00000138       __imp_InitializeSListHead  0000000180048138     kernel32:KERNEL32.dll
 0002:00000140       __imp_RtlPcToFileHeader    0000000180048140     kernel32:KERNEL32.dll
 0002:00000148       __imp_RaiseException       0000000180048148     kernel32:KERNEL32.dll
 0002:00000150       __imp_RtlUnwindEx          0000000180048150     kernel32:KERNEL32.dll
 0002:00000158       __imp_GetLastError         0000000180048158     kernel32:KERNEL32.dll
 0002:00000160       __imp_FreeLibrary          0000000180048160     kernel32:KERNEL32.dll
 0002:00000168       __imp_LoadLibraryExW       0000000180048168     kernel32:KERNEL32.dll
 0002:00000170       __imp_InterlockedFlushSList 0000000180048170     kernel32:KERNEL32.dll
 0002:00000178       __imp_GetStdHandle         0000000180048178     kernel32:KERNEL32.dll
 0002:00000180       __imp_GetFileType          0000000180048180     kernel32:KERNEL32.dll
 0002:00000188       __imp_GetModuleFileNameA   0000000180048188     kernel32:KERNEL32.dll
 0002:00000190       __imp_GetModuleFileNameW   0000000180048190     kernel32:KERNEL32.dll
 0002:00000198       __imp_GetModuleHandleExW   0000000180048198     kernel32:KERNEL32.dll
 0002:000001a0       __imp_WriteConsoleW        00000001800481a0     kernel32:KERNEL32.dll
 0002:000001a8       __imp_ExitProcess          00000001800481a8     kernel32:KERNEL32.dll
 0002:000001b0       __imp_ReadFile             00000001800481b0     kernel32:KERNEL32.dll
 0002:000001b8       __imp_HeapAlloc            00000001800481b8     kernel32:KERNEL32.dll
 0002:000001c0       __imp_HeapReAlloc          00000001800481c0     kernel32:KERNEL32.dll
 0002:000001c8       __imp_HeapFree             00000001800481c8     kernel32:KERNEL32.dll
 0002:000001d0       __imp_WriteFile            00000001800481d0     kernel32:KERNEL32.dll
 0002:000001d8       __imp_OutputDebugStringW   00000001800481d8     kernel32:KERNEL32.dll
 0002:000001e0       __imp_CreateThread         00000001800481e0     kernel32:KERNEL32.dll
 0002:000001e8       __imp_IsValidLocale        00000001800481e8     kernel32:KERNEL32.dll
 0002:000001f0       __imp_GetUserDefaultLCID   00000001800481f0     kernel32:KERNEL32.dll
 0002:000001f8       __imp_EnumSystemLocalesW   00000001800481f8     kernel32:KERNEL32.dll
 0002:00000200       __imp_GetACP               0000000180048200     kernel32:KERNEL32.dll
 0002:00000208       __imp_SetFilePointerEx     0000000180048208     kernel32:KERNEL32.dll
 0002:00000210       __imp_GetConsoleMode       0000000180048210     kernel32:KERNEL32.dll
 0002:00000218       __imp_ReadConsoleW         0000000180048218     kernel32:KERNEL32.dll
 0002:00000220       __imp_GetConsoleCP         0000000180048220     kernel32:KERNEL32.dll
 0002:00000228       __imp_FlushFileBuffers     0000000180048228     kernel32:KERNEL32.dll
 0002:00000230       __imp_GetProcessHeap       0000000180048230     kernel32:KERNEL32.dll
 0002:00000238       __imp_FindClose            0000000180048238     kernel32:KERNEL32.dll
 0002:00000240       __imp_FindFirstFileExA     0000000180048240     kernel32:KERNEL32.dll
 0002:00000248       __imp_FindNextFileA        0000000180048248     kernel32:KERNEL32.dll
 0002:00000250       __imp_IsValidCodePage      0000000180048250     kernel32:KERNEL32.dll
 0002:00000258       __imp_GetOEMCP             0000000180048258     kernel32:KERNEL32.dll
 0002:00000260       __imp_GetCommandLineA      0000000180048260     kernel32:KERNEL32.dll
 0002:00000268       __imp_GetCommandLineW      0000000180048268     kernel32:KERNEL32.dll
 0002:00000270       __imp_GetEnvironmentStringsW 0000000180048270     kernel32:KERNEL32.dll
 0002:00000278       __imp_FreeEnvironmentStringsW 0000000180048278     kernel32:KERNEL32.dll
 0002:00000280       __imp_SetStdHandle         0000000180048280     kernel32:KERNEL32.dll
 0002:00000288       __imp_CreateFileW          0000000180048288     kernel32:KERNEL32.dll
 0002:00000290       __imp_HeapSize             0000000180048290     kernel32:KERNEL32.dll
 0002:00000298       __imp_SetEndOfFile         0000000180048298     kernel32:KERNEL32.dll
 0002:000002a0       __imp_GetSystemInfo        00000001800482a0     kernel32:KERNEL32.dll
 0002:000002a8       __imp_VirtualProtect       00000001800482a8     kernel32:KERNEL32.dll
 0002:000002b0       __imp_VirtualQuery         00000001800482b0     kernel32:KERNEL32.dll
 0002:000002b8       __imp_LoadLibraryExA       00000001800482b8     kernel32:KERNEL32.dll
 0002:000002c0       \177KERNEL32_NULL_THUNK_DATA 00000001800482c0     kernel32:KERNEL32.dll
 0002:000002c8       __guard_check_icall_fptr   00000001800482c8     LIBCMT:guard_support.obj
 0002:000002d0       __guard_dispatch_icall_fptr 00000001800482d0     LIBCMT:guard_support.obj
 0002:000002d8       __xc_a                     00000001800482d8     LIBCMT:initializers.obj
 0002:00000328       _register_zopfli_          0000000180048328     zopfli-binding.obj
 0002:00000330       __xc_z                     0000000180048330     LIBCMT:initializers.obj
 0002:00000338       __xi_a                     0000000180048338     LIBCMT:initializers.obj
 0002:00000350       __acrt_stdio_initializer   0000000180048350     libucrt:stdio_initializer.obj
 0002:00000358       __acrt_tran_fma3_initializer 0000000180048358     libucrt:fma3_initializer.obj
 0002:00000360       __acrt_timeset_initializer 0000000180048360     libucrt:timeset_initializer.obj
 0002:00000368       __acrt_multibyte_initializer 0000000180048368     libucrt:multibyte_initializer.obj
 0002:00000370       __xi_z                     0000000180048370     LIBCMT:initializers.obj
 0002:00000378       __xl_a                     0000000180048378     LIBCMT:tlssup.obj
 0002:00000380       __xl_z                     0000000180048380     LIBCMT:tlssup.obj
 0002:00000388       __xp_a                     0000000180048388     LIBCMT:initializers.obj
 0002:00000390       __acrt_locale_terminator   0000000180048390     libucrt:locale_initializer.obj
 0002:00000398       __dcrt_console_output_terminator 0000000180048398     libucrt:console_output_initializer.obj
 0002:000003a0       __acrt_stdio_terminator    00000001800483a0     libucrt:stdio_initializer.obj
 0002:000003a8       __xp_z                     00000001800483a8     LIBCMT:initializers.obj
 0002:000003b0       __xt_a                     00000001800483b0     LIBCMT:initializers.obj
 0002:000003b8       __xt_z                     00000001800483b8     LIBCMT:initializers.obj
 0002:000003c0       __sz_node_exe              00000001800483c0     node:node.exe
 0002:000003d8       ??_7exception@std@@6B@     00000001800483d8     libcpmt:xthrow.obj
 0002:000003e8       ??_C@_0BC@EOODALEL@Unknown?5exception?$AA@ 00000001800483e8     libcpmt:xthrow.obj
 0002:00000408       ??_7bad_alloc@std@@6B@     0000000180048408     libcpmt:xthrow.obj
 0002:00000418       ??_C@_0P@GHFPNOJB@bad?5allocation?$AA@ 0000000180048418     libcpmt:xthrow.obj
 0002:00000430       ??_7logic_error@std@@6B@   0000000180048430     libcpmt:xthrow.obj
 0002:00000448       ??_7length_error@std@@6B@  0000000180048448     libcpmt:xthrow.obj
 0002:00000460       ??_7out_of_range@std@@6B@  0000000180048460     libcpmt:xthrow.obj
 0002:00000478       ??_7runtime_error@std@@6B@ 0000000180048478     libcpmt:xthrow.obj
 0002:000006e8       ??_7bad_cast@std@@6B@      00000001800486e8     libcpmt:cout.obj
 0002:000006f8       ??_C@_08EPJLHIJG@bad?5cast?$AA@ 00000001800486f8     libcpmt:cout.obj
 0002:00000710       ??_7_Facet_base@std@@6B@   0000000180048710     libcpmt:cout.obj
 0002:00000730       ??_7?$ctype@D@std@@6B@     0000000180048730     libcpmt:cout.obj
 0002:00000790       ??_7error_category@std@@6B@ 0000000180048790     libcpmt:cout.obj
 0002:000007c8       ??_7_System_error@std@@6B@ 00000001800487c8     libcpmt:cout.obj
 0002:000007e0       ??_7_Iostream_error_category@std@@6B@ 00000001800487e0     libcpmt:cout.obj
 0002:00000818       ??_7failure@ios_base@std@@6B@ 0000000180048818     libcpmt:cout.obj
 0002:00000830       ??_7ios_base@std@@6B@      0000000180048830     libcpmt:cout.obj
 0002:00000840       ??_7?$basic_streambuf@DU?$char_traits@D@std@@@std@@6B@ 0000000180048840     libcpmt:cout.obj
 0002:000008c0       ??_7?$basic_filebuf@DU?$char_traits@D@std@@@std@@6B@ 00000001800488c0     libcpmt:cout.obj
 0002:00000940       ??_7?$basic_ios@DU?$char_traits@D@std@@@std@@6B@ 0000000180048940     libcpmt:cout.obj
 0002:00000950       ??_7?$basic_ostream@DU?$char_traits@D@std@@@std@@6B@ 0000000180048950     libcpmt:cout.obj
 0002:00000958       ??_8?$basic_ostream@DU?$char_traits@D@std@@@std@@7B@ 0000000180048958     libcpmt:cout.obj
 0002:00000968       ??_7?$codecvt@DDU_Mbstatet@@@std@@6B@ 0000000180048968     libcpmt:cout.obj
 0002:00000a88       ??_7_Locimp@locale@std@@6B@ 0000000180048a88     libcpmt:locale0.obj
 0002:00000aa0       ??_C@_01NBENCBCI@?$CK?$AA@ 0000000180048aa0     libcpmt:locale0.obj
 0002:00000aa4       ??_C@_01GFHCPBMG@C?$AA@    0000000180048aa4     libcpmt:locale0.obj
 0002:000011e0       ??_C@_0BN@LKKBCCDB@address?5family?5not?5supported?$AA@ 00000001800491e0     libcpmt:syserror.obj
 0002:00001200       ??_C@_0P@LDMLAFHI@address?5in?5use?$AA@ 0000000180049200     libcpmt:syserror.obj
 0002:00001210       ??_C@_0BG@DHPCNBJB@address?5not?5available?$AA@ 0000000180049210     libcpmt:syserror.obj
 0002:00001228       ??_C@_0BC@DFIBIBIL@already?5connected?$AA@ 0000000180049228     libcpmt:syserror.obj
 0002:00001240       ??_C@_0BH@CAKOHOMI@argument?5list?5too?5long?$AA@ 0000000180049240     libcpmt:syserror.obj
 0002:00001258       ??_C@_0BH@CGIMPKIM@argument?5out?5of?5domain?$AA@ 0000000180049258     libcpmt:syserror.obj
 0002:00001270       ??_C@_0M@KGHGGJGL@bad?5address?$AA@ 0000000180049270     libcpmt:syserror.obj
 0002:00001280       ??_C@_0BE@MPJPGCEO@bad?5file?5descriptor?$AA@ 0000000180049280     libcpmt:syserror.obj
 0002:00001298       ??_C@_0M@PMMIEFCP@bad?5message?$AA@ 0000000180049298     libcpmt:syserror.obj
 0002:000012a8       ??_C@_0M@KPHOFDBE@broken?5pipe?$AA@ 00000001800492a8     libcpmt:syserror.obj
 0002:000012b8       ??_C@_0BD@MGNDDEGM@connection?5aborted?$AA@ 00000001800492b8     libcpmt:syserror.obj
 0002:000012d0       ??_C@_0BP@KAIHPOGN@connection?5already?5in?5progress?$AA@ 00000001800492d0     libcpmt:syserror.obj
 0002:000012f0       ??_C@_0BD@PJLIIJEL@connection?5refused?$AA@ 00000001800492f0     libcpmt:syserror.obj
 0002:00001308       ??_C@_0BB@IECNJNOI@connection?5reset?$AA@ 0000000180049308     libcpmt:syserror.obj
 0002:00001320       ??_C@_0BC@PPHBOELF@cross?5device?5link?$AA@ 0000000180049320     libcpmt:syserror.obj
 0002:00001338       ??_C@_0BN@KDMIFEIP@destination?5address?5required?$AA@ 0000000180049338     libcpmt:syserror.obj
 0002:00001358       ??_C@_0BI@NGCEHDD@device?5or?5resource?5busy?$AA@ 0000000180049358     libcpmt:syserror.obj
 0002:00001370       ??_C@_0BE@JIDOCPHM@directory?5not?5empty?$AA@ 0000000180049370     libcpmt:syserror.obj
 0002:00001388       ??_C@_0BI@BNCLIGPB@executable?5format?5error?$AA@ 0000000180049388     libcpmt:syserror.obj
 0002:000013a0       ??_C@_0M@MIDIAGJP@file?5exists?$AA@ 00000001800493a0     libcpmt:syserror.obj
 0002:000013b0       ??_C@_0P@DNAJLBJK@file?5too?5large?$AA@ 00000001800493b0     libcpmt:syserror.obj
 0002:000013c0       ??_C@_0BC@EJHOMAAK@filename?5too?5long?$AA@ 00000001800493c0     libcpmt:syserror.obj
 0002:000013d8       ??_C@_0BH@KEFGLDAF@function?5not?5supported?$AA@ 00000001800493d8     libcpmt:syserror.obj
 0002:000013f0       ??_C@_0BB@DHFDFGDM@host?5unreachable?$AA@ 00000001800493f0     libcpmt:syserror.obj
 0002:00001408       ??_C@_0BD@JPHBMONG@identifier?5removed?$AA@ 0000000180049408     libcpmt:syserror.obj
 0002:00001420       ??_C@_0BG@CDNPAGJK@illegal?5byte?5sequence?$AA@ 0000000180049420     libcpmt:syserror.obj
 0002:00001438       ??_C@_0CD@BNPLBMNA@inappropriate?5io?5control?5operati@ 0000000180049438     libcpmt:syserror.obj
 0002:00001460       ??_C@_0M@EGEKIIMP@interrupted?$AA@ 0000000180049460     libcpmt:syserror.obj
 0002:00001470       ??_C@_0BB@FCMFBGOM@invalid?5argument?$AA@ 0000000180049470     libcpmt:syserror.obj
 0002:00001488       ??_C@_0N@OHAFKDEK@invalid?5seek?$AA@ 0000000180049488     libcpmt:syserror.obj
 0002:00001498       ??_C@_08GLNPIFBN@io?5error?$AA@ 0000000180049498     libcpmt:syserror.obj
 0002:000014a8       ??_C@_0P@FLLDBIDK@is?5a?5directory?$AA@ 00000001800494a8     libcpmt:syserror.obj
 0002:000014b8       ??_C@_0N@IFLPBIOP@message?5size?$AA@ 00000001800494b8     libcpmt:syserror.obj
 0002:000014c8       ??_C@_0N@KIIEAAIO@network?5down?$AA@ 00000001800494c8     libcpmt:syserror.obj
 0002:000014d8       ??_C@_0O@FNPDBHEE@network?5reset?$AA@ 00000001800494d8     libcpmt:syserror.obj
 0002:000014e8       ??_C@_0BE@IFNCKGE@network?5unreachable?$AA@ 00000001800494e8     libcpmt:syserror.obj
 0002:00001500       ??_C@_0BA@PFFCAOFK@no?5buffer?5space?$AA@ 0000000180049500     libcpmt:syserror.obj
 0002:00001510       ??_C@_0BB@IEPBLJHK@no?5child?5process?$AA@ 0000000180049510     libcpmt:syserror.obj
 0002:00001528       ??_C@_07PLECNNKG@no?5link?$AA@ 0000000180049528     libcpmt:syserror.obj
 0002:00001530       ??_C@_0BC@NJECKMKE@no?5lock?5available?$AA@ 0000000180049530     libcpmt:syserror.obj
 0002:00001548       ??_C@_0BF@PBGGPKKE@no?5message?5available?$AA@ 0000000180049548     libcpmt:syserror.obj
 0002:00001560       ??_C@_0L@EDOLMPAK@no?5message?$AA@ 0000000180049560     libcpmt:syserror.obj
 0002:00001570       ??_C@_0BD@EAMBFIDF@no?5protocol?5option?$AA@ 0000000180049570     libcpmt:syserror.obj
 0002:00001588       ??_C@_0BD@IJDJKDEA@no?5space?5on?5device?$AA@ 0000000180049588     libcpmt:syserror.obj
 0002:000015a0       ??_C@_0BE@MKFDAFMP@no?5stream?5resources?$AA@ 00000001800495a0     libcpmt:syserror.obj
 0002:000015b8       ??_C@_0BK@IMCPHCBI@no?5such?5device?5or?5address?$AA@ 00000001800495b8     libcpmt:syserror.obj
 0002:000015d8       ??_C@_0P@FDINDDOK@no?5such?5device?$AA@ 00000001800495d8     libcpmt:syserror.obj
 0002:000015e8       ??_C@_0BK@NDOCBPGE@no?5such?5file?5or?5directory?$AA@ 00000001800495e8     libcpmt:syserror.obj
 0002:00001608       ??_C@_0BA@ENLPPKBN@no?5such?5process?$AA@ 0000000180049608     libcpmt:syserror.obj
 0002:00001618       ??_C@_0BA@DOCPFFJG@not?5a?5directory?$AA@ 0000000180049618     libcpmt:syserror.obj
 0002:00001628       ??_C@_0N@POEIPGGF@not?5a?5socket?$AA@ 0000000180049628     libcpmt:syserror.obj
 0002:00001638       ??_C@_0N@LGAPMMPI@not?5a?5stream?$AA@ 0000000180049638     libcpmt:syserror.obj
 0002:00001648       ??_C@_0O@GLMIBBEG@not?5connected?$AA@ 0000000180049648     libcpmt:syserror.obj
 0002:00001658       ??_C@_0BC@ENOOLCNF@not?5enough?5memory?$AA@ 0000000180049658     libcpmt:syserror.obj
 0002:00001670       ??_C@_0O@NHEDABJP@not?5supported?$AA@ 0000000180049670     libcpmt:syserror.obj
 0002:00001680       ??_C@_0BD@MOLBPMEA@operation?5canceled?$AA@ 0000000180049680     libcpmt:syserror.obj
 0002:00001698       ??_C@_0BG@KDKHOPCO@operation?5in?5progress?$AA@ 0000000180049698     libcpmt:syserror.obj
 0002:000016b0       ??_C@_0BI@OHIEJAAB@operation?5not?5permitted?$AA@ 00000001800496b0     libcpmt:syserror.obj
 0002:000016c8       ??_C@_0BI@LNEGIFLN@operation?5not?5supported?$AA@ 00000001800496c8     libcpmt:syserror.obj
 0002:000016e0       ??_C@_0BG@OEMDKMEE@operation?5would?5block?$AA@ 00000001800496e0     libcpmt:syserror.obj
 0002:000016f8       ??_C@_0L@BLPOFLNJ@owner?5dead?$AA@ 00000001800496f8     libcpmt:syserror.obj
 0002:00001708       ??_C@_0BC@CIJDGCDI@permission?5denied?$AA@ 0000000180049708     libcpmt:syserror.obj
 0002:00001720       ??_C@_0P@FNPOCJBE@protocol?5error?$AA@ 0000000180049720     libcpmt:syserror.obj
 0002:00001730       ??_C@_0BH@JPPPLHJB@protocol?5not?5supported?$AA@ 0000000180049730     libcpmt:syserror.obj
 0002:00001748       ??_C@_0BG@EICBIHDP@read?5only?5file?5system?$AA@ 0000000180049748     libcpmt:syserror.obj
 0002:00001760       ??_C@_0BO@BJBOMOEJ@resource?5deadlock?5would?5occur?$AA@ 0000000180049760     libcpmt:syserror.obj
 0002:00001780       ??_C@_0BP@LKNGHENJ@resource?5unavailable?5try?5again?$AA@ 0000000180049780     libcpmt:syserror.obj
 0002:000017a0       ??_C@_0BE@GOIPJJHG@result?5out?5of?5range?$AA@ 00000001800497a0     libcpmt:syserror.obj
 0002:000017b8       ??_C@_0BG@MPLKFPAE@state?5not?5recoverable?$AA@ 00000001800497b8     libcpmt:syserror.obj
 0002:000017d0       ??_C@_0P@DIIFGFCG@stream?5timeout?$AA@ 00000001800497d0     libcpmt:syserror.obj
 0002:000017e0       ??_C@_0P@IPFDMIFL@text?5file?5busy?$AA@ 00000001800497e0     libcpmt:syserror.obj
 0002:000017f0       ??_C@_09KJPPMAOI@timed?5out?$AA@ 00000001800497f0     libcpmt:syserror.obj
 0002:00001800       ??_C@_0BO@HACHBEKI@too?5many?5files?5open?5in?5system?$AA@ 0000000180049800     libcpmt:syserror.obj
 0002:00001820       ??_C@_0BE@GHAFMPAH@too?5many?5files?5open?$AA@ 0000000180049820     libcpmt:syserror.obj
 0002:00001838       ??_C@_0P@HCOMKFCC@too?5many?5links?$AA@ 0000000180049838     libcpmt:syserror.obj
 0002:00001848       ??_C@_0BO@EFGOJEF@too?5many?5symbolic?5link?5levels?$AA@ 0000000180049848     libcpmt:syserror.obj
 0002:00001868       ??_C@_0BA@KGKGOOJA@value?5too?5large?$AA@ 0000000180049868     libcpmt:syserror.obj
 0002:00001878       ??_C@_0BE@MIEJDDNH@wrong?5protocol?5type?$AA@ 0000000180049878     libcpmt:syserror.obj
 0002:00001890       ??_C@_0O@BFJCFAAK@unknown?5error?$AA@ 0000000180049890     libcpmt:syserror.obj
 0002:000018a0       ?_BADOFF@std@@3_JB         00000001800498a0     libcpmt:ios.obj
 0002:000018d0       ??_C@_1BK@MGMFAEKH@?$AAk?$AAe?$AAr?$AAn?$AAe?$AAl?$AA3?$AA2?$AA?4?$AAd?$AAl?$AAl?$AA?$AA@ 00000001800498d0     libcpmt:winapisupp.obj
 0002:000018f0       ??_C@_08KNHFBNJ@FlsAlloc?$AA@ 00000001800498f0     libcpmt:winapisupp.obj
 0002:00001900       ??_C@_07PEJMOBNF@FlsFree?$AA@ 0000000180049900     libcpmt:winapisupp.obj
 0002:00001908       ??_C@_0M@GDNOONDI@FlsGetValue?$AA@ 0000000180049908     libcpmt:winapisupp.obj
 0002:00001918       ??_C@_0M@JCPCPOEF@FlsSetValue?$AA@ 0000000180049918     libcpmt:winapisupp.obj
 0002:00001928       ??_C@_0BM@HCFOFFN@InitializeCriticalSectionEx?$AA@ 0000000180049928     libcpmt:winapisupp.obj
 0002:00001948       ??_C@_0BE@GPLMMCMH@InitOnceExecuteOnce?$AA@ 0000000180049948     libcpmt:winapisupp.obj
 0002:00001960       ??_C@_0P@DLHPPCNH@CreateEventExW?$AA@ 0000000180049960     libcpmt:winapisupp.obj
 0002:00001970       ??_C@_0BB@MEFPJLHN@CreateSemaphoreW?$AA@ 0000000180049970     libcpmt:winapisupp.obj
 0002:00001988       ??_C@_0BD@KIEEOEEH@CreateSemaphoreExW?$AA@ 0000000180049988     libcpmt:winapisupp.obj
 0002:000019a0       ??_C@_0BG@OGFAJCKC@CreateThreadpoolTimer?$AA@ 00000001800499a0     libcpmt:winapisupp.obj
 0002:000019b8       ??_C@_0BD@LPLEMMDI@SetThreadpoolTimer?$AA@ 00000001800499b8     libcpmt:winapisupp.obj
 0002:000019d0       ??_C@_0CA@FMNJENH@WaitForThreadpoolTimerCallbacks?$AA@ 00000001800499d0     libcpmt:winapisupp.obj
 0002:000019f0       ??_C@_0BF@DCFCCNOC@CloseThreadpoolTimer?$AA@ 00000001800499f0     libcpmt:winapisupp.obj
 0002:00001a08       ??_C@_0BF@FLABGKKM@CreateThreadpoolWait?$AA@ 0000000180049a08     libcpmt:winapisupp.obj
 0002:00001a20       ??_C@_0BC@MGCOHNA@SetThreadpoolWait?$AA@ 0000000180049a20     libcpmt:winapisupp.obj
 0002:00001a38       ??_C@_0BE@OCIOMIMP@CloseThreadpoolWait?$AA@ 0000000180049a38     libcpmt:winapisupp.obj
 0002:00001a50       ??_C@_0BJ@LKGHFHBO@FlushProcessWriteBuffers?$AA@ 0000000180049a50     libcpmt:winapisupp.obj
 0002:00001a70       ??_C@_0BP@KALKKPMO@FreeLibraryWhenCallbackReturns?$AA@ 0000000180049a70     libcpmt:winapisupp.obj
 0002:00001a90       ??_C@_0BK@DFNBACLA@GetCurrentProcessorNumber?$AA@ 0000000180049a90     libcpmt:winapisupp.obj
 0002:00001ab0       ??_C@_0BE@FKKLLFLM@CreateSymbolicLinkW?$AA@ 0000000180049ab0     libcpmt:winapisupp.obj
 0002:00001ac8       ??_C@_0BE@JOGNEJCI@GetCurrentPackageId?$AA@ 0000000180049ac8     libcpmt:winapisupp.obj
 0002:00001ae0       ??_C@_0P@CDHHOHKP@GetTickCount64?$AA@ 0000000180049ae0     libcpmt:winapisupp.obj
 0002:00001af0       ??_C@_0BN@NEEHBBPO@GetFileInformationByHandleEx?$AA@ 0000000180049af0     libcpmt:winapisupp.obj
 0002:00001b10       ??_C@_0BL@KBBHGKCM@SetFileInformationByHandle?$AA@ 0000000180049b10     libcpmt:winapisupp.obj
 0002:00001b30       ??_C@_0BP@FPNJPEJC@GetSystemTimePreciseAsFileTime?$AA@ 0000000180049b30     libcpmt:winapisupp.obj
 0002:00001b50       ??_C@_0BM@HLJJNPAH@InitializeConditionVariable?$AA@ 0000000180049b50     libcpmt:winapisupp.obj
 0002:00001b70       ??_C@_0BG@BFNILBLN@WakeConditionVariable?$AA@ 0000000180049b70     libcpmt:winapisupp.obj
 0002:00001b88       ??_C@_0BJ@PGPPEPCC@WakeAllConditionVariable?$AA@ 0000000180049b88     libcpmt:winapisupp.obj
 0002:00001ba8       ??_C@_0BJ@JEBJOJFJ@SleepConditionVariableCS?$AA@ 0000000180049ba8     libcpmt:winapisupp.obj
 0002:00001bc8       ??_C@_0BC@MMLHEBPB@InitializeSRWLock?$AA@ 0000000180049bc8     libcpmt:winapisupp.obj
 0002:00001be0       ??_C@_0BI@OMNLIJDB@AcquireSRWLockExclusive?$AA@ 0000000180049be0     libcpmt:winapisupp.obj
 0002:00001bf8       ??_C@_0BL@OGHFEMNA@TryAcquireSRWLockExclusive?$AA@ 0000000180049bf8     libcpmt:winapisupp.obj
 0002:00001c18       ??_C@_0BI@HMIEPCNJ@ReleaseSRWLockExclusive?$AA@ 0000000180049c18     libcpmt:winapisupp.obj
 0002:00001c30       ??_C@_0BK@LGACAGIC@SleepConditionVariableSRW?$AA@ 0000000180049c30     libcpmt:winapisupp.obj
 0002:00001c50       ??_C@_0BF@GGPHFPJA@CreateThreadpoolWork?$AA@ 0000000180049c50     libcpmt:winapisupp.obj
 0002:00001c68       ??_C@_0BF@NHDAIMMO@SubmitThreadpoolWork?$AA@ 0000000180049c68     libcpmt:winapisupp.obj
 0002:00001c80       ??_C@_0BE@NPHIPNPD@CloseThreadpoolWork?$AA@ 0000000180049c80     libcpmt:winapisupp.obj
 0002:00001c98       ??_C@_0BA@IHGNDAEB@CompareStringEx?$AA@ 0000000180049c98     libcpmt:winapisupp.obj
 0002:00001ca8       ??_C@_0BA@ONOKGCMP@GetLocaleInfoEx?$AA@ 0000000180049ca8     libcpmt:winapisupp.obj
 0002:00001cb8       ??_C@_0O@KKBNKAPF@LCMapStringEx?$AA@ 0000000180049cb8     libcpmt:winapisupp.obj
 0002:00001cc8       ??_C@_11LOCGONAA@?$AA?$AA@ 0000000180049cc8     libcpmt:wlocale.obj
 0002:00001ccc       ??_C@_01JOAMLHOP@?9?$AA@   0000000180049ccc     libcpmt:wlocale.obj
 0002:00001d70       ??_C@_1M@JKFFICHJ@?$AAe?$AAs?$AA?9?$AAv?$AAe?$AA?$AA@ 0000000180049d70     libcpmt:winapinls.obj
 0002:00001d80       ??_C@_1M@PNMLOJDF@?$AAe?$AAt?$AA?9?$AAe?$AAe?$AA?$AA@ 0000000180049d80     libcpmt:winapinls.obj
 0002:00001d90       ??_C@_1M@GHHLIKEI@?$AAe?$AAu?$AA?9?$AAe?$AAs?$AA?$AA@ 0000000180049d90     libcpmt:winapinls.obj
 0002:00001da0       ??_C@_1M@PBNONODE@?$AAf?$AAa?$AA?9?$AAi?$AAr?$AA?$AA@ 0000000180049da0     libcpmt:winapinls.obj
 0002:00001db0       ??_C@_1M@JEEHPMIL@?$AAf?$AAi?$AA?9?$AAf?$AAi?$AA?$AA@ 0000000180049db0     libcpmt:winapinls.obj
 0002:00001dc0       ??_C@_1M@LMDCNDBA@?$AAf?$AAo?$AA?9?$AAf?$AAo?$AA?$AA@ 0000000180049dc0     libcpmt:winapinls.obj
 0002:00001dd0       ??_C@_1M@JKEOHLDK@?$AAf?$AAr?$AA?9?$AAb?$AAe?$AA?$AA@ 0000000180049dd0     libcpmt:winapinls.obj
 0002:00001de0       ??_C@_1M@NOHADPMI@?$AAf?$AAr?$AA?9?$AAc?$AAa?$AA?$AA@ 0000000180049de0     libcpmt:winapinls.obj
 0002:00001df0       ??_C@_1M@KDHIHAEC@?$AAf?$AAr?$AA?9?$AAc?$AAh?$AA?$AA@ 0000000180049df0     libcpmt:winapinls.obj
 0002:00001e00       ??_C@_1M@MMBBFGAK@?$AAf?$AAr?$AA?9?$AAf?$AAr?$AA?$AA@ 0000000180049e00     libcpmt:winapinls.obj
 0002:00001e10       ??_C@_1M@PAFNENNF@?$AAf?$AAr?$AA?9?$AAl?$AAu?$AA?$AA@ 0000000180049e10     libcpmt:winapinls.obj
 0002:00001e20       ??_C@_1M@EOHDJGDD@?$AAf?$AAr?$AA?9?$AAm?$AAc?$AA?$AA@ 0000000180049e20     libcpmt:winapinls.obj
 0002:00001e30       ??_C@_1M@FAPLLOPF@?$AAg?$AAl?$AA?9?$AAe?$AAs?$AA?$AA@ 0000000180049e30     libcpmt:winapinls.obj
 0002:00001e40       ??_C@_1M@FOPBFLOO@?$AAg?$AAu?$AA?9?$AAi?$AAn?$AA?$AA@ 0000000180049e40     libcpmt:winapinls.obj
 0002:00001e50       ??_C@_1M@KBMCINPM@?$AAh?$AAe?$AA?9?$AAi?$AAl?$AA?$AA@ 0000000180049e50     libcpmt:winapinls.obj
 0002:00001e60       ??_C@_1M@BBPHKFPJ@?$AAh?$AAi?$AA?9?$AAi?$AAn?$AA?$AA@ 0000000180049e60     libcpmt:winapinls.obj
 0002:00001e70       ??_C@_1M@PMBNDPHD@?$AAh?$AAr?$AA?9?$AAb?$AAa?$AA?$AA@ 0000000180049e70     libcpmt:winapinls.obj
 0002:00001e80       ??_C@_1M@BPCKOEGE@?$AAh?$AAr?$AA?9?$AAh?$AAr?$AA?$AA@ 0000000180049e80     libcpmt:winapinls.obj
 0002:00001e90       ??_C@_1M@GACBMHKE@?$AAh?$AAu?$AA?9?$AAh?$AAu?$AA?$AA@ 0000000180049e90     libcpmt:winapinls.obj
 0002:00001ea0       ??_C@_1M@MILPAJJC@?$AAh?$AAy?$AA?9?$AAa?$AAm?$AA?$AA@ 0000000180049ea0     libcpmt:winapinls.obj
 0002:00001eb0       ??_C@_1M@BABBICEC@?$AAi?$AAd?$AA?9?$AAi?$AAd?$AA?$AA@ 0000000180049eb0     libcpmt:winapinls.obj
 0002:00001ec0       ??_C@_1M@BIKNHHPF@?$AAi?$AAs?$AA?9?$AAi?$AAs?$AA?$AA@ 0000000180049ec0     libcpmt:winapinls.obj
 0002:00001ed0       ??_C@_1M@NMPCJPHE@?$AAi?$AAt?$AA?9?$AAc?$AAh?$AA?$AA@ 0000000180049ed0     libcpmt:winapinls.obj
 0002:00001ee0       ??_C@_1M@GHKGFEDF@?$AAi?$AAt?$AA?9?$AAi?$AAt?$AA?$AA@ 0000000180049ee0     libcpmt:winapinls.obj
 0002:00001ef0       ??_C@_1M@NIEJCJJA@?$AAj?$AAa?$AA?9?$AAj?$AAp?$AA?$AA@ 0000000180049ef0     libcpmt:winapinls.obj
 0002:00001f00       ??_C@_1M@JILFNBIM@?$AAk?$AAa?$AA?9?$AAg?$AAe?$AA?$AA@ 0000000180049f00     libcpmt:winapinls.obj
 0002:00001f10       ??_C@_1M@PACPMGPH@?$AAk?$AAk?$AA?9?$AAk?$AAz?$AA?$AA@ 0000000180049f10     libcpmt:winapinls.obj
 0002:00001f20       ??_C@_1M@IELFGMHA@?$AAk?$AAn?$AA?9?$AAi?$AAn?$AA?$AA@ 0000000180049f20     libcpmt:winapinls.obj
 0002:00001f30       ??_C@_1M@DMHAEOGC@?$AAk?$AAo?$AA?9?$AAk?$AAr?$AA?$AA@ 0000000180049f30     libcpmt:winapinls.obj
 0002:00001f40       ??_C@_1O@IBBJHCH@?$AAk?$AAo?$AAk?$AA?9?$AAi?$AAn?$AA?$AA@ 0000000180049f40     libcpmt:winapinls.obj
 0002:00001f50       ??_C@_1M@HBAHBIGA@?$AAk?$AAy?$AA?9?$AAk?$AAg?$AA?$AA@ 0000000180049f50     libcpmt:winapinls.obj
 0002:00001f60       ??_C@_1M@KPMILCJG@?$AAl?$AAt?$AA?9?$AAl?$AAt?$AA?$AA@ 0000000180049f60     libcpmt:winapinls.obj
 0002:00001f70       ??_C@_1M@BDEKKCA@?$AAl?$AAv?$AA?9?$AAl?$AAv?$AA?$AA@ 0000000180049f70     libcpmt:winapinls.obj
 0002:00001f80       ??_C@_1M@ELCKCCJJ@?$AAm?$AAi?$AA?9?$AAn?$AAz?$AA?$AA@ 0000000180049f80     libcpmt:winapinls.obj
 0002:00001f90       ??_C@_1M@CBOOLAPA@?$AAm?$AAk?$AA?9?$AAm?$AAk?$AA?$AA@ 0000000180049f90     libcpmt:winapinls.obj
 0002:00001fa0       ??_C@_1M@GPHNBJKN@?$AAm?$AAl?$AA?9?$AAi?$AAn?$AA?$AA@ 0000000180049fa0     libcpmt:winapinls.obj
 0002:00001fb0       ??_C@_1M@PABJILIG@?$AAm?$AAn?$AA?9?$AAm?$AAn?$AA?$AA@ 0000000180049fb0     libcpmt:winapinls.obj
 0002:00001fc0       ??_C@_1M@FGBKKIPG@?$AAm?$AAr?$AA?9?$AAi?$AAn?$AA?$AA@ 0000000180049fc0     libcpmt:winapinls.obj
 0002:00001fd0       ??_C@_1M@NDBPDDAL@?$AAm?$AAs?$AA?9?$AAb?$AAn?$AA?$AA@ 0000000180049fd0     libcpmt:winapinls.obj
 0002:00001fe0       ??_C@_1M@OPIHOOPI@?$AAm?$AAs?$AA?9?$AAm?$AAy?$AA?$AA@ 0000000180049fe0     libcpmt:winapinls.obj
 0002:00001ff0       ??_C@_1M@PPDBCNFM@?$AAm?$AAt?$AA?9?$AAm?$AAt?$AA?$AA@ 0000000180049ff0     libcpmt:winapinls.obj
 0002:00002000       ??_C@_1M@KDJDKMDD@?$AAn?$AAb?$AA?9?$AAn?$AAo?$AA?$AA@ 000000018004a000     libcpmt:winapinls.obj
 0002:00002010       ??_C@_1M@KFCFLMJP@?$AAn?$AAl?$AA?9?$AAb?$AAe?$AA?$AA@ 000000018004a010     libcpmt:winapinls.obj
 0002:00002020       ??_C@_1M@KPOPDDGO@?$AAn?$AAl?$AA?9?$AAn?$AAl?$AA?$AA@ 000000018004a020     libcpmt:winapinls.obj
 0002:00002030       ??_C@_1M@LJKPEMLN@?$AAn?$AAn?$AA?9?$AAn?$AAo?$AA?$AA@ 000000018004a030     libcpmt:winapinls.obj
 0002:00002040       ??_C@_1M@BDGHHBFL@?$AAn?$AAs?$AA?9?$AAz?$AAa?$AA?$AA@ 000000018004a040     libcpmt:winapinls.obj
 0002:00002050       ??_C@_1M@IDEHOAP@?$AAp?$AAa?$AA?9?$AAi?$AAn?$AA?$AA@ 000000018004a050     libcpmt:winapinls.obj
 0002:00002060       ??_C@_1M@HDBKGOGH@?$AAp?$AAl?$AA?9?$AAp?$AAl?$AA?$AA@ 000000018004a060     libcpmt:winapinls.obj
 0002:00002070       ??_C@_1M@LJLLCMEH@?$AAp?$AAt?$AA?9?$AAb?$AAr?$AA?$AA@ 000000018004a070     libcpmt:winapinls.obj
 0002:00002080       ??_C@_1M@NCMONAAL@?$AAp?$AAt?$AA?9?$AAp?$AAt?$AA?$AA@ 000000018004a080     libcpmt:winapinls.obj
 0002:00002090       ??_C@_1O@EAKMAJDN@?$AAq?$AAu?$AAz?$AA?9?$AAb?$AAo?$AA?$AA@ 000000018004a090     libcpmt:winapinls.obj
 0002:000020a0       ??_C@_1O@BHHPIGDN@?$AAq?$AAu?$AAz?$AA?9?$AAe?$AAc?$AA?$AA@ 000000018004a0a0     libcpmt:winapinls.obj
 0002:000020b0       ??_C@_1O@GBAPEKMJ@?$AAq?$AAu?$AAz?$AA?9?$AAp?$AAe?$AA?$AA@ 000000018004a0b0     libcpmt:winapinls.obj
 0002:000020c0       ??_C@_1M@CLGLEFBO@?$AAr?$AAo?$AA?9?$AAr?$AAo?$AA?$AA@ 000000018004a0c0     libcpmt:winapinls.obj
 0002:000020d0       ??_C@_1M@CEEDODME@?$AAr?$AAu?$AA?9?$AAr?$AAu?$AA?$AA@ 000000018004a0d0     libcpmt:winapinls.obj
 0002:000020e0       ??_C@_1M@HPKKKMPP@?$AAs?$AAa?$AA?9?$AAi?$AAn?$AA?$AA@ 000000018004a0e0     libcpmt:winapinls.obj
 0002:000020f0       ??_C@_1M@BKMAIGOJ@?$AAs?$AAe?$AA?9?$AAf?$AAi?$AA?$AA@ 000000018004a0f0     libcpmt:winapinls.obj
 0002:00002100       ??_C@_1M@NDPIFLFI@?$AAs?$AAe?$AA?9?$AAn?$AAo?$AA?$AA@ 000000018004a100     libcpmt:winapinls.obj
 0002:00002110       ??_C@_1M@DANKKHJ@?$AAs?$AAe?$AA?9?$AAs?$AAe?$AA?$AA@ 000000018004a110     libcpmt:winapinls.obj
 0002:00002120       ??_C@_1M@PNBLONPJ@?$AAs?$AAk?$AA?9?$AAs?$AAk?$AA?$AA@ 000000018004a120     libcpmt:winapinls.obj
 0002:00002130       ??_C@_1M@LFMODOAL@?$AAs?$AAl?$AA?9?$AAs?$AAi?$AA?$AA@ 000000018004a130     libcpmt:winapinls.obj
 0002:00002140       ??_C@_1O@DFKOMPG@?$AAs?$AAm?$AAa?$AA?9?$AAn?$AAo?$AA?$AA@ 000000018004a140     libcpmt:winapinls.obj
 0002:00002150       ??_C@_1O@NDKPBNNH@?$AAs?$AAm?$AAa?$AA?9?$AAs?$AAe?$AA?$AA@ 000000018004a150     libcpmt:winapinls.obj
 0002:00002160       ??_C@_1O@PLLKBHAB@?$AAs?$AAm?$AAj?$AA?9?$AAn?$AAo?$AA?$AA@ 000000018004a160     libcpmt:winapinls.obj
 0002:00002170       ??_C@_1O@CLEPOGCA@?$AAs?$AAm?$AAj?$AA?9?$AAs?$AAe?$AA?$AA@ 000000018004a170     libcpmt:winapinls.obj
 0002:00002180       ??_C@_1O@DLGJGKMK@?$AAs?$AAm?$AAn?$AA?9?$AAf?$AAi?$AA?$AA@ 000000018004a180     libcpmt:winapinls.obj
 0002:00002190       ??_C@_1O@OJDJGAJC@?$AAs?$AAm?$AAs?$AA?9?$AAf?$AAi?$AA?$AA@ 000000018004a190     libcpmt:winapinls.obj
 0002:000021a0       ??_C@_1M@BOFOGHPB@?$AAs?$AAq?$AA?9?$AAa?$AAl?$AA?$AA@ 000000018004a1a0     libcpmt:winapinls.obj
 0002:000021b0       ??_C@_1BG@LJBBIPGB@?$AAs?$AAr?$AA?9?$AAb?$AAa?$AA?9?$AAc?$AAy?$AAr?$AAl?$AA?$AA@ 000000018004a1b0     libcpmt:winapinls.obj
 0002:000021c8       ??_C@_1BG@JLBENFOE@?$AAs?$AAr?$AA?9?$AAb?$AAa?$AA?9?$AAl?$AAa?$AAt?$AAn?$AA?$AA@ 000000018004a1c8     libcpmt:winapinls.obj
 0002:000021e0       ??_C@_1BG@KODPNHE@?$AAs?$AAr?$AA?9?$AAs?$AAp?$AA?9?$AAc?$AAy?$AAr?$AAl?$AA?$AA@ 000000018004a1e0     libcpmt:winapinls.obj
 0002:000021f8       ??_C@_1BG@CIOGKHPB@?$AAs?$AAr?$AA?9?$AAs?$AAp?$AA?9?$AAl?$AAa?$AAt?$AAn?$AA?$AA@ 000000018004a1f8     libcpmt:winapinls.obj
 0002:00002210       ??_C@_1M@NGFJLMAC@?$AAs?$AAv?$AA?9?$AAf?$AAi?$AA?$AA@ 000000018004a210     libcpmt:winapinls.obj
 0002:00002220       ??_C@_1M@MPJEJAJC@?$AAs?$AAv?$AA?9?$AAs?$AAe?$AA?$AA@ 000000018004a220     libcpmt:winapinls.obj
 0002:00002230       ??_C@_1M@MPNDHLFK@?$AAs?$AAw?$AA?9?$AAk?$AAe?$AA?$AA@ 000000018004a230     libcpmt:winapinls.obj
 0002:00002240       ??_C@_1O@KOHBJJI@?$AAs?$AAy?$AAr?$AA?9?$AAs?$AAy?$AA?$AA@ 000000018004a240     libcpmt:winapinls.obj
 0002:00002250       ??_C@_1M@LDCEFHA@?$AAt?$AAa?$AA?9?$AAi?$AAn?$AA?$AA@ 000000018004a250     libcpmt:winapinls.obj
 0002:00002260       ??_C@_1M@CNJOFAK@?$AAt?$AAe?$AA?9?$AAi?$AAn?$AA?$AA@ 000000018004a260     libcpmt:winapinls.obj
 0002:00002270       ??_C@_1M@GNAECACD@?$AAt?$AAh?$AA?9?$AAt?$AAh?$AA?$AA@ 000000018004a270     libcpmt:winapinls.obj
 0002:00002280       ??_C@_1M@CHBIHOJO@?$AAt?$AAn?$AA?9?$AAz?$AAa?$AA?$AA@ 000000018004a280     libcpmt:winapinls.obj
 0002:00002290       ??_C@_1M@GCCMIGPJ@?$AAt?$AAr?$AA?9?$AAt?$AAr?$AA?$AA@ 000000018004a290     libcpmt:winapinls.obj
 0002:000022a0       ??_C@_1M@CELMCNBK@?$AAt?$AAt?$AA?9?$AAr?$AAu?$AA?$AA@ 000000018004a2a0     libcpmt:winapinls.obj
 0002:000022b0       ??_C@_1M@KLMCELGA@?$AAu?$AAk?$AA?9?$AAu?$AAa?$AA?$AA@ 000000018004a2b0     libcpmt:winapinls.obj
 0002:000022c0       ??_C@_1M@EPAJJAJF@?$AAu?$AAr?$AA?9?$AAp?$AAk?$AA?$AA@ 000000018004a2c0     libcpmt:winapinls.obj
 0002:000022d0       ??_C@_1BG@GEGPMCDJ@?$AAu?$AAz?$AA?9?$AAu?$AAz?$AA?9?$AAc?$AAy?$AAr?$AAl?$AA?$AA@ 000000018004a2d0     libcpmt:winapinls.obj
 0002:000022e8       ??_C@_1BG@EGGKJILM@?$AAu?$AAz?$AA?9?$AAu?$AAz?$AA?9?$AAl?$AAa?$AAt?$AAn?$AA?$AA@ 000000018004a2e8     libcpmt:winapinls.obj
 0002:00002300       ??_C@_1M@GFOCLFF@?$AAv?$AAi?$AA?9?$AAv?$AAn?$AA?$AA@ 000000018004a300     libcpmt:winapinls.obj
 0002:00002310       ??_C@_1M@CPAMEDFI@?$AAx?$AAh?$AA?9?$AAz?$AAa?$AA?$AA@ 000000018004a310     libcpmt:winapinls.obj
 0002:00002320       ??_C@_1O@EBKIFIGN@?$AAz?$AAh?$AA?9?$AAc?$AAh?$AAs?$AA?$AA@ 000000018004a320     libcpmt:winapinls.obj
 0002:00002330       ??_C@_1O@NMHPGANE@?$AAz?$AAh?$AA?9?$AAc?$AAh?$AAt?$AA?$AA@ 000000018004a330     libcpmt:winapinls.obj
 0002:00002340       ??_C@_1M@LPINJOMC@?$AAz?$AAh?$AA?9?$AAc?$AAn?$AA?$AA@ 000000018004a340     libcpmt:winapinls.obj
 0002:00002350       ??_C@_1M@OCJEJODD@?$AAz?$AAh?$AA?9?$AAh?$AAk?$AA?$AA@ 000000018004a350     libcpmt:winapinls.obj
 0002:00002360       ??_C@_1M@DNDLJINH@?$AAz?$AAh?$AA?9?$AAm?$AAo?$AA?$AA@ 000000018004a360     libcpmt:winapinls.obj
 0002:00002370       ??_C@_1M@MBFDNDND@?$AAz?$AAh?$AA?9?$AAs?$AAg?$AA?$AA@ 000000018004a370     libcpmt:winapinls.obj
 0002:00002380       ??_C@_1M@IMEPLEPE@?$AAz?$AAh?$AA?9?$AAt?$AAw?$AA?$AA@ 000000018004a380     libcpmt:winapinls.obj
 0002:00002390       ??_C@_1M@BBGHNHJP@?$AAz?$AAu?$AA?9?$AAz?$AAa?$AA?$AA@ 000000018004a390     libcpmt:winapinls.obj
 0002:00004020       ??_C@_15EMKDOKLE@?$AAa?$AAr?$AA?$AA@ 000000018004c020     libcpmt:winapinls.obj
 0002:00004028       ??_C@_15KNPADPLH@?$AAb?$AAg?$AA?$AA@ 000000018004c028     libcpmt:winapinls.obj
 0002:00004030       ??_C@_15EDMHLDMO@?$AAc?$AAa?$AA?$AA@ 000000018004c030     libcpmt:winapinls.obj
 0002:00004038       ??_C@_1O@BPEAJADD@?$AAz?$AAh?$AA?9?$AAC?$AAH?$AAS?$AA?$AA@ 000000018004c038     libcpmt:winapinls.obj
 0002:00004048       ??_C@_15LJNHCMNK@?$AAc?$AAs?$AA?$AA@ 000000018004c048     libcpmt:winapinls.obj
 0002:00004050       ??_C@_15FOMCIDHG@?$AAd?$AAa?$AA?$AA@ 000000018004c050     libcpmt:winapinls.obj
 0002:00004058       ??_C@_15NBKABECB@?$AAd?$AAe?$AA?$AA@ 000000018004c058     libcpmt:winapinls.obj
 0002:00004060       ??_C@_15GHPEIIAO@?$AAe?$AAl?$AA?$AA@ 000000018004c060     libcpmt:winapinls.obj
 0002:00004068       ??_C@_15MNPNEAIF@?$AAe?$AAn?$AA?$AA@ 000000018004c068     libcpmt:winapinls.obj
 0002:00004070       ??_C@_15GPIOMPMH@?$AAe?$AAs?$AA?$AA@ 000000018004c070     libcpmt:winapinls.obj
 0002:00004078       ??_C@_15NGLOAKJC@?$AAf?$AAi?$AA?$AA@ 000000018004c078     libcpmt:winapinls.obj
 0002:00004080       ??_C@_15FBKGNKAM@?$AAf?$AAr?$AA?$AA@ 000000018004c080     libcpmt:winapinls.obj
 0002:00004088       ??_C@_15KGGCNEFK@?$AAh?$AAe?$AA?$AA@ 000000018004c088     libcpmt:winapinls.obj
 0002:00004090       ??_C@_15PGHLIDMF@?$AAh?$AAu?$AA?$AA@ 000000018004c090     libcpmt:winapinls.obj
 0002:00004098       ??_C@_15BIEMAPLM@?$AAi?$AAs?$AA?$AA@ 000000018004c098     libcpmt:winapinls.obj
 0002:000040a0       ??_C@_15IFJLDHAF@?$AAi?$AAt?$AA?$AA@ 000000018004c0a0     libcpmt:winapinls.obj
 0002:000040a8       ??_C@_15GEMIOCAG@?$AAj?$AAa?$AA?$AA@ 000000018004c0a8     libcpmt:winapinls.obj
 0002:000040b0       ??_C@_15EPELEGJA@?$AAk?$AAo?$AA?$AA@ 000000018004c0b0     libcpmt:winapinls.obj
 0002:000040b8       ??_C@_15NDDHIMN@?$AAn?$AAl?$AA?$AA@ 000000018004c0b8     libcpmt:winapinls.obj
 0002:000040c0       ??_C@_15BPIGNHCD@?$AAn?$AAo?$AA?$AA@ 000000018004c0c0     libcpmt:winapinls.obj
 0002:000040c8       ??_C@_15DEOPBLCG@?$AAp?$AAl?$AA?$AA@ 000000018004c0c8     libcpmt:winapinls.obj
 0002:000040d0       ??_C@_15KBECGEFG@?$AAp?$AAt?$AA?$AA@ 000000018004c0d0     libcpmt:winapinls.obj
 0002:000040d8       ??_C@_15GLJCBFMD@?$AAr?$AAo?$AA?$AA@ 000000018004c0d8     libcpmt:winapinls.obj
 0002:000040e0       ??_C@_15FEDGKCDI@?$AAr?$AAu?$AA?$AA@ 000000018004c0e0     libcpmt:winapinls.obj
 0002:000040e8       ??_C@_15GLKMLLHM@?$AAh?$AAr?$AA?$AA@ 000000018004c0e8     libcpmt:winapinls.obj
 0002:000040f0       ??_C@_15CPKMFBDB@?$AAs?$AAk?$AA?$AA@ 000000018004c0f0     libcpmt:winapinls.obj
 0002:000040f8       ??_C@_15BAAIOGMK@?$AAs?$AAq?$AA?$AA@ 000000018004c0f8     libcpmt:winapinls.obj
 0002:00004100       ??_C@_15INNPNOHD@?$AAs?$AAv?$AA?$AA@ 000000018004c100     libcpmt:winapinls.obj
 0002:00004108       ??_C@_15CABMMOGH@?$AAt?$AAh?$AA?$AA@ 000000018004c108     libcpmt:winapinls.obj
 0002:00004110       ??_C@_15BPLIHJJM@?$AAt?$AAr?$AA?$AA@ 000000018004c110     libcpmt:winapinls.obj
 0002:00004118       ??_C@_15NEOEKKDJ@?$AAu?$AAr?$AA?$AA@ 000000018004c118     libcpmt:winapinls.obj
 0002:00004120       ??_C@_15NFICGAJK@?$AAi?$AAd?$AA?$AA@ 000000018004c120     libcpmt:winapinls.obj
 0002:00004128       ??_C@_15PJPFLCCM@?$AAu?$AAk?$AA?$AA@ 000000018004c128     libcpmt:winapinls.obj
 0002:00004130       ??_C@_15HPJPHDM@?$AAb?$AAe?$AA?$AA@ 000000018004c130     libcpmt:winapinls.obj
 0002:00004138       ??_C@_15LCHLGJII@?$AAs?$AAl?$AA?$AA@ 000000018004c138     libcpmt:winapinls.obj
 0002:00004140       ??_C@_15PCFJPHHO@?$AAe?$AAt?$AA?$AA@ 000000018004c140     libcpmt:winapinls.obj
 0002:00004148       ??_C@_15HPFPGODN@?$AAl?$AAv?$AA?$AA@ 000000018004c148     libcpmt:winapinls.obj
 0002:00004150       ??_C@_15NFFGKGLG@?$AAl?$AAt?$AA?$AA@ 000000018004c150     libcpmt:winapinls.obj
 0002:00004158       ??_C@_15BDAKCCHN@?$AAf?$AAa?$AA?$AA@ 000000018004c158     libcpmt:winapinls.obj
 0002:00004160       ??_C@_15NFGIAIAJ@?$AAv?$AAi?$AA?$AA@ 000000018004c160     libcpmt:winapinls.obj
 0002:00004168       ??_C@_15LMKNDMHN@?$AAh?$AAy?$AA?$AA@ 000000018004c168     libcpmt:winapinls.obj
 0002:00004170       ??_C@_15IJBHMCFL@?$AAa?$AAz?$AA?$AA@ 000000018004c170     libcpmt:winapinls.obj
 0002:00004178       ??_C@_15EKOFJABL@?$AAe?$AAu?$AA?$AA@ 000000018004c178     libcpmt:winapinls.obj
 0002:00004180       ??_C@_15BGHADCNK@?$AAm?$AAk?$AA?$AA@ 000000018004c180     libcpmt:winapinls.obj
 0002:00004188       ??_C@_15JDNICKHM@?$AAa?$AAf?$AA?$AA@ 000000018004c188     libcpmt:winapinls.obj
 0002:00004190       ??_C@_15KPJEDBKD@?$AAk?$AAa?$AA?$AA@ 000000018004c190     libcpmt:winapinls.obj
 0002:00004198       ??_C@_15PDNFFFEO@?$AAf?$AAo?$AA?$AA@ 000000018004c198     libcpmt:winapinls.obj
 0002:000041a0       ??_C@_15OMLEGLOC@?$AAh?$AAi?$AA?$AA@ 000000018004c1a0     libcpmt:winapinls.obj
 0002:000041a8       ??_C@_15IDNNENKK@?$AAm?$AAs?$AA?$AA@ 000000018004c1a8     libcpmt:winapinls.obj
 0002:000041b0       ??_C@_15MACJNBMH@?$AAk?$AAk?$AA?$AA@ 000000018004c1b0     libcpmt:winapinls.obj
 0002:000041b8       ??_C@_15DKDJEOND@?$AAk?$AAy?$AA?$AA@ 000000018004c1b8     libcpmt:winapinls.obj
 0002:000041c0       ??_C@_15DFGDLJBG@?$AAs?$AAw?$AA?$AA@ 000000018004c1c0     libcpmt:winapinls.obj
 0002:000041c8       ??_C@_15BBFAICNG@?$AAu?$AAz?$AA?$AA@ 000000018004c1c8     libcpmt:winapinls.obj
 0002:000041d0       ??_C@_15DKNDCGEA@?$AAt?$AAt?$AA?$AA@ 000000018004c1d0     libcpmt:winapinls.obj
 0002:000041d8       ??_C@_15MGIFMDPL@?$AAp?$AAa?$AA?$AA@ 000000018004c1d8     libcpmt:winapinls.obj
 0002:000041e0       ??_C@_15HCNDBBA@?$AAg?$AAu?$AA?$AA@ 000000018004c1e0     libcpmt:winapinls.obj
 0002:000041e8       ??_C@_15FNBEIBON@?$AAt?$AAa?$AA?$AA@ 000000018004c1e8     libcpmt:winapinls.obj
 0002:000041f0       ??_C@_15NCHGBGLK@?$AAt?$AAe?$AA?$AA@ 000000018004c1f0     libcpmt:winapinls.obj
 0002:000041f8       ??_C@_15PHPHCBPF@?$AAk?$AAn?$AA?$AA@ 000000018004c1f8     libcpmt:winapinls.obj
 0002:00004200       ??_C@_15DLGBCKMP@?$AAm?$AAr?$AA?$AA@ 000000018004c200     libcpmt:winapinls.obj
 0002:00004208       ??_C@_15EABBLBFF@?$AAs?$AAa?$AA?$AA@ 000000018004c208     libcpmt:winapinls.obj
 0002:00004210       ??_C@_15CBKOMCOI@?$AAm?$AAn?$AA?$AA@ 000000018004c210     libcpmt:winapinls.obj
 0002:00004218       ??_C@_15CKDMCJAF@?$AAg?$AAl?$AA?$AA@ 000000018004c218     libcpmt:winapinls.obj
 0002:00004220       ??_C@_17CNJFBPG@?$AAk?$AAo?$AAk?$AA?$AA@ 000000018004c220     libcpmt:winapinls.obj
 0002:00004228       ??_C@_17FFBJICPL@?$AAs?$AAy?$AAr?$AA?$AA@ 000000018004c228     libcpmt:winapinls.obj
 0002:00004230       ??_C@_17KPNDCPAF@?$AAd?$AAi?$AAv?$AA?$AA@ 000000018004c230     libcpmt:winapinls.obj
 0002:00004238       ??_C@_1M@OKAHONE@?$AAa?$AAr?$AA?9?$AAS?$AAA?$AA?$AA@ 000000018004c238     libcpmt:winapinls.obj
 0002:00004248       ??_C@_1M@FFFIGIGK@?$AAb?$AAg?$AA?9?$AAB?$AAG?$AA?$AA@ 000000018004c248     libcpmt:winapinls.obj
 0002:00004258       ??_C@_1M@BJNKEDC@?$AAc?$AAa?$AA?9?$AAE?$AAS?$AA?$AA@ 000000018004c258     libcpmt:winapinls.obj
 0002:00004268       ??_C@_1M@CLNBBOPM@?$AAz?$AAh?$AA?9?$AAT?$AAW?$AA?$AA@ 000000018004c268     libcpmt:winapinls.obj
 0002:00004278       ??_C@_1M@IJJHFJHA@?$AAc?$AAs?$AA?9?$AAC?$AAZ?$AA?$AA@ 000000018004c278     libcpmt:winapinls.obj
 0002:00004288       ??_C@_1M@CLPEOBGI@?$AAd?$AAa?$AA?9?$AAD?$AAK?$AA?$AA@ 000000018004c288     libcpmt:winapinls.obj
 0002:00004298       ??_C@_1M@MCMADGCB@?$AAd?$AAe?$AA?9?$AAD?$AAE?$AA?$AA@ 000000018004c298     libcpmt:winapinls.obj
 0002:000042a8       ??_C@_1M@OOCKEMAM@?$AAe?$AAl?$AA?9?$AAG?$AAR?$AA?$AA@ 000000018004c2a8     libcpmt:winapinls.obj
 0002:000042b8       ??_C@_1M@BMHNFIME@?$AAe?$AAn?$AA?9?$AAU?$AAS?$AA?$AA@ 000000018004c2b8     libcpmt:winapinls.obj
 0002:000042c8       ??_C@_1M@DDNJFGID@?$AAf?$AAi?$AA?9?$AAF?$AAI?$AA?$AA@ 000000018004c2c8     libcpmt:winapinls.obj
 0002:000042d8       ??_C@_1M@GLIPPMAC@?$AAf?$AAr?$AA?9?$AAF?$AAR?$AA?$AA@ 000000018004c2d8     libcpmt:winapinls.obj
 0002:000042e8       ??_C@_1M@GFMCHPE@?$AAh?$AAe?$AA?9?$AAI?$AAL?$AA?$AA@ 000000018004c2e8     libcpmt:winapinls.obj
 0002:000042f8       ??_C@_1M@MHLPGNKM@?$AAh?$AAu?$AA?9?$AAH?$AAU?$AA?$AA@ 000000018004c2f8     libcpmt:winapinls.obj
 0002:00004308       ??_C@_1M@LPDDNNPN@?$AAi?$AAs?$AA?9?$AAI?$AAS?$AA?$AA@ 000000018004c308     libcpmt:winapinls.obj
 0002:00004318       ??_C@_1M@MADIPODN@?$AAi?$AAt?$AA?9?$AAI?$AAT?$AA?$AA@ 000000018004c318     libcpmt:winapinls.obj
 0002:00004328       ??_C@_1M@HPNHIDJI@?$AAj?$AAa?$AA?9?$AAJ?$AAP?$AA?$AA@ 000000018004c328     libcpmt:winapinls.obj
 0002:00004338       ??_C@_1M@JLOOOEGK@?$AAk?$AAo?$AA?9?$AAK?$AAR?$AA?$AA@ 000000018004c338     libcpmt:winapinls.obj
 0002:00004348       ??_C@_1M@IHBJJGG@?$AAn?$AAl?$AA?9?$AAN?$AAL?$AA?$AA@ 000000018004c348     libcpmt:winapinls.obj
 0002:00004358       ??_C@_1M@EANAGDL@?$AAn?$AAb?$AA?9?$AAN?$AAO?$AA?$AA@ 000000018004c358     libcpmt:winapinls.obj
 0002:00004368       ??_C@_1M@NEIEMEGP@?$AAp?$AAl?$AA?9?$AAP?$AAL?$AA?$AA@ 000000018004c368     libcpmt:winapinls.obj
 0002:00004378       ??_C@_1M@BOCFIGEP@?$AAp?$AAt?$AA?9?$AAB?$AAR?$AA?$AA@ 000000018004c378     libcpmt:winapinls.obj
 0002:00004388       ??_C@_1M@IMPFOPBG@?$AAr?$AAo?$AA?9?$AAR?$AAO?$AA?$AA@ 000000018004c388     libcpmt:winapinls.obj
 0002:00004398       ??_C@_1M@IDNNEJMM@?$AAr?$AAu?$AA?9?$AAR?$AAU?$AA?$AA@ 000000018004c398     libcpmt:winapinls.obj
 0002:000043a8       ??_C@_1M@LILEEOGM@?$AAh?$AAr?$AA?9?$AAH?$AAR?$AA?$AA@ 000000018004c3a8     libcpmt:winapinls.obj
 0002:000043b8       ??_C@_1M@FKIFEHPB@?$AAs?$AAk?$AA?9?$AAS?$AAK?$AA?$AA@ 000000018004c3b8     libcpmt:winapinls.obj
 0002:000043c8       ??_C@_1M@LJMAMNPJ@?$AAs?$AAq?$AA?9?$AAA?$AAL?$AA?$AA@ 000000018004c3c8     libcpmt:winapinls.obj
 0002:000043d8       ??_C@_1M@GIAKDKJK@?$AAs?$AAv?$AA?9?$AAS?$AAE?$AA?$AA@ 000000018004c3d8     libcpmt:winapinls.obj
 0002:000043e8       ??_C@_1M@MKJKIKCL@?$AAt?$AAh?$AA?9?$AAT?$AAH?$AA?$AA@ 000000018004c3e8     libcpmt:winapinls.obj
 0002:000043f8       ??_C@_1M@MFLCCMPB@?$AAt?$AAr?$AA?9?$AAT?$AAR?$AA?$AA@ 000000018004c3f8     libcpmt:winapinls.obj
 0002:00004408       ??_C@_1M@OIJHDKJN@?$AAu?$AAr?$AA?9?$AAP?$AAK?$AA?$AA@ 000000018004c408     libcpmt:winapinls.obj
 0002:00004418       ??_C@_1M@LHIPCIEK@?$AAi?$AAd?$AA?9?$AAI?$AAD?$AA?$AA@ 000000018004c418     libcpmt:winapinls.obj
 0002:00004428       ??_C@_1M@MFMOBGI@?$AAu?$AAk?$AA?9?$AAU?$AAA?$AA?$AA@ 000000018004c428     libcpmt:winapinls.obj
 0002:00004438       ??_C@_1M@OBGLJIPL@?$AAb?$AAe?$AA?9?$AAB?$AAY?$AA?$AA@ 000000018004c438     libcpmt:winapinls.obj
 0002:00004448       ??_C@_1M@BCFAJEAD@?$AAs?$AAl?$AA?9?$AAS?$AAI?$AA?$AA@ 000000018004c448     libcpmt:winapinls.obj
 0002:00004458       ??_C@_1M@FKFFEDDN@?$AAe?$AAt?$AA?9?$AAE?$AAE?$AA?$AA@ 000000018004c458     libcpmt:winapinls.obj
 0002:00004468       ??_C@_1M@KGKKAACI@?$AAl?$AAv?$AA?9?$AAL?$AAV?$AA?$AA@ 000000018004c468     libcpmt:winapinls.obj
 0002:00004478       ??_C@_1M@IFGBIJO@?$AAl?$AAt?$AA?9?$AAL?$AAT?$AA?$AA@ 000000018004c478     libcpmt:winapinls.obj
 0002:00004488       ??_C@_1M@FGEAHEDM@?$AAf?$AAa?$AA?9?$AAI?$AAR?$AA?$AA@ 000000018004c488     libcpmt:winapinls.obj
 0002:00004498       ??_C@_1M@KBMAIBFN@?$AAv?$AAi?$AA?9?$AAV?$AAN?$AA?$AA@ 000000018004c498     libcpmt:winapinls.obj
 0002:000044a8       ??_C@_1M@GPCBKDJK@?$AAh?$AAy?$AA?9?$AAA?$AAM?$AA?$AA@ 000000018004c4a8     libcpmt:winapinls.obj
 0002:000044b8       ??_C@_1BG@BECMDDJB@?$AAa?$AAz?$AA?9?$AAA?$AAZ?$AA?9?$AAL?$AAa?$AAt?$AAn?$AA?$AA@ 000000018004c4b8     libcpmt:winapinls.obj
 0002:000044d0       ??_C@_1M@MAOFCAEA@?$AAe?$AAu?$AA?9?$AAE?$AAS?$AA?$AA@ 000000018004c4d0     libcpmt:winapinls.obj
 0002:000044e0       ??_C@_1M@IGHABKPI@?$AAm?$AAk?$AA?9?$AAM?$AAK?$AA?$AA@ 000000018004c4e0     libcpmt:winapinls.obj
 0002:000044f0       ??_C@_1M@IAIGNEJG@?$AAt?$AAn?$AA?9?$AAZ?$AAA?$AA?$AA@ 000000018004c4f0     libcpmt:winapinls.obj
 0002:00004500       ??_C@_1M@IIJCOJFA@?$AAx?$AAh?$AA?9?$AAZ?$AAA?$AA?$AA@ 000000018004c500     libcpmt:winapinls.obj
 0002:00004510       ??_C@_1M@LGPJHNJH@?$AAz?$AAu?$AA?9?$AAZ?$AAA?$AA?$AA@ 000000018004c510     libcpmt:winapinls.obj
 0002:00004520       ??_C@_1M@HOKAOIO@?$AAa?$AAf?$AA?9?$AAZ?$AAA?$AA?$AA@ 000000018004c520     libcpmt:winapinls.obj
 0002:00004530       ??_C@_1M@DPCLHLIE@?$AAk?$AAa?$AA?9?$AAG?$AAE?$AA?$AA@ 000000018004c530     libcpmt:winapinls.obj
 0002:00004540       ??_C@_1M@BLKMHJBI@?$AAf?$AAo?$AA?9?$AAF?$AAO?$AA?$AA@ 000000018004c540     libcpmt:winapinls.obj
 0002:00004550       ??_C@_1M@LGGJAPPB@?$AAh?$AAi?$AA?9?$AAI?$AAN?$AA?$AA@ 000000018004c550     libcpmt:winapinls.obj
 0002:00004560       ??_C@_1M@FIKPIHFE@?$AAm?$AAt?$AA?9?$AAM?$AAT?$AA?$AA@ 000000018004c560     libcpmt:winapinls.obj
 0002:00004570       ??_C@_1M@HEGGPBFA@?$AAs?$AAe?$AA?9?$AAN?$AAO?$AA?$AA@ 000000018004c570     libcpmt:winapinls.obj
 0002:00004580       ??_C@_1M@EIBJEEPA@?$AAm?$AAs?$AA?9?$AAM?$AAY?$AA?$AA@ 000000018004c580     libcpmt:winapinls.obj
 0002:00004590       ??_C@_1M@FHLBGMPP@?$AAk?$AAk?$AA?9?$AAK?$AAZ?$AA?$AA@ 000000018004c590     libcpmt:winapinls.obj
 0002:000045a0       ??_C@_1M@NGJJLCGI@?$AAk?$AAy?$AA?9?$AAK?$AAG?$AA?$AA@ 000000018004c5a0     libcpmt:winapinls.obj
 0002:000045b0       ??_C@_1M@GIENNBFC@?$AAs?$AAw?$AA?9?$AAK?$AAE?$AA?$AA@ 000000018004c5b0     libcpmt:winapinls.obj
 0002:000045c0       ??_C@_1BG@NDGMJIMJ@?$AAu?$AAz?$AA?9?$AAU?$AAZ?$AA?9?$AAL?$AAa?$AAt?$AAn?$AA?$AA@ 000000018004c5c0     libcpmt:winapinls.obj
 0002:000045d8       ??_C@_1M@IDCCIHBC@?$AAt?$AAt?$AA?9?$AAR?$AAU?$AA?$AA@ 000000018004c5d8     libcpmt:winapinls.obj
 0002:000045e8       ??_C@_1M@LOICPMOJ@?$AAb?$AAn?$AA?9?$AAI?$AAN?$AA?$AA@ 000000018004c5e8     libcpmt:winapinls.obj
 0002:000045f8       ??_C@_1M@KPKKNEAH@?$AAp?$AAa?$AA?9?$AAI?$AAN?$AA?$AA@ 000000018004c5f8     libcpmt:winapinls.obj
 0002:00004608       ??_C@_1M@PJGPPBOG@?$AAg?$AAu?$AA?9?$AAI?$AAN?$AA?$AA@ 000000018004c608     libcpmt:winapinls.obj
 0002:00004618       ??_C@_1M@KMKMOPHI@?$AAt?$AAa?$AA?9?$AAI?$AAN?$AA?$AA@ 000000018004c618     libcpmt:winapinls.obj
 0002:00004628       ??_C@_1M@KFEHEPAC@?$AAt?$AAe?$AA?9?$AAI?$AAN?$AA?$AA@ 000000018004c628     libcpmt:winapinls.obj
 0002:00004638       ??_C@_1M@CDCLMGHI@?$AAk?$AAn?$AA?9?$AAI?$AAN?$AA?$AA@ 000000018004c638     libcpmt:winapinls.obj
 0002:00004648       ??_C@_1M@MIODLDKF@?$AAm?$AAl?$AA?9?$AAI?$AAN?$AA?$AA@ 000000018004c648     libcpmt:winapinls.obj
 0002:00004658       ??_C@_1M@PBIEACPO@?$AAm?$AAr?$AA?9?$AAI?$AAN?$AA?$AA@ 000000018004c658     libcpmt:winapinls.obj
 0002:00004668       ??_C@_1M@NIDEAGPH@?$AAs?$AAa?$AA?9?$AAI?$AAN?$AA?$AA@ 000000018004c668     libcpmt:winapinls.obj
 0002:00004678       ??_C@_1M@FHIHCBIO@?$AAm?$AAn?$AA?9?$AAM?$AAN?$AA?$AA@ 000000018004c678     libcpmt:winapinls.obj
 0002:00004688       ??_C@_1M@JAIJPENP@?$AAc?$AAy?$AA?9?$AAG?$AAB?$AA?$AA@ 000000018004c688     libcpmt:winapinls.obj
 0002:00004698       ??_C@_1M@PHGFBEPN@?$AAg?$AAl?$AA?9?$AAE?$AAS?$AA?$AA@ 000000018004c698     libcpmt:winapinls.obj
 0002:000046a8       ??_C@_1O@KPIPDNCP@?$AAk?$AAo?$AAk?$AA?9?$AAI?$AAN?$AA?$AA@ 000000018004c6a8     libcpmt:winapinls.obj
 0002:000046b8       ??_C@_1O@KNHJLDJA@?$AAs?$AAy?$AAr?$AA?9?$AAS?$AAY?$AA?$AA@ 000000018004c6b8     libcpmt:winapinls.obj
 0002:000046c8       ??_C@_1O@MKEKBLAH@?$AAd?$AAi?$AAv?$AA?9?$AAM?$AAV?$AA?$AA@ 000000018004c6c8     libcpmt:winapinls.obj
 0002:000046d8       ??_C@_1O@OHDCKDDF@?$AAq?$AAu?$AAz?$AA?9?$AAB?$AAO?$AA?$AA@ 000000018004c6d8     libcpmt:winapinls.obj
 0002:000046e8       ??_C@_1M@LEPJNLFD@?$AAn?$AAs?$AA?9?$AAZ?$AAA?$AA?$AA@ 000000018004c6e8     libcpmt:winapinls.obj
 0002:000046f8       ??_C@_1M@OMLEIIJB@?$AAm?$AAi?$AA?9?$AAN?$AAZ?$AA?$AA@ 000000018004c6f8     libcpmt:winapinls.obj
 0002:00004708       ??_C@_1M@PMPEAILG@?$AAa?$AAr?$AA?9?$AAI?$AAQ?$AA?$AA@ 000000018004c708     libcpmt:winapinls.obj
 0002:00004718       ??_C@_1M@BIBDDEMK@?$AAz?$AAh?$AA?9?$AAC?$AAN?$AA?$AA@ 000000018004c718     libcpmt:winapinls.obj
 0002:00004728       ??_C@_1M@CNKPNOEE@?$AAd?$AAe?$AA?9?$AAC?$AAH?$AA?$AA@ 000000018004c728     libcpmt:winapinls.obj
 0002:00004738       ??_C@_1M@LKMGMLKO@?$AAe?$AAn?$AA?9?$AAG?$AAB?$AA?$AA@ 000000018004c738     libcpmt:winapinls.obj
 0002:00004748       ??_C@_1M@PGKJFFGL@?$AAe?$AAs?$AA?9?$AAM?$AAX?$AA?$AA@ 000000018004c748     libcpmt:winapinls.obj
 0002:00004758       ??_C@_1M@DNNANBDC@?$AAf?$AAr?$AA?9?$AAB?$AAE?$AA?$AA@ 000000018004c758     libcpmt:winapinls.obj
 0002:00004768       ??_C@_1M@HLGMDFHM@?$AAi?$AAt?$AA?9?$AAC?$AAH?$AA?$AA@ 000000018004c768     libcpmt:winapinls.obj
 0002:00004778       ??_C@_1M@CLLBGJH@?$AAn?$AAl?$AA?9?$AAB?$AAE?$AA?$AA@ 000000018004c778     libcpmt:winapinls.obj
 0002:00004788       ??_C@_1M@BODBOGLF@?$AAn?$AAn?$AA?9?$AAN?$AAO?$AA?$AA@ 000000018004c788     libcpmt:winapinls.obj
 0002:00004798       ??_C@_1M@HFFAHKAD@?$AAp?$AAt?$AA?9?$AAP?$AAT?$AA?$AA@ 000000018004c798     libcpmt:winapinls.obj
 0002:000047a8       ??_C@_1BG@LNOAKHIE@?$AAs?$AAr?$AA?9?$AAS?$AAP?$AA?9?$AAL?$AAa?$AAt?$AAn?$AA?$AA@ 000000018004c7a8     libcpmt:winapinls.obj
 0002:000047c0       ??_C@_1M@HBMHBGAK@?$AAs?$AAv?$AA?9?$AAF?$AAI?$AA?$AA@ 000000018004c7c0     libcpmt:winapinls.obj
 0002:000047d0       ??_C@_1BG@DGCJGJBE@?$AAa?$AAz?$AA?9?$AAA?$AAZ?$AA?9?$AAC?$AAy?$AAr?$AAl?$AA?$AA@ 000000018004c7d0     libcpmt:winapinls.obj
 0002:000047e8       ??_C@_1M@KEJDAAHB@?$AAs?$AAe?$AA?9?$AAS?$AAE?$AA?$AA@ 000000018004c7e8     libcpmt:winapinls.obj
 0002:000047f8       ??_C@_1M@HEIBJJAD@?$AAm?$AAs?$AA?9?$AAB?$AAN?$AA?$AA@ 000000018004c7f8     libcpmt:winapinls.obj
 0002:00004808       ??_C@_1BG@PBGJMCEM@?$AAu?$AAz?$AA?9?$AAU?$AAZ?$AA?9?$AAC?$AAy?$AAr?$AAl?$AA?$AA@ 000000018004c808     libcpmt:winapinls.obj
 0002:00004820       ??_C@_1O@LAOBCMDF@?$AAq?$AAu?$AAz?$AA?9?$AAE?$AAC?$AA?$AA@ 000000018004c820     libcpmt:winapinls.obj
 0002:00004830       ??_C@_1M@POEEMAIO@?$AAa?$AAr?$AA?9?$AAE?$AAG?$AA?$AA@ 000000018004c830     libcpmt:winapinls.obj
 0002:00004840       ??_C@_1M@EFAKDEDL@?$AAz?$AAh?$AA?9?$AAH?$AAK?$AA?$AA@ 000000018004c840     libcpmt:winapinls.obj
 0002:00004850       ??_C@_1M@HKKIJHGI@?$AAd?$AAe?$AA?9?$AAA?$AAT?$AA?$AA@ 000000018004c850     libcpmt:winapinls.obj
 0002:00004860       ??_C@_1M@KBFBEHJF@?$AAe?$AAn?$AA?9?$AAA?$AAU?$AA?$AA@ 000000018004c860     libcpmt:winapinls.obj
 0002:00004870       ??_C@_1M@MNPLFAAH@?$AAe?$AAs?$AA?9?$AAE?$AAS?$AA?$AA@ 000000018004c870     libcpmt:winapinls.obj
 0002:00004880       ??_C@_1M@HJOOJFMA@?$AAf?$AAr?$AA?9?$AAC?$AAA?$AA?$AA@ 000000018004c880     libcpmt:winapinls.obj
 0002:00004890       ??_C@_1BG@JPOFPNAB@?$AAs?$AAr?$AA?9?$AAS?$AAP?$AA?9?$AAC?$AAy?$AAr?$AAl?$AA?$AA@ 000000018004c890     libcpmt:winapinls.obj
 0002:000048a8       ??_C@_1M@LNFOCMOB@?$AAs?$AAe?$AA?9?$AAF?$AAI?$AA?$AA@ 000000018004c8a8     libcpmt:winapinls.obj
 0002:000048b8       ??_C@_1O@MGJBOAMB@?$AAq?$AAu?$AAz?$AA?9?$AAP?$AAE?$AA?$AA@ 000000018004c8b8     libcpmt:winapinls.obj
 0002:000048c8       ??_C@_1M@GJINLBOK@?$AAa?$AAr?$AA?9?$AAL?$AAY?$AA?$AA@ 000000018004c8c8     libcpmt:winapinls.obj
 0002:000048d8       ??_C@_1M@GGMNHJNL@?$AAz?$AAh?$AA?9?$AAS?$AAG?$AA?$AA@ 000000018004c8d8     libcpmt:winapinls.obj
 0002:000048e8       ??_C@_1M@HOIKODND@?$AAd?$AAe?$AA?9?$AAL?$AAU?$AA?$AA@ 000000018004c8e8     libcpmt:winapinls.obj
 0002:000048f8       ??_C@_1M@DDOCCGFG@?$AAe?$AAn?$AA?9?$AAC?$AAA?$AA?$AA@ 000000018004c8f8     libcpmt:winapinls.obj
 0002:00004908       ??_C@_1M@BNOEMJLF@?$AAe?$AAs?$AA?9?$AAG?$AAT?$AA?$AA@ 000000018004c908     libcpmt:winapinls.obj
 0002:00004918       ??_C@_1M@EOGNKEK@?$AAf?$AAr?$AA?9?$AAC?$AAH?$AA?$AA@ 000000018004c918     libcpmt:winapinls.obj
 0002:00004928       ??_C@_1M@FLIDJFHL@?$AAh?$AAr?$AA?9?$AAB?$AAA?$AA?$AA@ 000000018004c928     libcpmt:winapinls.obj
 0002:00004938       ??_C@_1O@FMCELNAJ@?$AAs?$AAm?$AAj?$AA?9?$AAN?$AAO?$AA?$AA@ 000000018004c938     libcpmt:winapinls.obj
 0002:00004948       ??_C@_1M@JHGLJMGJ@?$AAa?$AAr?$AA?9?$AAD?$AAZ?$AA?$AA@ 000000018004c948     libcpmt:winapinls.obj
 0002:00004958       ??_C@_1M@JKKFDCNP@?$AAz?$AAh?$AA?9?$AAM?$AAO?$AA?$AA@ 000000018004c958     libcpmt:winapinls.obj
 0002:00004968       ??_C@_1M@GEEFALPE@?$AAd?$AAe?$AA?9?$AAL?$AAI?$AA?$AA@ 000000018004c968     libcpmt:winapinls.obj
 0002:00004978       ??_C@_1M@IGEOFBG@?$AAe?$AAn?$AA?9?$AAN?$AAZ?$AA?$AA@ 000000018004c978     libcpmt:winapinls.obj
 0002:00004988       ??_C@_1M@KDBONEHP@?$AAe?$AAs?$AA?9?$AAC?$AAR?$AA?$AA@ 000000018004c988     libcpmt:winapinls.obj
 0002:00004998       ??_C@_1M@FHMDOHNN@?$AAf?$AAr?$AA?9?$AAL?$AAU?$AA?$AA@ 000000018004c998     libcpmt:winapinls.obj
 0002:000049a8       ??_C@_1BG@NFKKMAFG@?$AAb?$AAs?$AA?9?$AAB?$AAA?$AA?9?$AAL?$AAa?$AAt?$AAn?$AA?$AA@ 000000018004c9a8     libcpmt:winapinls.obj
 0002:000049c0       ??_C@_1O@IMNBEMCI@?$AAs?$AAm?$AAj?$AA?9?$AAS?$AAE?$AA?$AA@ 000000018004c9c0     libcpmt:winapinls.obj
 0002:000049d0       ??_C@_1M@DHHMBNDP@?$AAa?$AAr?$AA?9?$AAM?$AAA?$AA?$AA@ 000000018004c9d0     libcpmt:winapinls.obj
 0002:000049e0       ??_C@_1M@BNBLJCGH@?$AAe?$AAn?$AA?9?$AAI?$AAE?$AA?$AA@ 000000018004c9e0     libcpmt:winapinls.obj
 0002:000049f0       ??_C@_1M@GEPAFMDL@?$AAe?$AAs?$AA?9?$AAP?$AAA?$AA?$AA@ 000000018004c9f0     libcpmt:winapinls.obj
 0002:00004a00       ??_C@_1M@OJONDMDL@?$AAf?$AAr?$AA?9?$AAM?$AAC?$AA?$AA@ 000000018004ca00     libcpmt:winapinls.obj
 0002:00004a10       ??_C@_1BG@OBCNFJB@?$AAs?$AAr?$AA?9?$AAB?$AAA?$AA?9?$AAL?$AAa?$AAt?$AAn?$AA?$AA@ 000000018004ca10     libcpmt:winapinls.obj
 0002:00004a28       ??_C@_1O@KEMEEGPO@?$AAs?$AAm?$AAa?$AA?9?$AAN?$AAO?$AA?$AA@ 000000018004ca28     libcpmt:winapinls.obj
 0002:00004a38       ??_C@_1M@ELMGFODK@?$AAa?$AAr?$AA?9?$AAT?$AAN?$AA?$AA@ 000000018004ca38     libcpmt:winapinls.obj
 0002:00004a48       ??_C@_1M@BHDLHFAF@?$AAe?$AAn?$AA?9?$AAZ?$AAA?$AA?$AA@ 000000018004ca48     libcpmt:winapinls.obj
 0002:00004a58       ??_C@_1M@BMGIGLIF@?$AAe?$AAs?$AA?9?$AAD?$AAO?$AA?$AA@ 000000018004ca58     libcpmt:winapinls.obj
 0002:00004a68       ??_C@_1BG@CMBHIPBE@?$AAs?$AAr?$AA?9?$AAB?$AAA?$AA?9?$AAC?$AAy?$AAr?$AAl?$AA?$AA@ 000000018004ca68     libcpmt:winapinls.obj
 0002:00004a80       ??_C@_1O@HEDBLHNP@?$AAs?$AAm?$AAa?$AA?9?$AAS?$AAE?$AA?$AA@ 000000018004ca80     libcpmt:winapinls.obj
 0002:00004a90       ??_C@_1M@DAGCADIM@?$AAa?$AAr?$AA?9?$AAO?$AAM?$AA?$AA@ 000000018004ca90     libcpmt:winapinls.obj
 0002:00004aa0       ??_C@_1M@FODLMICG@?$AAe?$AAn?$AA?9?$AAJ?$AAM?$AA?$AA@ 000000018004caa0     libcpmt:winapinls.obj
 0002:00004ab0       ??_C@_1M@DNMLCIHB@?$AAe?$AAs?$AA?9?$AAV?$AAE?$AA?$AA@ 000000018004cab0     libcpmt:winapinls.obj
 0002:00004ac0       ??_C@_1O@EOKHMKJK@?$AAs?$AAm?$AAs?$AA?9?$AAF?$AAI?$AA?$AA@ 000000018004cac0     libcpmt:winapinls.obj
 0002:00004ad0       ??_C@_1M@CAFJMKOF@?$AAa?$AAr?$AA?9?$AAY?$AAE?$AA?$AA@ 000000018004cad0     libcpmt:winapinls.obj
 0002:00004ae0       ??_C@_1M@CBFHIJLI@?$AAe?$AAn?$AA?9?$AAC?$AAB?$AA?$AA@ 000000018004cae0     libcpmt:winapinls.obj
 0002:00004af0       ??_C@_1M@BGNFLDN@?$AAe?$AAs?$AA?9?$AAC?$AAO?$AA?$AA@ 000000018004caf0     libcpmt:winapinls.obj
 0002:00004b00       ??_C@_1O@JMPHMAMC@?$AAs?$AAm?$AAn?$AA?9?$AAF?$AAI?$AA?$AA@ 000000018004cb00     libcpmt:winapinls.obj
 0002:00004b10       ??_C@_1M@JLANABKE@?$AAa?$AAr?$AA?9?$AAS?$AAY?$AA?$AA@ 000000018004cb10     libcpmt:winapinls.obj
 0002:00004b20       ??_C@_1M@HPKGCFGN@?$AAe?$AAn?$AA?9?$AAB?$AAZ?$AA?$AA@ 000000018004cb20     libcpmt:winapinls.obj
 0002:00004b30       ??_C@_1M@OLJCMLGM@?$AAe?$AAs?$AA?9?$AAP?$AAE?$AA?$AA@ 000000018004cb30     libcpmt:winapinls.obj
 0002:00004b40       ??_C@_1M@MKKGFKLE@?$AAa?$AAr?$AA?9?$AAJ?$AAO?$AA?$AA@ 000000018004cb40     libcpmt:winapinls.obj
 0002:00004b50       ??_C@_1M@EKPGLDNI@?$AAe?$AAn?$AA?9?$AAT?$AAT?$AA?$AA@ 000000018004cb50     libcpmt:winapinls.obj
 0002:00004b60       ??_C@_1M@OONGHFHE@?$AAe?$AAs?$AA?9?$AAA?$AAR?$AA?$AA@ 000000018004cb60     libcpmt:winapinls.obj
 0002:00004b70       ??_C@_1M@OOJFGBHE@?$AAa?$AAr?$AA?9?$AAL?$AAB?$AA?$AA@ 000000018004cb70     libcpmt:winapinls.obj
 0002:00004b80       ??_C@_1M@GCEJHNEG@?$AAe?$AAn?$AA?9?$AAZ?$AAW?$AA?$AA@ 000000018004cb80     libcpmt:winapinls.obj
 0002:00004b90       ??_C@_1M@JNOCAHJI@?$AAe?$AAs?$AA?9?$AAE?$AAC?$AA?$AA@ 000000018004cb90     libcpmt:winapinls.obj
 0002:00004ba0       ??_C@_1M@JEFHPGGB@?$AAa?$AAr?$AA?9?$AAK?$AAW?$AA?$AA@ 000000018004cba0     libcpmt:winapinls.obj
 0002:00004bb0       ??_C@_1M@MLKIBJOJ@?$AAe?$AAn?$AA?9?$AAP?$AAH?$AA?$AA@ 000000018004cbb0     libcpmt:winapinls.obj
 0002:00004bc0       ??_C@_1M@BDNIPEND@?$AAe?$AAs?$AA?9?$AAC?$AAL?$AA?$AA@ 000000018004cbc0     libcpmt:winapinls.obj
 0002:00004bd0       ??_C@_1M@MPNMEKBD@?$AAa?$AAr?$AA?9?$AAA?$AAE?$AA?$AA@ 000000018004cbd0     libcpmt:winapinls.obj
 0002:00004be0       ??_C@_1M@KBJALCPI@?$AAe?$AAs?$AA?9?$AAU?$AAY?$AA?$AA@ 000000018004cbe0     libcpmt:winapinls.obj
 0002:00004bf0       ??_C@_1M@LLCCOAGA@?$AAa?$AAr?$AA?9?$AAB?$AAH?$AA?$AA@ 000000018004cbf0     libcpmt:winapinls.obj
 0002:00004c00       ??_C@_1M@PBFNCDEL@?$AAe?$AAs?$AA?9?$AAP?$AAY?$AA?$AA@ 000000018004cc00     libcpmt:winapinls.obj
 0002:00004c10       ??_C@_1M@EDGINPNP@?$AAa?$AAr?$AA?9?$AAQ?$AAA?$AA?$AA@ 000000018004cc10     libcpmt:winapinls.obj
 0002:00004c20       ??_C@_1M@MKDBIIJI@?$AAe?$AAs?$AA?9?$AAB?$AAO?$AA?$AA@ 000000018004cc20     libcpmt:winapinls.obj
 0002:00004c30       ??_C@_1M@CPKKEBLD@?$AAe?$AAs?$AA?9?$AAS?$AAV?$AA?$AA@ 000000018004cc30     libcpmt:winapinls.obj
 0002:00004c40       ??_C@_1M@NDBGMMJL@?$AAe?$AAs?$AA?9?$AAH?$AAN?$AA?$AA@ 000000018004cc40     libcpmt:winapinls.obj
 0002:00004c50       ??_C@_1M@JIJIBHDP@?$AAe?$AAs?$AA?9?$AAN?$AAI?$AA?$AA@ 000000018004cc50     libcpmt:winapinls.obj
 0002:00004c60       ??_C@_1M@CGFMKEEK@?$AAe?$AAs?$AA?9?$AAP?$AAR?$AA?$AA@ 000000018004cc60     libcpmt:winapinls.obj
 0002:00004c70       ??_C@_1O@ICJHKIIK@?$AAz?$AAh?$AA?9?$AAC?$AAH?$AAT?$AA?$AA@ 000000018004cc70     libcpmt:winapinls.obj
 0002:00004c80       ??_C@_15CLNEJCE@?$AAs?$AAr?$AA?$AA@ 000000018004cc80     libcpmt:winapinls.obj
 0002:00004c88       ??_C@_1M@KAHEKEIG@?$AAa?$AAf?$AA?9?$AAz?$AAa?$AA?$AA@ 000000018004cc88     libcpmt:winapinls.obj
 0002:00004c98       ??_C@_1M@GIECOABL@?$AAa?$AAr?$AA?9?$AAa?$AAe?$AA?$AA@ 000000018004cc98     libcpmt:winapinls.obj
 0002:00004ca8       ??_C@_1M@BMLMEKGI@?$AAa?$AAr?$AA?9?$AAb?$AAh?$AA?$AA@ 000000018004cca8     libcpmt:winapinls.obj
 0002:00004cb8       ??_C@_1M@DAPFDGGB@?$AAa?$AAr?$AA?9?$AAd?$AAz?$AA?$AA@ 000000018004ccb8     libcpmt:winapinls.obj
 0002:00004cc8       ??_C@_1M@FJNKGKIG@?$AAa?$AAr?$AA?9?$AAe?$AAg?$AA?$AA@ 000000018004ccc8     libcpmt:winapinls.obj
 0002:00004cd8       ??_C@_1M@FLGKKCLO@?$AAa?$AAr?$AA?9?$AAi?$AAq?$AA?$AA@ 000000018004ccd8     libcpmt:winapinls.obj
 0002:00004ce8       ??_C@_1M@GNDIPALM@?$AAa?$AAr?$AA?9?$AAj?$AAo?$AA?$AA@ 000000018004cce8     libcpmt:winapinls.obj
 0002:00004cf8       ??_C@_1M@DDMJFMGJ@?$AAa?$AAr?$AA?9?$AAk?$AAw?$AA?$AA@ 000000018004ccf8     libcpmt:winapinls.obj
 0002:00004d08       ??_C@_1M@EJALMLHM@?$AAa?$AAr?$AA?9?$AAl?$AAb?$AA?$AA@ 000000018004cd08     libcpmt:winapinls.obj
 0002:00004d18       ??_C@_1M@MOBDBLOC@?$AAa?$AAr?$AA?9?$AAl?$AAy?$AA?$AA@ 000000018004cd18     libcpmt:winapinls.obj
 0002:00004d28       ??_C@_1M@JAOCLHDH@?$AAa?$AAr?$AA?9?$AAm?$AAa?$AA?$AA@ 000000018004cd28     libcpmt:winapinls.obj
 0002:00004d38       ??_C@_1M@JHPMKJIE@?$AAa?$AAr?$AA?9?$AAo?$AAm?$AA?$AA@ 000000018004cd38     libcpmt:winapinls.obj
 0002:00004d48       ??_C@_1M@OEPGHFNH@?$AAa?$AAr?$AA?9?$AAq?$AAa?$AA?$AA@ 000000018004cd48     libcpmt:winapinls.obj
 0002:00004d58       ??_C@_1M@KJDONENM@?$AAa?$AAr?$AA?9?$AAs?$AAa?$AA?$AA@ 000000018004cd58     libcpmt:winapinls.obj
 0002:00004d68       ??_C@_1M@DMJDKLKM@?$AAa?$AAr?$AA?9?$AAs?$AAy?$AA?$AA@ 000000018004cd68     libcpmt:winapinls.obj
 0002:00004d78       ??_C@_1M@OMFIPEDC@?$AAa?$AAr?$AA?9?$AAt?$AAn?$AA?$AA@ 000000018004cd78     libcpmt:winapinls.obj
 0002:00004d88       ??_C@_1M@IHMHGAON@?$AAa?$AAr?$AA?9?$AAy?$AAe?$AA?$AA@ 000000018004cd88     libcpmt:winapinls.obj
 0002:00004d98       ??_C@_1BG@KDCPGJGB@?$AAa?$AAz?$AA?9?$AAa?$AAz?$AA?9?$AAc?$AAy?$AAr?$AAl?$AA?$AA@ 000000018004cd98     libcpmt:winapinls.obj
 0002:00004db0       ??_C@_1BG@IBCKDDOE@?$AAa?$AAz?$AA?9?$AAa?$AAz?$AA?9?$AAl?$AAa?$AAt?$AAn?$AA?$AA@ 000000018004cdb0     libcpmt:winapinls.obj
 0002:00004dc8       ??_C@_1M@EGPFDCPD@?$AAb?$AAe?$AA?9?$AAb?$AAy?$AA?$AA@ 000000018004cdc8     libcpmt:winapinls.obj
 0002:00004dd8       ??_C@_1M@PCMGMCGC@?$AAb?$AAg?$AA?9?$AAb?$AAg?$AA?$AA@ 000000018004cdd8     libcpmt:winapinls.obj
 0002:00004de8       ??_C@_1M@BJBMFGOB@?$AAb?$AAn?$AA?9?$AAi?$AAn?$AA?$AA@ 000000018004cde8     libcpmt:winapinls.obj
 0002:00004df8       ??_C@_1BG@EAKMMACD@?$AAb?$AAs?$AA?9?$AAb?$AAa?$AA?9?$AAl?$AAa?$AAt?$AAn?$AA?$AA@ 000000018004cdf8     libcpmt:winapinls.obj
 0002:00004e10       ??_C@_1M@KGADAODK@?$AAc?$AAa?$AA?9?$AAe?$AAs?$AA?$AA@ 000000018004ce10     libcpmt:winapinls.obj
 0002:00004e20       ??_C@_1M@COAJPDHI@?$AAc?$AAs?$AA?9?$AAc?$AAz?$AA?$AA@ 000000018004ce20     libcpmt:winapinls.obj
 0002:00004e30       ??_C@_1M@DHBHFONH@?$AAc?$AAy?$AA?9?$AAg?$AAb?$AA?$AA@ 000000018004ce30     libcpmt:winapinls.obj
 0002:00004e40       ??_C@_1M@IMGKELGA@?$AAd?$AAa?$AA?9?$AAd?$AAk?$AA?$AA@ 000000018004ce40     libcpmt:winapinls.obj
 0002:00004e50       ??_C@_1M@NNDGDNGA@?$AAd?$AAe?$AA?9?$AAa?$AAt?$AA?$AA@ 000000018004ce50     libcpmt:winapinls.obj
 0002:00004e60       ??_C@_1M@IKDBHEEM@?$AAd?$AAe?$AA?9?$AAc?$AAh?$AA?$AA@ 000000018004ce60     libcpmt:winapinls.obj
 0002:00004e70       ??_C@_1M@GFFOJMCJ@?$AAd?$AAe?$AA?9?$AAd?$AAe?$AA?$AA@ 000000018004ce70     libcpmt:winapinls.obj
 0002:00004e80       ??_C@_1M@MDNLKBPM@?$AAd?$AAe?$AA?9?$AAl?$AAi?$AA?$AA@ 000000018004ce80     libcpmt:winapinls.obj
 0002:00004e90       ??_C@_1M@NJBEEJNL@?$AAd?$AAe?$AA?9?$AAl?$AAu?$AA?$AA@ 000000018004ce90     libcpmt:winapinls.obj
 0002:00004ea0       ??_C@_1O@GNNELBAP@?$AAd?$AAi?$AAv?$AA?9?$AAm?$AAv?$AA?$AA@ 000000018004cea0     libcpmt:winapinls.obj
 0002:00004eb0       ??_C@_1M@EJLEOGAE@?$AAe?$AAl?$AA?9?$AAg?$AAr?$AA?$AA@ 000000018004ceb0     libcpmt:winapinls.obj
 0002:00004ec0       ??_C@_1M@GMPONJN@?$AAe?$AAn?$AA?9?$AAa?$AAu?$AA?$AA@ 000000018004cec0     libcpmt:winapinls.obj
 0002:00004ed0       ??_C@_1M@NIDIIPGF@?$AAe?$AAn?$AA?9?$AAb?$AAz?$AA?$AA@ 000000018004ced0     libcpmt:winapinls.obj
 0002:00004ee0       ??_C@_1M@JEHMIMFO@?$AAe?$AAn?$AA?9?$AAc?$AAa?$AA?$AA@ 000000018004cee0     libcpmt:winapinls.obj
 0002:00004ef0       ??_C@_1M@IGMJCDLA@?$AAe?$AAn?$AA?9?$AAc?$AAb?$AA?$AA@ 000000018004cef0     libcpmt:winapinls.obj
 0002:00004f00       ??_C@_1M@BNFIGBKG@?$AAe?$AAn?$AA?9?$AAg?$AAb?$AA?$AA@ 000000018004cf00     libcpmt:winapinls.obj
 0002:00004f10       ??_C@_1M@LKIFDIGP@?$AAe?$AAn?$AA?9?$AAi?$AAe?$AA?$AA@ 000000018004cf10     libcpmt:winapinls.obj
 0002:00004f20       ??_C@_1M@PJKFGCCO@?$AAe?$AAn?$AA?9?$AAj?$AAm?$AA?$AA@ 000000018004cf20     libcpmt:winapinls.obj
 0002:00004f30       ??_C@_1M@KPPKEPBO@?$AAe?$AAn?$AA?9?$AAn?$AAz?$AA?$AA@ 000000018004cf30     libcpmt:winapinls.obj
 0002:00004f40       ??_C@_1M@GMDGLDOB@?$AAe?$AAn?$AA?9?$AAp?$AAh?$AA?$AA@ 000000018004cf40     libcpmt:winapinls.obj
 0002:00004f50       ??_C@_1M@ONGIBJNA@?$AAe?$AAn?$AA?9?$AAt?$AAt?$AA?$AA@ 000000018004cf50     libcpmt:winapinls.obj
 0002:00004f60       ??_C@_1M@LLODPCMM@?$AAe?$AAn?$AA?9?$AAu?$AAs?$AA?$AA@ 000000018004cf60     libcpmt:winapinls.obj
 0002:00004f70       ??_C@_1M@LAKFNPAN@?$AAe?$AAn?$AA?9?$AAz?$AAa?$AA?$AA@ 000000018004cf70     libcpmt:winapinls.obj
 0002:00004f80       ??_C@_1M@MFNHNHEO@?$AAe?$AAn?$AA?9?$AAz?$AAw?$AA?$AA@ 000000018004cf80     libcpmt:winapinls.obj
 0002:00004f90       ??_C@_1M@EJEINPHM@?$AAe?$AAs?$AA?9?$AAa?$AAr?$AA?$AA@ 000000018004cf90     libcpmt:winapinls.obj
 0002:00004fa0       ??_C@_1M@GNKPCCJA@?$AAe?$AAs?$AA?9?$AAb?$AAo?$AA?$AA@ 000000018004cfa0     libcpmt:winapinls.obj
 0002:00004fb0       ??_C@_1M@LEEGFONL@?$AAe?$AAs?$AA?9?$AAc?$AAl?$AA?$AA@ 000000018004cfb0     libcpmt:winapinls.obj
 0002:00004fc0       ??_C@_1M@KGPDPBDF@?$AAe?$AAs?$AA?9?$AAc?$AAo?$AA?$AA@ 000000018004cfc0     libcpmt:winapinls.obj
 0002:00004fd0       ??_C@_1M@EIAHOHH@?$AAe?$AAs?$AA?9?$AAc?$AAr?$AA?$AA@ 000000018004cfd0     libcpmt:winapinls.obj
 0002:00004fe0       ??_C@_1M@LLPGMBIN@?$AAe?$AAs?$AA?9?$AAd?$AAo?$AA?$AA@ 000000018004cfe0     libcpmt:winapinls.obj
 0002:00004ff0       ??_C@_1M@DKHMKNJA@?$AAe?$AAs?$AA?9?$AAe?$AAc?$AA?$AA@ 000000018004cff0     libcpmt:winapinls.obj
 0002:00005000       ??_C@_1M@GKGFPKAP@?$AAe?$AAs?$AA?9?$AAe?$AAs?$AA?$AA@ 000000018004d000     libcpmt:winapinls.obj
 0002:00005010       ??_C@_1M@LKHKGDLN@?$AAe?$AAs?$AA?9?$AAg?$AAt?$AA?$AA@ 000000018004d010     libcpmt:winapinls.obj
 0002:00005020       ??_C@_1M@HEIIGGJD@?$AAe?$AAs?$AA?9?$AAh?$AAn?$AA?$AA@ 000000018004d020     libcpmt:winapinls.obj
 0002:00005030       ??_C@_1M@FBDHPPGD@?$AAe?$AAs?$AA?9?$AAm?$AAx?$AA?$AA@ 000000018004d030     libcpmt:winapinls.obj
 0002:00005040       ??_C@_1M@DPAGLNDH@?$AAe?$AAs?$AA?9?$AAn?$AAi?$AA?$AA@ 000000018004d040     libcpmt:winapinls.obj
 0002:00005050       ??_C@_1M@MDGOPGDD@?$AAe?$AAs?$AA?9?$AAp?$AAa?$AA?$AA@ 000000018004d050     libcpmt:winapinls.obj
 0002:00005060       ??_C@_1M@EMAMGBGE@?$AAe?$AAs?$AA?9?$AAp?$AAe?$AA?$AA@ 000000018004d060     libcpmt:winapinls.obj
 0002:00005070       ??_C@_1M@IBMCAOEC@?$AAe?$AAs?$AA?9?$AAp?$AAr?$AA?$AA@ 000000018004d070     libcpmt:winapinls.obj
 0002:00005080       ??_C@_1M@FGMDIJED@?$AAe?$AAs?$AA?9?$AAp?$AAy?$AA?$AA@ 000000018004d080     libcpmt:winapinls.obj
 0002:00005090       ??_C@_1M@IIDEOLLL@?$AAe?$AAs?$AA?9?$AAs?$AAv?$AA?$AA@ 000000018004d090     libcpmt:winapinls.obj
 0002:000050a0       ??_C@_1M@GAOBIPA@?$AAe?$AAs?$AA?9?$AAu?$AAy?$AA?$AA@ 000000018004d0a0     libcpmt:winapinls.obj
 0002:000050b0       _pDefaultRawDllMain        000000018004d0b0     LIBCMT:dll_dllmain.obj
 0002:000050b0       _pRawDllMain               000000018004d0b0     LIBCMT:dll_dllmain.obj
 0002:000050c0       ??_7type_info@@6B@         000000018004d0c0     LIBCMT:std_type_info_static.obj
 0002:000050e0       ??_7bad_array_new_length@std@@6B@ 000000018004d0e0     LIBCMT:throw_bad_alloc.obj
 0002:000050f0       ??_C@_0BF@KINCDENJ@bad?5array?5new?5length?$AA@ 000000018004d0f0     LIBCMT:throw_bad_alloc.obj
 0002:00005108       _pDestructExceptionObject  000000018004d108     libvcruntime:frame.obj
 0002:00005118       ??_7bad_exception@std@@6B@ 000000018004d118     libvcruntime:frame.obj
 0002:00005128       ??_C@_0O@DPKOEFFH@bad?5exception?$AA@ 000000018004d128     libvcruntime:frame.obj
 0002:00005238       ??_C@_1BC@DNHGCMLG@?$AAa?$AAd?$AAv?$AAa?$AAp?$AAi?$AA3?$AA2?$AA?$AA@ 000000018004d238     libvcruntime:winapi_downlevel.obj
 0002:00005250       ??_C@_1DM@KHCHBNEB@?$AAa?$AAp?$AAi?$AA?9?$AAm?$AAs?$AA?9?$AAw?$AAi?$AAn?$AA?9?$AAc?$AAo?$AAr?$AAe?$AA?9?$AAf?$AAi?$AAb?$AAe?$AAr?$AAs?$AA?9?$AAl?$AA1?$AA?9?$AA1?$AA?9?$AA1?$AA?$AA@ 000000018004d250     libvcruntime:winapi_downlevel.obj
 0002:00005290       ??_C@_1DK@LPPGFMPP@?$AAa?$AAp?$AAi?$AA?9?$AAm?$AAs?$AA?9?$AAw?$AAi?$AAn?$AA?9?$AAc?$AAo?$AAr?$AAe?$AA?9?$AAs?$AAy?$AAn?$AAc?$AAh?$AA?9?$AAl?$AA1?$AA?9?$AA2?$AA?9?$AA0?$AA?$AA@ 000000018004d290     libvcruntime:winapi_downlevel.obj
 0002:000052d0       ??_C@_1BC@GDMECMAK@?$AAk?$AAe?$AAr?$AAn?$AAe?$AAl?$AA3?$AA2?$AA?$AA@ 000000018004d2d0     libvcruntime:winapi_downlevel.obj
 0002:00005630       ??_C@_08EHJDFFNH@__based?$CI?$AA@ 000000018004d630     libvcruntime:undname.obj
 0002:00005640       ??_C@_07KOLFKCDI@__cdecl?$AA@ 000000018004d640     libvcruntime:undname.obj
 0002:00005648       ??_C@_08GHMPAG@__pascal?$AA@ 000000018004d648     libvcruntime:undname.obj
 0002:00005658       ??_C@_09IFJBGAPI@__stdcall?$AA@ 000000018004d658     libvcruntime:undname.obj
 0002:00005668       ??_C@_0L@NPHFGOKO@__thiscall?$AA@ 000000018004d668     libvcruntime:undname.obj
 0002:00005678       ??_C@_0L@JMKHOMEK@__fastcall?$AA@ 000000018004d678     libvcruntime:undname.obj
 0002:00005688       ??_C@_0N@BCKKPABJ@__vectorcall?$AA@ 000000018004d688     libvcruntime:undname.obj
 0002:00005698       ??_C@_09HIJEGCPM@__clrcall?$AA@ 000000018004d698     libvcruntime:undname.obj
 0002:000056a4       ??_C@_06GHPCKEAG@__eabi?$AA@ 000000018004d6a4     libvcruntime:undname.obj
 0002:000056b0       ??_C@_07JOMMBBKO@__ptr64?$AA@ 000000018004d6b0     libvcruntime:undname.obj
 0002:000056b8       ??_C@_0L@PILCLIHE@__restrict?$AA@ 000000018004d6b8     libvcruntime:undname.obj
 0002:000056c8       ??_C@_0M@GFIIJFMG@__unaligned?$AA@ 000000018004d6c8     libvcruntime:undname.obj
 0002:000056d8       ??_C@_09DHDLOLLB@restrict?$CI?$AA@ 000000018004d6d8     libvcruntime:undname.obj
 0002:000056e4       ??_C@_04NIHEBCM@?5new?$AA@ 000000018004d6e4     libvcruntime:undname.obj
 0002:000056f0       ??_C@_07FPCDHGMM@?5delete?$AA@ 000000018004d6f0     libvcruntime:undname.obj
 0002:000056f8       ??_C@_01NEMOKFLO@?$DN?$AA@ 000000018004d6f8     libvcruntime:undname.obj
 0002:000056fc       ??_C@_02GPIOPFAK@?$DO?$DO?$AA@ 000000018004d6fc     libvcruntime:undname.obj
 0002:00005700       ??_C@_02FODMEDOG@?$DM?$DM?$AA@ 000000018004d700     libvcruntime:undname.obj
 0002:00005704       ??_C@_01DCLJPIOD@?$CB?$AA@ 000000018004d704     libvcruntime:undname.obj
 0002:00005708       ??_C@_02EGOFBIJA@?$DN?$DN?$AA@ 000000018004d708     libvcruntime:undname.obj
 0002:0000570c       ??_C@_02FDNJECIE@?$CB?$DN?$AA@ 000000018004d70c     libvcruntime:undname.obj
 0002:00005710       ??_C@_02GPECMEKF@?$FL?$FN?$AA@ 000000018004d710     libvcruntime:undname.obj
 0002:00005718       ??_C@_08LHJFAFGD@operator?$AA@ 000000018004d718     libvcruntime:undname.obj
 0002:00005724       ??_C@_02HBOOOICD@?9?$DO?$AA@ 000000018004d724     libvcruntime:undname.obj
 0002:00005728       ??_C@_02ECNGHCIF@?$CL?$CL?$AA@ 000000018004d728     libvcruntime:undname.obj
 0002:0000572c       ??_C@_02BAABKJLB@?9?9?$AA@ 000000018004d72c     libvcruntime:undname.obj
 0002:00005730       ??_C@_01MIFGBAGJ@?$CL?$AA@ 000000018004d730     libvcruntime:undname.obj
 0002:00005734       ??_C@_01HNPIGOCE@?$CG?$AA@ 000000018004d734     libvcruntime:undname.obj
 0002:00005738       ??_C@_03MNHNFDLC@?9?$DO?$CK?$AA@ 000000018004d738     libvcruntime:undname.obj
 0002:0000573c       ??_C@_01KMDKNFGN@?1?$AA@   000000018004d73c     libvcruntime:undname.obj
 0002:00005740       ??_C@_01FGNFDNOH@?$CF?$AA@ 000000018004d740     libvcruntime:undname.obj
 0002:00005744       ??_C@_01MNNFJEPP@?$DM?$AA@ 000000018004d744     libvcruntime:undname.obj
 0002:00005748       ??_C@_02EHCHHCKH@?$DM?$DN?$AA@ 000000018004d748     libvcruntime:undname.obj
 0002:0000574c       ??_C@_01PPODPGHN@?$DO?$AA@ 000000018004d74c     libvcruntime:undname.obj
 0002:00005750       ??_C@_02EEKDKGMJ@?$DO?$DN?$AA@ 000000018004d750     libvcruntime:undname.obj
 0002:00005754       ??_C@_01IHBHIGKO@?0?$AA@   000000018004d754     libvcruntime:undname.obj
 0002:00005758       ??_C@_02HCKGKOFO@?$CI?$CJ?$AA@ 000000018004d758     libvcruntime:undname.obj
 0002:0000575c       ??_C@_01PJKLJHI@?$HO?$AA@  000000018004d75c     libvcruntime:undname.obj
 0002:00005760       ??_C@_01JKBOJNNK@?$FO?$AA@ 000000018004d760     libvcruntime:undname.obj
 0002:00005764       ??_C@_01DNKMNLPK@?$HM?$AA@ 000000018004d764     libvcruntime:undname.obj
 0002:00005768       ??_C@_02PPKAJPJL@?$CG?$CG?$AA@ 000000018004d768     libvcruntime:undname.obj
 0002:0000576c       ??_C@_02NONPIBCD@?$HM?$HM?$AA@ 000000018004d76c     libvcruntime:undname.obj
 0002:00005770       ??_C@_02FPIMKNGF@?$CK?$DN?$AA@ 000000018004d770     libvcruntime:undname.obj
 0002:00005774       ??_C@_02FOEOMHFC@?$CL?$DN?$AA@ 000000018004d774     libvcruntime:undname.obj
 0002:00005778       ??_C@_02FKMDLLOA@?9?$DN?$AA@ 000000018004d778     libvcruntime:undname.obj
 0002:0000577c       ??_C@_02FJEHGPIO@?1?$DN?$AA@ 000000018004d77c     libvcruntime:undname.obj
 0002:00005780       ??_C@_02FENAOKFI@?$CF?$DN?$AA@ 000000018004d780     libvcruntime:undname.obj
 0002:00005784       ??_C@_03IKFCCPFF@?$DO?$DO?$DN?$AA@ 000000018004d784     libvcruntime:undname.obj
 0002:00005788       ??_C@_03CDNPDDLA@?$DM?$DM?$DN?$AA@ 000000018004d788     libvcruntime:undname.obj
 0002:0000578c       ??_C@_02FGJGFEAB@?$CG?$DN?$AA@ 000000018004d78c     libvcruntime:undname.obj
 0002:00005790       ??_C@_02DHLNPPGH@?$HM?$DN?$AA@ 000000018004d790     libvcruntime:undname.obj
 0002:00005794       ??_C@_02MHEGNOJ@?$FO?$DN?$AA@ 000000018004d794     libvcruntime:undname.obj
 0002:00005798       ??_C@_09IFPLHPGF@?$GAvftable?8?$AA@ 000000018004d798     libvcruntime:undname.obj
 0002:000057a8       ??_C@_09BLBHBJP@?$GAvbtable?8?$AA@ 000000018004d7a8     libvcruntime:undname.obj
 0002:000057b8       ??_C@_07FEEIOKP@?$GAvcall?8?$AA@ 000000018004d7b8     libvcruntime:undname.obj
 0002:000057c0       ??_C@_08LLFFHHDJ@?$GAtypeof?8?$AA@ 000000018004d7c0     libvcruntime:undname.obj
 0002:000057d0       ??_C@_0BF@KDPPACIK@?$GAlocal?5static?5guard?8?$AA@ 000000018004d7d0     libvcruntime:undname.obj
 0002:000057e8       ??_C@_08OBABFOLI@?$GAstring?8?$AA@ 000000018004d7e8     libvcruntime:undname.obj
 0002:000057f8       ??_C@_0BD@JDLKDPAB@?$GAvbase?5destructor?8?$AA@ 000000018004d7f8     libvcruntime:undname.obj
 0002:00005810       ??_C@_0BN@DEGPLNFK@?$GAvector?5deleting?5destructor?8?$AA@ 000000018004d810     libvcruntime:undname.obj
 0002:00005830       ??_C@_0BO@OBMKPJIG@?$GAdefault?5constructor?5closure?8?$AA@ 000000018004d830     libvcruntime:undname.obj
 0002:00005850       ??_C@_0BN@IMDCHIKM@?$GAscalar?5deleting?5destructor?8?$AA@ 000000018004d850     libvcruntime:undname.obj
 0002:00005870       ??_C@_0BO@PFGOCPJJ@?$GAvector?5constructor?5iterator?8?$AA@ 000000018004d870     libvcruntime:undname.obj
 0002:00005890       ??_C@_0BN@LFPFMEDL@?$GAvector?5destructor?5iterator?8?$AA@ 000000018004d890     libvcruntime:undname.obj
 0002:000058b0       ??_C@_0CE@IKBNEHA@?$GAvector?5vbase?5constructor?5iterat@ 000000018004d8b0     libvcruntime:undname.obj
 0002:000058d8       ??_C@_0BL@NILFHHPC@?$GAvirtual?5displacement?5map?8?$AA@ 000000018004d8d8     libvcruntime:undname.obj
 0002:000058f8       ??_C@_0CB@JONCMFFK@?$GAeh?5vector?5constructor?5iterator?8@ 000000018004d8f8     libvcruntime:undname.obj
 0002:00005920       ??_C@_0CA@GCEOPDGL@?$GAeh?5vector?5destructor?5iterator?8?$AA@ 000000018004d920     libvcruntime:undname.obj
 0002:00005940       ??_C@_0CH@OOJPLCPH@?$GAeh?5vector?5vbase?5constructor?5ite@ 000000018004d940     libvcruntime:undname.obj
 0002:00005968       ??_C@_0BL@LLKPOHJI@?$GAcopy?5constructor?5closure?8?$AA@ 000000018004d968     libvcruntime:undname.obj
 0002:00005988       ??_C@_0BA@KBCDOMBN@?$GAudt?5returning?8?$AA@ 000000018004d988     libvcruntime:undname.obj
 0002:00005998       ??_C@_03KLGMFNMG@?$GAEH?$AA@ 000000018004d998     libvcruntime:undname.obj
 0002:0000599c       ??_C@_05KHLCHHI@?$GARTTI?$AA@ 000000018004d99c     libvcruntime:undname.obj
 0002:000059a8       ??_C@_0BA@KKLDJDLB@?$GAlocal?5vftable?8?$AA@ 000000018004d9a8     libvcruntime:undname.obj
 0002:000059b8       ??_C@_0CE@IIHCMGGL@?$GAlocal?5vftable?5constructor?5closu@ 000000018004d9b8     libvcruntime:undname.obj
 0002:000059dc       ??_C@_06FHBGPFGH@?5new?$FL?$FN?$AA@ 000000018004d9dc     libvcruntime:undname.obj
 0002:000059e8       ??_C@_09LBNFPBCA@?5delete?$FL?$FN?$AA@ 000000018004d9e8     libvcruntime:undname.obj
 0002:000059f8       ??_C@_0P@HJKNJFNN@?$GAomni?5callsig?8?$AA@ 000000018004d9f8     libvcruntime:undname.obj
 0002:00005a08       ??_C@_0BL@CNOONJFP@?$GAplacement?5delete?5closure?8?$AA@ 000000018004da08     libvcruntime:undname.obj
 0002:00005a28       ??_C@_0BN@CKNJLHMB@?$GAplacement?5delete?$FL?$FN?5closure?8?$AA@ 000000018004da28     libvcruntime:undname.obj
 0002:00005a48       ??_C@_0CG@CFDHKGGD@?$GAmanaged?5vector?5constructor?5iter@ 000000018004da48     libvcruntime:undname.obj
 0002:00005a70       ??_C@_0CF@IMGKMJNO@?$GAmanaged?5vector?5destructor?5itera@ 000000018004da70     libvcruntime:undname.obj
 0002:00005a98       ??_C@_0CG@HLDDJMAG@?$GAeh?5vector?5copy?5constructor?5iter@ 000000018004da98     libvcruntime:undname.obj
 0002:00005ac0       ??_C@_0CM@FCBBDIGB@?$GAeh?5vector?5vbase?5copy?5constructo@ 000000018004dac0     libvcruntime:undname.obj
 0002:00005af0       ??_C@_0BL@CLIPGLGB@?$GAdynamic?5initializer?5for?5?8?$AA@ 000000018004daf0     libvcruntime:undname.obj
 0002:00005b10       ??_C@_0CB@PDBIFEP@?$GAdynamic?5atexit?5destructor?5for?5?8@ 000000018004db10     libvcruntime:undname.obj
 0002:00005b38       ??_C@_0CD@CGAJBKEJ@?$GAvector?5copy?5constructor?5iterato@ 000000018004db38     libvcruntime:undname.obj
 0002:00005b60       ??_C@_0CJ@GJELGAMM@?$GAvector?5vbase?5copy?5constructor?5i@ 000000018004db60     libvcruntime:undname.obj
 0002:00005b90       ??_C@_0CL@FGIJHLCE@?$GAmanaged?5vector?5copy?5constructor@ 000000018004db90     libvcruntime:undname.obj
 0002:00005bc0       ??_C@_0BM@PMGGMLDN@?$GAlocal?5static?5thread?5guard?8?$AA@ 000000018004dbc0     libvcruntime:undname.obj
 0002:00005be0       ??_C@_0N@BDNMDMOL@operator?5?$CC?$CC?5?$AA@ 000000018004dbe0     libvcruntime:undname.obj
 0002:00005bf0       ??_C@_0BC@DAFEJGAK@?5Type?5Descriptor?8?$AA@ 000000018004dbf0     libvcruntime:undname.obj
 0002:00005c08       ??_C@_0BM@LDKODKLH@?5Base?5Class?5Descriptor?5at?5?$CI?$AA@ 000000018004dc08     libvcruntime:undname.obj
 0002:00005c28       ??_C@_0BD@LGICGFMM@?5Base?5Class?5Array?8?$AA@ 000000018004dc28     libvcruntime:undname.obj
 0002:00005c40       ??_C@_0BN@MECKDCOJ@?5Class?5Hierarchy?5Descriptor?8?$AA@ 000000018004dc40     libvcruntime:undname.obj
 0002:00005c60       ??_C@_0BK@CFCOFLF@?5Complete?5Object?5Locator?8?$AA@ 000000018004dc60     libvcruntime:undname.obj
 0002:00005c80       ??_C@_1EK@MBDPDCGA@?$AAM?$AAi?$AAc?$AAr?$AAo?$AAs?$AAo?$AAf?$AAt?$AA?5?$AAV?$AAi?$AAs?$AAu?$AAa?$AAl?$AA?5?$AAC?$AA?$CL?$AA?$CL?$AA?5?$AAR?$AAu?$AAn?$AAt?$AAi?$AAm?$AAe?$AA?5?$AAL?$AAi?$AAb@ 000000018004dc80     libucrt:assert.obj
 0002:00005cd0       ??_C@_1FE@LHBLIKM@?$AAA?$AAs?$AAs?$AAe?$AAr?$AAt?$AAi?$AAo?$AAn?$AA?5?$AAf?$AAa?$AAi?$AAl?$AAe?$AAd?$AA?3?$AA?5?$AA?$CF?$AAT?$AAs?$AA?0?$AA?5?$AAf?$AAi?$AAl?$AAe?$AA?5?$AA?$CF?$AAT?$AAs?$AA?0@ 000000018004dcd0     libucrt:assert.obj
 0002:00005d28       ??_C@_1CE@OJBNHDMO@?$AAA?$AAs?$AAs?$AAe?$AAr?$AAt?$AAi?$AAo?$AAn?$AA?5?$AAf?$AAa?$AAi?$AAl?$AAe?$AAd?$AA?$CB?$AA?$AA@ 000000018004dd28     libucrt:assert.obj
 0002:00005d50       ??_C@_1BE@PHKBBGE@?$AAP?$AAr?$AAo?$AAg?$AAr?$AAa?$AAm?$AA?3?$AA?5?$AA?$AA@ 000000018004dd50     libucrt:assert.obj
 0002:00005d68       ??_C@_1O@HEMHKNDC@?$AAF?$AAi?$AAl?$AAe?$AA?3?$AA?5?$AA?$AA@ 000000018004dd68     libucrt:assert.obj
 0002:00005d78       ??_C@_1O@KCAFKHJE@?$AAL?$AAi?$AAn?$AAe?$AA?3?$AA?5?$AA?$AA@ 000000018004dd78     libucrt:assert.obj
 0002:00005d88       ??_C@_1BK@PEDCIPMA@?$AAE?$AAx?$AAp?$AAr?$AAe?$AAs?$AAs?$AAi?$AAo?$AAn?$AA?3?$AA?5?$AA?$AA@ 000000018004dd88     libucrt:assert.obj
 0002:00005db0       ??_C@_1OA@EGMLFBHJ@?$AAF?$AAo?$AAr?$AA?5?$AAi?$AAn?$AAf?$AAo?$AAr?$AAm?$AAa?$AAt?$AAi?$AAo?$AAn?$AA?5?$AAo?$AAn?$AA?5?$AAh?$AAo?$AAw?$AA?5?$AAy?$AAo?$AAu?$AAr?$AA?5?$AAp?$AAr?$AAo?$AAg@ 000000018004ddb0     libucrt:assert.obj
 0002:00005e90       ??_C@_1HK@POCJMFGK@?$AA?$CI?$AAP?$AAr?$AAe?$AAs?$AAs?$AA?5?$AAR?$AAe?$AAt?$AAr?$AAy?$AA?5?$AAt?$AAo?$AA?5?$AAd?$AAe?$AAb?$AAu?$AAg?$AA?5?$AAt?$AAh?$AAe?$AA?5?$AAa?$AAp?$AAp?$AAl?$AAi?$AAc@ 000000018004de90     libucrt:assert.obj
 0002:00005f10       ??_C@_17LGKOMLJ@?$AA?4?$AA?4?$AA?4?$AA?$AA@ 000000018004df10     libucrt:assert.obj
 0002:00005f18       ??_C@_13LBAGMAIH@?$AA?6?$AA?$AA@ 000000018004df18     libucrt:assert.obj
 0002:00005f1c       ??_C@_15IABLJNFO@?$AA?6?$AA?6?$AA?$AA@ 000000018004df1c     libucrt:assert.obj
 0002:00005f28       ??_C@_1CO@EAEJAADC@?$AA?$DM?$AAp?$AAr?$AAo?$AAg?$AAr?$AAa?$AAm?$AA?5?$AAn?$AAa?$AAm?$AAe?$AA?5?$AAu?$AAn?$AAk?$AAn?$AAo?$AAw?$AAn?$AA?$DO?$AA?$AA@ 000000018004df28     libucrt:assert.obj
 0002:00005f60       standard_lookup_table      000000018004df60     libucrt:output.obj
 0002:00005fbc       ??_C@_06OJHGLDPL@?$CInull?$CJ?$AA@ 000000018004dfbc     libucrt:output.obj
 0002:00005fc8       ??_C@_1O@CEDCILHN@?$AA?$CI?$AAn?$AAu?$AAl?$AAl?$AA?$CJ?$AA?$AA@ 000000018004dfc8     libucrt:output.obj
 0002:00005fd8       ??_C@_1BI@BGOHAHKC@?$AAm?$AAs?$AAc?$AAo?$AAr?$AAe?$AAe?$AA?4?$AAd?$AAl?$AAl?$AA?$AA@ 000000018004dfd8     libucrt:exit.obj
 0002:00005ff0       ??_C@_0P@MIGLKIOC@CorExitProcess?$AA@ 000000018004dff0     libucrt:exit.obj
 0002:00006170       __newctype                 000000018004e170     libucrt:ctype.obj
 0002:00006470       __newclmap                 000000018004e470     libucrt:ctype.obj
 0002:000065f0       __newcumap                 000000018004e5f0     libucrt:ctype.obj
 0002:00006770       _wctype                    000000018004e770     libucrt:ctype.obj
 0002:00006980       ?large_power_data@?1??multiply_by_power_of_ten@__crt_strtox@@YA_NAEAUbig_integer@2@I@Z@4QBIB 000000018004e980     libucrt:strtod.obj
 0002:00007290       ?large_power_indices@?1??multiply_by_power_of_ten@__crt_strtox@@YA_NAEAUbig_integer@2@I@Z@4QBUunpack_index@?1??12@YA_N0I@Z@B 000000018004f290     libucrt:strtod.obj
 0002:00007328       ?small_powers_of_ten@?6??multiply_by_power_of_ten@__crt_strtox@@YA_NAEAUbig_integer@2@I@Z@4QBIB 000000018004f328     libucrt:strtod.obj
 0002:00009000       __acrt_exception_action_table 0000000180051000     libucrt:exception_filter.obj
 0002:000090c0       __acrt_signal_action_table_count 00000001800510c0     libucrt:exception_filter.obj
 0002:000090c8       __acrt_signal_action_first_fpe_index 00000001800510c8     libucrt:exception_filter.obj
 0002:000090d0       __acrt_signal_action_fpe_count 00000001800510d0     libucrt:exception_filter.obj
 0002:00009270       ??_C@_1EG@CNNIPFIM@?$AAa?$AAp?$AAi?$AA?9?$AAm?$AAs?$AA?9?$AAw?$AAi?$AAn?$AA?9?$AAa?$AAp?$AAp?$AAm?$AAo?$AAd?$AAe?$AAl?$AA?9?$AAr?$AAu?$AAn?$AAt?$AAi?$AAm?$AAe?$AA?9?$AAl?$AA1?$AA?9?$AA1@ 0000000180051270     libucrt:winapi_thunks.obj
 0002:000092c0       ??_C@_1EA@JGEFHKEI@?$AAa?$AAp?$AAi?$AA?9?$AAm?$AAs?$AA?9?$AAw?$AAi?$AAn?$AA?9?$AAc?$AAo?$AAr?$AAe?$AA?9?$AAd?$AAa?$AAt?$AAe?$AAt?$AAi?$AAm?$AAe?$AA?9?$AAl?$AA1?$AA?9?$AA1?$AA?9?$AA1?$AA?$AA@ 00000001800512c0     libucrt:winapi_thunks.obj
 0002:00009300       ??_C@_1DI@GCIAAENM@?$AAa?$AAp?$AAi?$AA?9?$AAm?$AAs?$AA?9?$AAw?$AAi?$AAn?$AA?9?$AAc?$AAo?$AAr?$AAe?$AA?9?$AAf?$AAi?$AAl?$AAe?$AA?9?$AAl?$AA2?$AA?9?$AA1?$AA?9?$AA1?$AA?$AA@ 0000000180051300     libucrt:winapi_thunks.obj
 0002:00009340       ??_C@_1EI@MPIAOHOC@?$AAa?$AAp?$AAi?$AA?9?$AAm?$AAs?$AA?9?$AAw?$AAi?$AAn?$AA?9?$AAc?$AAo?$AAr?$AAe?$AA?9?$AAl?$AAo?$AAc?$AAa?$AAl?$AAi?$AAz?$AAa?$AAt?$AAi?$AAo?$AAn?$AA?9?$AAl?$AA1?$AA?9@ 0000000180051340     libucrt:winapi_thunks.obj
 0002:00009390       ??_C@_1FK@FPHCKFIE@?$AAa?$AAp?$AAi?$AA?9?$AAm?$AAs?$AA?9?$AAw?$AAi?$AAn?$AA?9?$AAc?$AAo?$AAr?$AAe?$AA?9?$AAl?$AAo?$AAc?$AAa?$AAl?$AAi?$AAz?$AAa?$AAt?$AAi?$AAo?$AAn?$AA?9?$AAo?$AAb?$AAs@ 0000000180051390     libucrt:winapi_thunks.obj
 0002:000093f0       ??_C@_1EM@DILCGIIO@?$AAa?$AAp?$AAi?$AA?9?$AAm?$AAs?$AA?9?$AAw?$AAi?$AAn?$AA?9?$AAc?$AAo?$AAr?$AAe?$AA?9?$AAp?$AAr?$AAo?$AAc?$AAe?$AAs?$AAs?$AAt?$AAh?$AAr?$AAe?$AAa?$AAd?$AAs?$AA?9?$AAl@ 00000001800513f0     libucrt:winapi_thunks.obj
 0002:00009440       ??_C@_1DM@LNCGDDPN@?$AAa?$AAp?$AAi?$AA?9?$AAm?$AAs?$AA?9?$AAw?$AAi?$AAn?$AA?9?$AAc?$AAo?$AAr?$AAe?$AA?9?$AAs?$AAt?$AAr?$AAi?$AAn?$AAg?$AA?9?$AAl?$AA1?$AA?9?$AA1?$AA?9?$AA0?$AA?$AA@ 0000000180051440     libucrt:winapi_thunks.obj
 0002:00009480       ??_C@_1DO@FPAPJEMD@?$AAa?$AAp?$AAi?$AA?9?$AAm?$AAs?$AA?9?$AAw?$AAi?$AAn?$AA?9?$AAc?$AAo?$AAr?$AAe?$AA?9?$AAs?$AAy?$AAs?$AAi?$AAn?$AAf?$AAo?$AA?9?$AAl?$AA1?$AA?9?$AA2?$AA?9?$AA1?$AA?$AA@ 0000000180051480     libucrt:winapi_thunks.obj
 0002:000094c0       ??_C@_1DK@NDHNAHIO@?$AAa?$AAp?$AAi?$AA?9?$AAm?$AAs?$AA?9?$AAw?$AAi?$AAn?$AA?9?$AAc?$AAo?$AAr?$AAe?$AA?9?$AAw?$AAi?$AAn?$AAr?$AAt?$AA?9?$AAl?$AA1?$AA?9?$AA1?$AA?9?$AA0?$AA?$AA@ 00000001800514c0     libucrt:winapi_thunks.obj
 0002:00009500       ??_C@_1DM@KGHDGBCM@?$AAa?$AAp?$AAi?$AA?9?$AAm?$AAs?$AA?9?$AAw?$AAi?$AAn?$AA?9?$AAc?$AAo?$AAr?$AAe?$AA?9?$AAx?$AAs?$AAt?$AAa?$AAt?$AAe?$AA?9?$AAl?$AA2?$AA?9?$AA1?$AA?9?$AA0?$AA?$AA@ 0000000180051500     libucrt:winapi_thunks.obj
 0002:00009540       ??_C@_1EO@IJIOEFOH@?$AAa?$AAp?$AAi?$AA?9?$AAm?$AAs?$AA?9?$AAw?$AAi?$AAn?$AA?9?$AAr?$AAt?$AAc?$AAo?$AAr?$AAe?$AA?9?$AAn?$AAt?$AAu?$AAs?$AAe?$AAr?$AA?9?$AAw?$AAi?$AAn?$AAd?$AAo?$AAw?$AA?9@ 0000000180051540     libucrt:winapi_thunks.obj
 0002:00009590       ??_C@_1FG@HHGEKANL@?$AAa?$AAp?$AAi?$AA?9?$AAm?$AAs?$AA?9?$AAw?$AAi?$AAn?$AA?9?$AAs?$AAe?$AAc?$AAu?$AAr?$AAi?$AAt?$AAy?$AA?9?$AAs?$AAy?$AAs?$AAt?$AAe?$AAm?$AAf?$AAu?$AAn?$AAc?$AAt?$AAi@ 0000000180051590     libucrt:winapi_thunks.obj
 0002:000095f0       ??_C@_1FG@NCKKOLKO@?$AAe?$AAx?$AAt?$AA?9?$AAm?$AAs?$AA?9?$AAw?$AAi?$AAn?$AA?9?$AAk?$AAe?$AAr?$AAn?$AAe?$AAl?$AA3?$AA2?$AA?9?$AAp?$AAa?$AAc?$AAk?$AAa?$AAg?$AAe?$AA?9?$AAc?$AAu?$AAr?$AAr@ 00000001800515f0     libucrt:winapi_thunks.obj
 0002:00009650       ??_C@_1EG@DBIOJECG@?$AAe?$AAx?$AAt?$AA?9?$AAm?$AAs?$AA?9?$AAw?$AAi?$AAn?$AA?9?$AAn?$AAt?$AAu?$AAs?$AAe?$AAr?$AA?9?$AAd?$AAi?$AAa?$AAl?$AAo?$AAg?$AAb?$AAo?$AAx?$AA?9?$AAl?$AA1?$AA?9?$AA1@ 0000000180051650     libucrt:winapi_thunks.obj
 0002:000096a0       ??_C@_1EO@FIHMJCLF@?$AAe?$AAx?$AAt?$AA?9?$AAm?$AAs?$AA?9?$AAw?$AAi?$AAn?$AA?9?$AAn?$AAt?$AAu?$AAs?$AAe?$AAr?$AA?9?$AAw?$AAi?$AAn?$AAd?$AAo?$AAw?$AAs?$AAt?$AAa?$AAt?$AAi?$AAo?$AAn?$AA?9@ 00000001800516a0     libucrt:winapi_thunks.obj
 0002:000096f0       ??_C@_1O@BCCLBEOE@?$AAu?$AAs?$AAe?$AAr?$AA3?$AA2?$AA?$AA@ 00000001800516f0     libucrt:winapi_thunks.obj
 0002:00009708       ??_C@_0BA@FHFNEAED@AreFileApisANSI?$AA@ 0000000180051708     libucrt:winapi_thunks.obj
 0002:00009728       ??_C@_0BE@LJANKFHF@EnumSystemLocalesEx?$AA@ 0000000180051728     libucrt:winapi_thunks.obj
 0002:00009768       ??_C@_0BA@HNOPNCHB@GetActiveWindow?$AA@ 0000000180051768     libucrt:winapi_thunks.obj
 0002:00009788       ??_C@_0BD@HHGDFDBJ@GetLastActivePopup?$AA@ 0000000180051788     libucrt:winapi_thunks.obj
 0002:000097b0       ??_C@_0BI@DFKBFLJE@GetProcessWindowStation?$AA@ 00000001800517b0     libucrt:winapi_thunks.obj
 0002:000097d0       ??_C@_0BJ@PBCCBIPI@GetUserDefaultLocaleName?$AA@ 00000001800517d0     libucrt:winapi_thunks.obj
 0002:000097f8       ??_C@_0BK@DEKFELLI@GetUserObjectInformationW?$AA@ 00000001800517f8     libucrt:winapi_thunks.obj
 0002:00009828       ??_C@_0BC@CELBKLLA@IsValidLocaleName?$AA@ 0000000180051828     libucrt:winapi_thunks.obj
 0002:00009850       ??_C@_0BB@CDHDDLLP@LCIDToLocaleName?$AA@ 0000000180051850     libucrt:winapi_thunks.obj
 0002:00009870       ??_C@_0BB@HBDEELFH@LocaleNameToLCID?$AA@ 0000000180051870     libucrt:winapi_thunks.obj
 0002:00009890       ??_C@_0M@CHKKJDAI@MessageBoxA?$AA@ 0000000180051890     libucrt:winapi_thunks.obj
 0002:000098a8       ??_C@_0M@DLDCCGNP@MessageBoxW?$AA@ 00000001800518a8     libucrt:winapi_thunks.obj
 0002:000098b4       ??_C@_03OEIAHPBN@INF?$AA@  00000001800518b4     libucrt:cvt.obj
 0002:000098b8       ??_C@_03OJHLLCGB@inf?$AA@  00000001800518b8     libucrt:cvt.obj
 0002:000098bc       ??_C@_03LKNCIKJB@NAN?$AA@  00000001800518bc     libucrt:cvt.obj
 0002:000098c0       ??_C@_03LHCJEHON@nan?$AA@  00000001800518c0     libucrt:cvt.obj
 0002:000098c8       ??_C@_09OFJJIMPC@NAN?$CISNAN?$CJ?$AA@ 00000001800518c8     libucrt:cvt.obj
 0002:000098d8       ??_C@_09IPFBKMDL@nan?$CIsnan?$CJ?$AA@ 00000001800518d8     libucrt:cvt.obj
 0002:000098e8       ??_C@_08IKHNHAJ@NAN?$CIIND?$CJ?$AA@ 00000001800518e8     libucrt:cvt.obj
 0002:000098f8       ??_C@_08OFCDMILK@nan?$CIind?$CJ?$AA@ 00000001800518f8     libucrt:cvt.obj
 0002:00009904       ??_C@_05KLBDPFGC@e?$CL000?$AA@ 0000000180051904     libucrt:cvt.obj
 0002:00009910       __lc_category              0000000180051910     libucrt:wsetlocale.obj
 0002:000099a0       ??_C@_1O@GIFLHMA@?$AAL?$AAC?$AA_?$AAA?$AAL?$AAL?$AA?$AA@ 00000001800519a0     libucrt:wsetlocale.obj
 0002:000099b0       ??_C@_1BG@PPOMIBNJ@?$AAL?$AAC?$AA_?$AAC?$AAO?$AAL?$AAL?$AAA?$AAT?$AAE?$AA?$AA@ 00000001800519b0     libucrt:wsetlocale.obj
 0002:000099c8       ??_C@_1BC@FFJGAPJM@?$AAL?$AAC?$AA_?$AAC?$AAT?$AAY?$AAP?$AAE?$AA?$AA@ 00000001800519c8     libucrt:wsetlocale.obj
 0002:000099e0       ??_C@_1BI@PCKFNJFB@?$AAL?$AAC?$AA_?$AAM?$AAO?$AAN?$AAE?$AAT?$AAA?$AAR?$AAY?$AA?$AA@ 00000001800519e0     libucrt:wsetlocale.obj
 0002:000099f8       ??_C@_1BG@ENIEDKID@?$AAL?$AAC?$AA_?$AAN?$AAU?$AAM?$AAE?$AAR?$AAI?$AAC?$AA?$AA@ 00000001800519f8     libucrt:wsetlocale.obj
 0002:00009a10       ??_C@_1BA@HAAOMIIG@?$AAL?$AAC?$AA_?$AAT?$AAI?$AAM?$AAE?$AA?$AA@ 0000000180051a10     libucrt:wsetlocale.obj
 0002:00009aa0       ??_C@_15NBPDDFIP@?$AA?$DN?$AA?$DL?$AA?$AA@ 0000000180051aa0     libucrt:wsetlocale.obj
 0002:00009aa8       ??_C@_13PJJBFPED@?$AA?$DL?$AA?$AA@ 0000000180051aa8     libucrt:wsetlocale.obj
 0002:00009aac       ??_C@_13NMPKAAJP@?$AA?$DN?$AA?$AA@ 0000000180051aac     libucrt:wsetlocale.obj
 0002:00009ab0       ??_C@_13FHBKNHDA@?$AAC?$AA?$AA@ 0000000180051ab0     libucrt:wsetlocale.obj
 0002:00009ab8       ??_C@_17MBJJLFDM@?$AA_?$AA?4?$AA?0?$AA?$AA@ 0000000180051ab8     libucrt:wsetlocale.obj
 0002:00009ac0       ??_C@_13ENNFDPBH@?$AA_?$AA?$AA@ 0000000180051ac0     libucrt:wsetlocale.obj
 0002:00009ac4       ??_C@_13JOFGPIOO@?$AA?4?$AA?$AA@ 0000000180051ac4     libucrt:wsetlocale.obj
 0002:00009ad0       __lc_time_c                0000000180051ad0     libucrt:nlsdata.obj
 0002:00009d90       ??_C@_03KOEHGMDN@Sun?$AA@  0000000180051d90     libucrt:nlsdata.obj
 0002:00009d94       ??_C@_03PDAGKDH@Mon?$AA@   0000000180051d94     libucrt:nlsdata.obj
 0002:00009d98       ??_C@_03NAGEINEP@Tue?$AA@  0000000180051d98     libucrt:nlsdata.obj
 0002:00009d9c       ??_C@_03MHOMLAJA@Wed?$AA@  0000000180051d9c     libucrt:nlsdata.obj
 0002:00009da0       ??_C@_03IOFIKPDN@Thu?$AA@  0000000180051da0     libucrt:nlsdata.obj
 0002:00009da4       ??_C@_03IDIOELNC@Fri?$AA@  0000000180051da4     libucrt:nlsdata.obj
 0002:00009da8       ??_C@_03FEFJNEK@Sat?$AA@   0000000180051da8     libucrt:nlsdata.obj
 0002:00009dac       ??_C@_06OOPIFAJ@Sunday?$AA@ 0000000180051dac     libucrt:nlsdata.obj
 0002:00009db4       ??_C@_06JLEDEDGH@Monday?$AA@ 0000000180051db4     libucrt:nlsdata.obj
 0002:00009dc0       ??_C@_07BAAGCFCM@Tuesday?$AA@ 0000000180051dc0     libucrt:nlsdata.obj
 0002:00009dc8       ??_C@_09DLIGFAKA@Wednesday?$AA@ 0000000180051dc8     libucrt:nlsdata.obj
 0002:00009dd8       ??_C@_08HACCIKIA@Thursday?$AA@ 0000000180051dd8     libucrt:nlsdata.obj
 0002:00009de4       ??_C@_06JECMNKMI@Friday?$AA@ 0000000180051de4     libucrt:nlsdata.obj
 0002:00009df0       ??_C@_08INBOOONO@Saturday?$AA@ 0000000180051df0     libucrt:nlsdata.obj
 0002:00009dfc       ??_C@_03JIHJHPIE@Jan?$AA@  0000000180051dfc     libucrt:nlsdata.obj
 0002:00009e00       ??_C@_03HJBDCHOM@Feb?$AA@  0000000180051e00     libucrt:nlsdata.obj
 0002:00009e04       ??_C@_03ODNJBKGA@Mar?$AA@  0000000180051e04     libucrt:nlsdata.obj
 0002:00009e08       ??_C@_03LEOLGMJP@Apr?$AA@  0000000180051e08     libucrt:nlsdata.obj
 0002:00009e0c       ??_C@_03CNMDKL@May?$AA@    0000000180051e0c     libucrt:nlsdata.obj
 0002:00009e10       ??_C@_03IDFGHECI@Jun?$AA@  0000000180051e10     libucrt:nlsdata.obj
 0002:00009e14       ??_C@_03LBGABGKK@Jul?$AA@  0000000180051e14     libucrt:nlsdata.obj
 0002:00009e18       ??_C@_03IFJFEIGA@Aug?$AA@  0000000180051e18     libucrt:nlsdata.obj
 0002:00009e1c       ??_C@_03GGCAPAJC@Sep?$AA@  0000000180051e1c     libucrt:nlsdata.obj
 0002:00009e20       ??_C@_03BMAOKBAD@Oct?$AA@  0000000180051e20     libucrt:nlsdata.obj
 0002:00009e24       ??_C@_03JPJOFNIA@Nov?$AA@  0000000180051e24     libucrt:nlsdata.obj
 0002:00009e28       ??_C@_03MKABNOCG@Dec?$AA@  0000000180051e28     libucrt:nlsdata.obj
 0002:00009e30       ??_C@_07CGJPFGJA@January?$AA@ 0000000180051e30     libucrt:nlsdata.obj
 0002:00009e38       ??_C@_08GNJGEPFN@February?$AA@ 0000000180051e38     libucrt:nlsdata.obj
 0002:00009e44       ??_C@_05HPCKOFNC@March?$AA@ 0000000180051e44     libucrt:nlsdata.obj
 0002:00009e4c       ??_C@_05DMJDNLEJ@April?$AA@ 0000000180051e4c     libucrt:nlsdata.obj
 0002:00009e54       ??_C@_04CNLMGBGM@June?$AA@ 0000000180051e54     libucrt:nlsdata.obj
 0002:00009e5c       ??_C@_04MIEPOIFP@July?$AA@ 0000000180051e5c     libucrt:nlsdata.obj
 0002:00009e64       ??_C@_06LBBHFDDG@August?$AA@ 0000000180051e64     libucrt:nlsdata.obj
 0002:00009e70       ??_C@_09BHHEALKD@September?$AA@ 0000000180051e70     libucrt:nlsdata.obj
 0002:00009e80       ??_C@_07JJNFCEND@October?$AA@ 0000000180051e80     libucrt:nlsdata.obj
 0002:00009e88       ??_C@_08HCHEGEOA@November?$AA@ 0000000180051e88     libucrt:nlsdata.obj
 0002:00009e98       ??_C@_08EDHMEBNP@December?$AA@ 0000000180051e98     libucrt:nlsdata.obj
 0002:00009ea4       ??_C@_02DEDBPAFC@AM?$AA@   0000000180051ea4     libucrt:nlsdata.obj
 0002:00009ea8       ??_C@_02CJNFDJBF@PM?$AA@   0000000180051ea8     libucrt:nlsdata.obj
 0002:00009eb0       ??_C@_08BPBNCDIB@MM?1dd?1yy?$AA@ 0000000180051eb0     libucrt:nlsdata.obj
 0002:00009ec0       ??_C@_0BE@CKGJFCPC@dddd?0?5MMMM?5dd?0?5yyyy?$AA@ 0000000180051ec0     libucrt:nlsdata.obj
 0002:00009ed8       ??_C@_08JCCMCCIL@HH?3mm?3ss?$AA@ 0000000180051ed8     libucrt:nlsdata.obj
 0002:00009ee8       ??_C@_17MBGCMIPB@?$AAS?$AAu?$AAn?$AA?$AA@ 0000000180051ee8     libucrt:nlsdata.obj
 0002:00009ef0       ??_C@_17KBOMKBF@?$AAM?$AAo?$AAn?$AA?$AA@ 0000000180051ef0     libucrt:nlsdata.obj
 0002:00009ef8       ??_C@_17BMKGEGOJ@?$AAT?$AAu?$AAe?$AA?$AA@ 0000000180051ef8     libucrt:nlsdata.obj
 0002:00009f00       ??_C@_17CJEDCEPE@?$AAW?$AAe?$AAd?$AA?$AA@ 0000000180051f00     libucrt:nlsdata.obj
 0002:00009f08       ??_C@_17PDPHAADD@?$AAT?$AAh?$AAu?$AA?$AA@ 0000000180051f08     libucrt:nlsdata.obj
 0002:00009f10       ??_C@_17HFOLPPLP@?$AAF?$AAr?$AAi?$AA?$AA@ 0000000180051f10     libucrt:nlsdata.obj
 0002:00009f18       ??_C@_17GGIBDPIH@?$AAS?$AAa?$AAt?$AA?$AA@ 0000000180051f18     libucrt:nlsdata.obj
 0002:00009f20       ??_C@_1O@IHNHDHPB@?$AAS?$AAu?$AAn?$AAd?$AAa?$AAy?$AA?$AA@ 0000000180051f20     libucrt:nlsdata.obj
 0002:00009f30       ??_C@_1O@MMNBFLIA@?$AAM?$AAo?$AAn?$AAd?$AAa?$AAy?$AA?$AA@ 0000000180051f30     libucrt:nlsdata.obj
 0002:00009f40       ??_C@_1BA@ENFBFFEK@?$AAT?$AAu?$AAe?$AAs?$AAd?$AAa?$AAy?$AA?$AA@ 0000000180051f40     libucrt:nlsdata.obj
 0002:00009f50       ??_C@_1BE@EBOGMDOH@?$AAW?$AAe?$AAd?$AAn?$AAe?$AAs?$AAd?$AAa?$AAy?$AA?$AA@ 0000000180051f50     libucrt:nlsdata.obj
 0002:00009f68       ??_C@_1BC@HHMNLIHE@?$AAT?$AAh?$AAu?$AAr?$AAs?$AAd?$AAa?$AAy?$AA?$AA@ 0000000180051f68     libucrt:nlsdata.obj
 0002:00009f80       ??_C@_1O@PDICJHAG@?$AAF?$AAr?$AAi?$AAd?$AAa?$AAy?$AA?$AA@ 0000000180051f80     libucrt:nlsdata.obj
 0002:00009f90       ??_C@_1BC@ENMNNPAJ@?$AAS?$AAa?$AAt?$AAu?$AAr?$AAd?$AAa?$AAy?$AA?$AA@ 0000000180051f90     libucrt:nlsdata.obj
 0002:00009fa8       ??_C@_17DKNBKCHM@?$AAJ?$AAa?$AAn?$AA?$AA@ 0000000180051fa8     libucrt:nlsdata.obj
 0002:00009fb0       ??_C@_17LMDJEKJN@?$AAF?$AAe?$AAb?$AA?$AA@ 0000000180051fb0     libucrt:nlsdata.obj
 0002:00009fb8       ??_C@_17CKNLEDEC@?$AAM?$AAa?$AAr?$AA?$AA@ 0000000180051fb8     libucrt:nlsdata.obj
 0002:00009fc0       ??_C@_17LFPOIHDD@?$AAA?$AAp?$AAr?$AA?$AA@ 0000000180051fc0     libucrt:nlsdata.obj
 0002:00009fc8       ??_C@_17PNNKMEED@?$AAM?$AAa?$AAy?$AA?$AA@ 0000000180051fc8     libucrt:nlsdata.obj
 0002:00009fd0       ??_C@_17KCJGOCPB@?$AAJ?$AAu?$AAn?$AA?$AA@ 0000000180051fd0     libucrt:nlsdata.obj
 0002:00009fd8       ??_C@_17IJPCKHK@?$AAJ?$AAu?$AAl?$AA?$AA@ 0000000180051fd8     libucrt:nlsdata.obj
 0002:00009fe0       ??_C@_17ICPELBCN@?$AAA?$AAu?$AAg?$AA?$AA@ 0000000180051fe0     libucrt:nlsdata.obj
 0002:00009fe8       ??_C@_17HCHCOKMG@?$AAS?$AAe?$AAp?$AA?$AA@ 0000000180051fe8     libucrt:nlsdata.obj
 0002:00009ff0       ??_C@_17FNLKOI@?$AAO?$AAc?$AAt?$AA?$AA@ 0000000180051ff0     libucrt:nlsdata.obj
 0002:00009ff8       ??_C@_17BBDMLCIG@?$AAN?$AAo?$AAv?$AA?$AA@ 0000000180051ff8     libucrt:nlsdata.obj
 0002:0000a000       ??_C@_17EGKACKIF@?$AAD?$AAe?$AAc?$AA?$AA@ 0000000180052000     libucrt:nlsdata.obj
 0002:0000a008       ??_C@_1BA@EFMEIEBA@?$AAJ?$AAa?$AAn?$AAu?$AAa?$AAr?$AAy?$AA?$AA@ 0000000180052008     libucrt:nlsdata.obj
 0002:0000a018       ??_C@_1BC@JGDDFFAM@?$AAF?$AAe?$AAb?$AAr?$AAu?$AAa?$AAr?$AAy?$AA?$AA@ 0000000180052018     libucrt:nlsdata.obj
 0002:0000a030       ??_C@_1M@IKEENEDF@?$AAM?$AAa?$AAr?$AAc?$AAh?$AA?$AA@ 0000000180052030     libucrt:nlsdata.obj
 0002:0000a040       ??_C@_1M@GJNLMHFD@?$AAA?$AAp?$AAr?$AAi?$AAl?$AA?$AA@ 0000000180052040     libucrt:nlsdata.obj
 0002:0000a050       ??_C@_19EPFLPGAP@?$AAJ?$AAu?$AAn?$AAe?$AA?$AA@ 0000000180052050     libucrt:nlsdata.obj
 0002:0000a060       ??_C@_19BIFMLPCD@?$AAJ?$AAu?$AAl?$AAy?$AA?$AA@ 0000000180052060     libucrt:nlsdata.obj
 0002:0000a070       ??_C@_1O@PAHLKOAC@?$AAA?$AAu?$AAg?$AAu?$AAs?$AAt?$AA?$AA@ 0000000180052070     libucrt:nlsdata.obj
 0002:0000a080       ??_C@_1BE@DKAAMBJL@?$AAS?$AAe?$AAp?$AAt?$AAe?$AAm?$AAb?$AAe?$AAr?$AA?$AA@ 0000000180052080     libucrt:nlsdata.obj
 0002:0000a098       ??_C@_1BA@EPANDLNG@?$AAO?$AAc?$AAt?$AAo?$AAb?$AAe?$AAr?$AA?$AA@ 0000000180052098     libucrt:nlsdata.obj
 0002:0000a0a8       ??_C@_1BC@BGLIFPF@?$AAN?$AAo?$AAv?$AAe?$AAm?$AAb?$AAe?$AAr?$AA?$AA@ 00000001800520a8     libucrt:nlsdata.obj
 0002:0000a0c0       ??_C@_1BC@FEMKIFH@?$AAD?$AAe?$AAc?$AAe?$AAm?$AAb?$AAe?$AAr?$AA?$AA@ 00000001800520c0     libucrt:nlsdata.obj
 0002:0000a0d4       ??_C@_15ODEHAHHF@?$AAA?$AAM?$AA?$AA@ 00000001800520d4     libucrt:nlsdata.obj
 0002:0000a0dc       ??_C@_15CLMNNGEL@?$AAP?$AAM?$AA?$AA@ 00000001800520dc     libucrt:nlsdata.obj
 0002:0000a0e8       ??_C@_1BC@IEBCMHCM@?$AAM?$AAM?$AA?1?$AAd?$AAd?$AA?1?$AAy?$AAy?$AA?$AA@ 00000001800520e8     libucrt:nlsdata.obj
 0002:0000a100       ??_C@_1CI@KNAKOEBC@?$AAd?$AAd?$AAd?$AAd?$AA?0?$AA?5?$AAM?$AAM?$AAM?$AAM?$AA?5?$AAd?$AAd?$AA?0?$AA?5?$AAy?$AAy?$AAy?$AAy?$AA?$AA@ 0000000180052100     libucrt:nlsdata.obj
 0002:0000a128       ??_C@_1BC@GDGBMEMK@?$AAH?$AAH?$AA?3?$AAm?$AAm?$AA?3?$AAs?$AAs?$AA?$AA@ 0000000180052128     libucrt:nlsdata.obj
 0002:0000a13c       ?ccs@?BL@???$__acrt_stdio_parse_mode@D@@YA?AU__acrt_stdio_stream_mode@@QEBD@Z@4QBDB 000000018005213c     libucrt:openfile.obj
 0002:0000a140       ?utf8_encoding@?BL@???$__acrt_stdio_parse_mode@D@@YA?AU__acrt_stdio_stream_mode@@QEBD@Z@4QBDB 0000000180052140     libucrt:openfile.obj
 0002:0000a148       ?utf16_encoding@?BL@???$__acrt_stdio_parse_mode@D@@YA?AU__acrt_stdio_stream_mode@@QEBD@Z@4QBDB 0000000180052148     libucrt:openfile.obj
 0002:0000a150       ?unicode_encoding@?BL@???$__acrt_stdio_parse_mode@D@@YA?AU__acrt_stdio_stream_mode@@QEBD@Z@4QBDB 0000000180052150     libucrt:openfile.obj
 0002:0000a158       ??_C@_03JGHBODFD@pow?$AA@  0000000180052158     libucrt:fpexcept.obj
 0002:0000a15c       ??_C@_03MGHMBJCF@log?$AA@  000000018005215c     libucrt:fpexcept.obj
 0002:0000a160       ??_C@_05HGHHAHAP@log10?$AA@ 0000000180052160     libucrt:fpexcept.obj
 0002:0000a170       __log_256_lead             0000000180052170     libucrt:log_256_lead_tail_table.obj
 0002:0000a980       __log_256_tail             0000000180052980     libucrt:log_256_lead_tail_table.obj
 0002:0000b190       __two_to_jby64_head_table  0000000180053190     libucrt:two_to_jby64_head_tail_table.obj
 0002:0000b390       __two_to_jby64_tail_table  0000000180053390     libucrt:two_to_jby64_head_tail_table.obj
 0002:0000b590       ??_C@_04MBFDLNIM@powf?$AA@ 0000000180053590     libucrt:pow_special.obj
 0002:0000b5a0       __two_to_jby64_table       00000001800535a0     libucrt:two_to_jby64_table.obj
 0002:0000b7a0       __log_F_inv_qword          00000001800537a0     libucrt:log_f_inv_qword_table.obj
 0002:0000dc50       ??_C@_01GBGANLPD@0?$AA@    0000000180055c50     libucrt:cfout.obj
 0002:0000dc54       ??_C@_05DNEBIAHO@1?$CDINF?$AA@ 0000000180055c54     libucrt:cfout.obj
 0002:0000dc5c       ??_C@_06IMKFLFPG@1?$CDQNAN?$AA@ 0000000180055c5c     libucrt:cfout.obj
 0002:0000dc64       ??_C@_06PGGFOGJG@1?$CDSNAN?$AA@ 0000000180055c64     libucrt:cfout.obj
 0002:0000dc6c       ??_C@_05PHHOCPM@1?$CDIND?$AA@ 0000000180055c6c     libucrt:cfout.obj
 0002:0000dc80       __acrt_rg_language         0000000180055c80     libucrt:get_qualified_locale.obj
 0002:0000e090       __acrt_rg_language_count   0000000180056090     libucrt:get_qualified_locale.obj
 0002:0000e0a0       __acrt_rg_country          00000001800560a0     libucrt:get_qualified_locale.obj
 0002:0000e210       __acrt_rg_country_count    0000000180056210     libucrt:get_qualified_locale.obj
 0002:0000e218       ??_C@_1BC@LLOKLNP@?$AAa?$AAm?$AAe?$AAr?$AAi?$AAc?$AAa?$AAn?$AA?$AA@ 0000000180056218     libucrt:get_qualified_locale.obj
 0002:0000e230       ??_C@_1CC@HEIGCDGG@?$AAa?$AAm?$AAe?$AAr?$AAi?$AAc?$AAa?$AAn?$AA?5?$AAe?$AAn?$AAg?$AAl?$AAi?$AAs?$AAh?$AA?$AA@ 0000000180056230     libucrt:get_qualified_locale.obj
 0002:0000e258       ??_C@_1CC@IHCNOMIN@?$AAa?$AAm?$AAe?$AAr?$AAi?$AAc?$AAa?$AAn?$AA?9?$AAe?$AAn?$AAg?$AAl?$AAi?$AAs?$AAh?$AA?$AA@ 0000000180056258     libucrt:get_qualified_locale.obj
 0002:0000e280       ??_C@_1BG@GKAGPCGG@?$AAa?$AAu?$AAs?$AAt?$AAr?$AAa?$AAl?$AAi?$AAa?$AAn?$AA?$AA@ 0000000180056280     libucrt:get_qualified_locale.obj
 0002:0000e298       ??_C@_1BA@GMENCENF@?$AAb?$AAe?$AAl?$AAg?$AAi?$AAa?$AAn?$AA?$AA@ 0000000180056298     libucrt:get_qualified_locale.obj
 0002:0000e2a8       ??_C@_1BC@PJMIIAAN@?$AAc?$AAa?$AAn?$AAa?$AAd?$AAi?$AAa?$AAn?$AA?$AA@ 00000001800562a8     libucrt:get_qualified_locale.obj
 0002:0000e2c0       ??_C@_17NOIMNFBF@?$AAc?$AAh?$AAh?$AA?$AA@ 00000001800562c0     libucrt:get_qualified_locale.obj
 0002:0000e2c8       ??_C@_17GGDALCHA@?$AAc?$AAh?$AAi?$AA?$AA@ 00000001800562c8     libucrt:get_qualified_locale.obj
 0002:0000e2d0       ??_C@_1BA@NPNJKIBL@?$AAc?$AAh?$AAi?$AAn?$AAe?$AAs?$AAe?$AA?$AA@ 00000001800562d0     libucrt:get_qualified_locale.obj
 0002:0000e2e0       ??_C@_1CC@DINBAMMJ@?$AAc?$AAh?$AAi?$AAn?$AAe?$AAs?$AAe?$AA?9?$AAh?$AAo?$AAn?$AAg?$AAk?$AAo?$AAn?$AAg?$AA?$AA@ 00000001800562e0     libucrt:get_qualified_locale.obj
 0002:0000e308       ??_C@_1CG@IOBJPACO@?$AAc?$AAh?$AAi?$AAn?$AAe?$AAs?$AAe?$AA?9?$AAs?$AAi?$AAm?$AAp?$AAl?$AAi?$AAf?$AAi?$AAe?$AAd?$AA?$AA@ 0000000180056308     libucrt:get_qualified_locale.obj
 0002:0000e330       ??_C@_1CE@GAJNDCKG@?$AAc?$AAh?$AAi?$AAn?$AAe?$AAs?$AAe?$AA?9?$AAs?$AAi?$AAn?$AAg?$AAa?$AAp?$AAo?$AAr?$AAe?$AA?$AA@ 0000000180056330     libucrt:get_qualified_locale.obj
 0002:0000e358       ??_C@_1CI@PAJPIOOD@?$AAc?$AAh?$AAi?$AAn?$AAe?$AAs?$AAe?$AA?9?$AAt?$AAr?$AAa?$AAd?$AAi?$AAt?$AAi?$AAo?$AAn?$AAa?$AAl?$AA?$AA@ 0000000180056358     libucrt:get_qualified_locale.obj
 0002:0000e380       ??_C@_1BM@NILJBMMD@?$AAd?$AAu?$AAt?$AAc?$AAh?$AA?9?$AAb?$AAe?$AAl?$AAg?$AAi?$AAa?$AAn?$AA?$AA@ 0000000180056380     libucrt:get_qualified_locale.obj
 0002:0000e3a0       ??_C@_1CC@OOJPJNEJ@?$AAe?$AAn?$AAg?$AAl?$AAi?$AAs?$AAh?$AA?9?$AAa?$AAm?$AAe?$AAr?$AAi?$AAc?$AAa?$AAn?$AA?$AA@ 00000001800563a0     libucrt:get_qualified_locale.obj
 0002:0000e3c8       ??_C@_1BI@IOLFEEM@?$AAe?$AAn?$AAg?$AAl?$AAi?$AAs?$AAh?$AA?9?$AAa?$AAu?$AAs?$AA?$AA@ 00000001800563c8     libucrt:get_qualified_locale.obj
 0002:0000e3e0       ??_C@_1BO@HFFNLENJ@?$AAe?$AAn?$AAg?$AAl?$AAi?$AAs?$AAh?$AA?9?$AAb?$AAe?$AAl?$AAi?$AAz?$AAe?$AA?$AA@ 00000001800563e0     libucrt:get_qualified_locale.obj
 0002:0000e400       ??_C@_1BI@HAPKJMPO@?$AAe?$AAn?$AAg?$AAl?$AAi?$AAs?$AAh?$AA?9?$AAc?$AAa?$AAn?$AA?$AA@ 0000000180056400     libucrt:get_qualified_locale.obj
 0002:0000e418       ??_C@_1CE@HLNDMIOJ@?$AAe?$AAn?$AAg?$AAl?$AAi?$AAs?$AAh?$AA?9?$AAc?$AAa?$AAr?$AAi?$AAb?$AAb?$AAe?$AAa?$AAn?$AA?$AA@ 0000000180056418     libucrt:get_qualified_locale.obj
 0002:0000e440       ??_C@_1BI@LDHJHHAC@?$AAe?$AAn?$AAg?$AAl?$AAi?$AAs?$AAh?$AA?9?$AAi?$AAr?$AAe?$AA?$AA@ 0000000180056440     libucrt:get_qualified_locale.obj
 0002:0000e458       ??_C@_1CA@NJMMCFOC@?$AAe?$AAn?$AAg?$AAl?$AAi?$AAs?$AAh?$AA?9?$AAj?$AAa?$AAm?$AAa?$AAi?$AAc?$AAa?$AA?$AA@ 0000000180056458     libucrt:get_qualified_locale.obj
 0002:0000e478       ??_C@_1BG@BHJEBBGG@?$AAe?$AAn?$AAg?$AAl?$AAi?$AAs?$AAh?$AA?9?$AAn?$AAz?$AA?$AA@ 0000000180056478     libucrt:get_qualified_locale.obj
 0002:0000e490       ??_C@_1CK@FGOEJJCO@?$AAe?$AAn?$AAg?$AAl?$AAi?$AAs?$AAh?$AA?9?$AAs?$AAo?$AAu?$AAt?$AAh?$AA?5?$AAa?$AAf?$AAr?$AAi?$AAc?$AAa?$AA?$AA@ 0000000180056490     libucrt:get_qualified_locale.obj
 0002:0000e4c0       ??_C@_1DE@PDBJPCJ@?$AAe?$AAn?$AAg?$AAl?$AAi?$AAs?$AAh?$AA?9?$AAt?$AAr?$AAi?$AAn?$AAi?$AAd?$AAa?$AAd?$AA?5?$AAy?$AA?5?$AAt?$AAo?$AAb?$AAa?$AAg?$AAo?$AA?$AA@ 00000001800564c0     libucrt:get_qualified_locale.obj
 0002:0000e4f8       ??_C@_1BG@JGCANDME@?$AAe?$AAn?$AAg?$AAl?$AAi?$AAs?$AAh?$AA?9?$AAu?$AAk?$AA?$AA@ 00000001800564f8     libucrt:get_qualified_locale.obj
 0002:0000e510       ??_C@_1BG@DINKMLE@?$AAe?$AAn?$AAg?$AAl?$AAi?$AAs?$AAh?$AA?9?$AAu?$AAs?$AA?$AA@ 0000000180056510     libucrt:get_qualified_locale.obj
 0002:0000e528       ??_C@_1BI@NMFDBHJE@?$AAe?$AAn?$AAg?$AAl?$AAi?$AAs?$AAh?$AA?9?$AAu?$AAs?$AAa?$AA?$AA@ 0000000180056528     libucrt:get_qualified_locale.obj
 0002:0000e540       ??_C@_1BO@OIHKJKII@?$AAf?$AAr?$AAe?$AAn?$AAc?$AAh?$AA?9?$AAb?$AAe?$AAl?$AAg?$AAi?$AAa?$AAn?$AA?$AA@ 0000000180056540     libucrt:get_qualified_locale.obj
 0002:0000e560       ??_C@_1CA@NKAELJKI@?$AAf?$AAr?$AAe?$AAn?$AAc?$AAh?$AA?9?$AAc?$AAa?$AAn?$AAa?$AAd?$AAi?$AAa?$AAn?$AA?$AA@ 0000000180056560     libucrt:get_qualified_locale.obj
 0002:0000e580       ??_C@_1CE@MGKCNLGN@?$AAf?$AAr?$AAe?$AAn?$AAc?$AAh?$AA?9?$AAl?$AAu?$AAx?$AAe?$AAm?$AAb?$AAo?$AAu?$AAr?$AAg?$AA?$AA@ 0000000180056580     libucrt:get_qualified_locale.obj
 0002:0000e5a8       ??_C@_1BK@CEGEAILM@?$AAf?$AAr?$AAe?$AAn?$AAc?$AAh?$AA?9?$AAs?$AAw?$AAi?$AAs?$AAs?$AA?$AA@ 00000001800565a8     libucrt:get_qualified_locale.obj
 0002:0000e5c8       ??_C@_1CA@PAFKEOCC@?$AAg?$AAe?$AAr?$AAm?$AAa?$AAn?$AA?9?$AAa?$AAu?$AAs?$AAt?$AAr?$AAi?$AAa?$AAn?$AA?$AA@ 00000001800565c8     libucrt:get_qualified_locale.obj
 0002:0000e5e8       ??_C@_1CI@HCFHGOFD@?$AAg?$AAe?$AAr?$AAm?$AAa?$AAn?$AA?9?$AAl?$AAi?$AAc?$AAh?$AAt?$AAe?$AAn?$AAs?$AAt?$AAe?$AAi?$AAn?$AA?$AA@ 00000001800565e8     libucrt:get_qualified_locale.obj
 0002:0000e610       ??_C@_1CE@FEDDNPDG@?$AAg?$AAe?$AAr?$AAm?$AAa?$AAn?$AA?9?$AAl?$AAu?$AAx?$AAe?$AAm?$AAb?$AAo?$AAu?$AAr?$AAg?$AA?$AA@ 0000000180056610     libucrt:get_qualified_locale.obj
 0002:0000e638       ??_C@_1BK@LIMINNMN@?$AAg?$AAe?$AAr?$AAm?$AAa?$AAn?$AA?9?$AAs?$AAw?$AAi?$AAs?$AAs?$AA?$AA@ 0000000180056638     libucrt:get_qualified_locale.obj
 0002:0000e658       ??_C@_1BM@LGMDBEPD@?$AAi?$AAr?$AAi?$AAs?$AAh?$AA?9?$AAe?$AAn?$AAg?$AAl?$AAi?$AAs?$AAh?$AA?$AA@ 0000000180056658     libucrt:get_qualified_locale.obj
 0002:0000e678       ??_C@_1BM@NNCFBAEE@?$AAi?$AAt?$AAa?$AAl?$AAi?$AAa?$AAn?$AA?9?$AAs?$AAw?$AAi?$AAs?$AAs?$AA?$AA@ 0000000180056678     libucrt:get_qualified_locale.obj
 0002:0000e698       ??_C@_1BE@FEDJNPIB@?$AAn?$AAo?$AAr?$AAw?$AAe?$AAg?$AAi?$AAa?$AAn?$AA?$AA@ 0000000180056698     libucrt:get_qualified_locale.obj
 0002:0000e6b0       ??_C@_1CC@CILKDEIE@?$AAn?$AAo?$AAr?$AAw?$AAe?$AAg?$AAi?$AAa?$AAn?$AA?9?$AAb?$AAo?$AAk?$AAm?$AAa?$AAl?$AA?$AA@ 00000001800566b0     libucrt:get_qualified_locale.obj
 0002:0000e6d8       ??_C@_1CE@DHMMHEPL@?$AAn?$AAo?$AAr?$AAw?$AAe?$AAg?$AAi?$AAa?$AAn?$AA?9?$AAn?$AAy?$AAn?$AAo?$AAr?$AAs?$AAk?$AA?$AA@ 00000001800566d8     libucrt:get_qualified_locale.obj
 0002:0000e700       ??_C@_1CK@OPNMHECD@?$AAp?$AAo?$AAr?$AAt?$AAu?$AAg?$AAu?$AAe?$AAs?$AAe?$AA?9?$AAb?$AAr?$AAa?$AAz?$AAi?$AAl?$AAi?$AAa?$AAn?$AA?$AA@ 0000000180056700     libucrt:get_qualified_locale.obj
 0002:0000e730       ??_C@_1CE@KEEHCDB@?$AAs?$AAp?$AAa?$AAn?$AAi?$AAs?$AAh?$AA?9?$AAa?$AAr?$AAg?$AAe?$AAn?$AAt?$AAi?$AAn?$AAa?$AA?$AA@ 0000000180056730     libucrt:get_qualified_locale.obj
 0002:0000e758       ??_C@_1CA@GIAOLHJD@?$AAs?$AAp?$AAa?$AAn?$AAi?$AAs?$AAh?$AA?9?$AAb?$AAo?$AAl?$AAi?$AAv?$AAi?$AAa?$AA?$AA@ 0000000180056758     libucrt:get_qualified_locale.obj
 0002:0000e778       ??_C@_1BM@OJNDFNPD@?$AAs?$AAp?$AAa?$AAn?$AAi?$AAs?$AAh?$AA?9?$AAc?$AAh?$AAi?$AAl?$AAe?$AA?$AA@ 0000000180056778     libucrt:get_qualified_locale.obj
 0002:0000e798       ??_C@_1CC@OCOLPALL@?$AAs?$AAp?$AAa?$AAn?$AAi?$AAs?$AAh?$AA?9?$AAc?$AAo?$AAl?$AAo?$AAm?$AAb?$AAi?$AAa?$AA?$AA@ 0000000180056798     libucrt:get_qualified_locale.obj
 0002:0000e7c0       ??_C@_1CG@BPOFMKBB@?$AAs?$AAp?$AAa?$AAn?$AAi?$AAs?$AAh?$AA?9?$AAc?$AAo?$AAs?$AAt?$AAa?$AA?5?$AAr?$AAi?$AAc?$AAa?$AA?$AA@ 00000001800567c0     libucrt:get_qualified_locale.obj
 0002:0000e7e8       ??_C@_1DG@IGOBAPBB@?$AAs?$AAp?$AAa?$AAn?$AAi?$AAs?$AAh?$AA?9?$AAd?$AAo?$AAm?$AAi?$AAn?$AAi?$AAc?$AAa?$AAn?$AA?5?$AAr?$AAe?$AAp?$AAu?$AAb?$AAl?$AAi?$AAc?$AA?$AA@ 00000001800567e8     libucrt:get_qualified_locale.obj
 0002:0000e820       ??_C@_1CA@JHAPGEGI@?$AAs?$AAp?$AAa?$AAn?$AAi?$AAs?$AAh?$AA?9?$AAe?$AAc?$AAu?$AAa?$AAd?$AAo?$AAr?$AA?$AA@ 0000000180056820     libucrt:get_qualified_locale.obj
 0002:0000e840       ??_C@_1CI@LAPALJPP@?$AAs?$AAp?$AAa?$AAn?$AAi?$AAs?$AAh?$AA?9?$AAe?$AAl?$AA?5?$AAs?$AAa?$AAl?$AAv?$AAa?$AAd?$AAo?$AAr?$AA?$AA@ 0000000180056840     libucrt:get_qualified_locale.obj
 0002:0000e868       ??_C@_1CE@PDGBOFOM@?$AAs?$AAp?$AAa?$AAn?$AAi?$AAs?$AAh?$AA?9?$AAg?$AAu?$AAa?$AAt?$AAe?$AAm?$AAa?$AAl?$AAa?$AA?$AA@ 0000000180056868     libucrt:get_qualified_locale.obj
 0002:0000e890       ??_C@_1CC@NBEBAODI@?$AAs?$AAp?$AAa?$AAn?$AAi?$AAs?$AAh?$AA?9?$AAh?$AAo?$AAn?$AAd?$AAu?$AAr?$AAa?$AAs?$AA?$AA@ 0000000180056890     libucrt:get_qualified_locale.obj
 0002:0000e8b8       ??_C@_1CA@LLKGHBMF@?$AAs?$AAp?$AAa?$AAn?$AAi?$AAs?$AAh?$AA?9?$AAm?$AAe?$AAx?$AAi?$AAc?$AAa?$AAn?$AA?$AA@ 00000001800568b8     libucrt:get_qualified_locale.obj
 0002:0000e8d8       ??_C@_1BO@LKNDOIGD@?$AAs?$AAp?$AAa?$AAn?$AAi?$AAs?$AAh?$AA?9?$AAm?$AAo?$AAd?$AAe?$AAr?$AAn?$AA?$AA@ 00000001800568d8     libucrt:get_qualified_locale.obj
 0002:0000e8f8       ??_C@_1CE@NMDMOEEB@?$AAs?$AAp?$AAa?$AAn?$AAi?$AAs?$AAh?$AA?9?$AAn?$AAi?$AAc?$AAa?$AAr?$AAa?$AAg?$AAu?$AAa?$AA?$AA@ 00000001800568f8     libucrt:get_qualified_locale.obj
 0002:0000e920       ??_C@_1BO@LLCBEJGB@?$AAs?$AAp?$AAa?$AAn?$AAi?$AAs?$AAh?$AA?9?$AAp?$AAa?$AAn?$AAa?$AAm?$AAa?$AA?$AA@ 0000000180056920     libucrt:get_qualified_locale.obj
 0002:0000e940       ??_C@_1CC@FKPGGIHO@?$AAs?$AAp?$AAa?$AAn?$AAi?$AAs?$AAh?$AA?9?$AAp?$AAa?$AAr?$AAa?$AAg?$AAu?$AAa?$AAy?$AA?$AA@ 0000000180056940     libucrt:get_qualified_locale.obj
 0002:0000e968       ??_C@_1BK@CDEIHOOP@?$AAs?$AAp?$AAa?$AAn?$AAi?$AAs?$AAh?$AA?9?$AAp?$AAe?$AAr?$AAu?$AA?$AA@ 0000000180056968     libucrt:get_qualified_locale.obj
 0002:0000e988       ??_C@_1CI@GAHAKKGP@?$AAs?$AAp?$AAa?$AAn?$AAi?$AAs?$AAh?$AA?9?$AAp?$AAu?$AAe?$AAr?$AAt?$AAo?$AA?5?$AAr?$AAi?$AAc?$AAo?$AA?$AA@ 0000000180056988     libucrt:get_qualified_locale.obj
 0002:0000e9b0       ??_C@_1CA@NKJBCAGP@?$AAs?$AAp?$AAa?$AAn?$AAi?$AAs?$AAh?$AA?9?$AAu?$AAr?$AAu?$AAg?$AAu?$AAa?$AAy?$AA?$AA@ 00000001800569b0     libucrt:get_qualified_locale.obj
 0002:0000e9d0       ??_C@_1CE@ODILCONM@?$AAs?$AAp?$AAa?$AAn?$AAi?$AAs?$AAh?$AA?9?$AAv?$AAe?$AAn?$AAe?$AAz?$AAu?$AAe?$AAl?$AAa?$AA?$AA@ 00000001800569d0     libucrt:get_qualified_locale.obj
 0002:0000e9f8       ??_C@_1CA@OBNMCGFO@?$AAs?$AAw?$AAe?$AAd?$AAi?$AAs?$AAh?$AA?9?$AAf?$AAi?$AAn?$AAl?$AAa?$AAn?$AAd?$AA?$AA@ 00000001800569f8     libucrt:get_qualified_locale.obj
 0002:0000ea18       ??_C@_1M@PIPDDPPI@?$AAs?$AAw?$AAi?$AAs?$AAs?$AA?$AA@ 0000000180056a18     libucrt:get_qualified_locale.obj
 0002:0000ea24       ??_C@_15GMFIMNFM@?$AAu?$AAs?$AA?$AA@ 0000000180056a24     libucrt:get_qualified_locale.obj
 0002:0000ea30       ??_C@_17HAEBFAGL@?$AAu?$AAs?$AAa?$AA?$AA@ 0000000180056a30     libucrt:get_qualified_locale.obj
 0002:0000ea38       ??_C@_1BA@DPFJEPHB@?$AAa?$AAm?$AAe?$AAr?$AAi?$AAc?$AAa?$AA?$AA@ 0000000180056a38     libucrt:get_qualified_locale.obj
 0002:0000ea48       ??_C@_1BA@ELOGGFK@?$AAb?$AAr?$AAi?$AAt?$AAa?$AAi?$AAn?$AA?$AA@ 0000000180056a48     libucrt:get_qualified_locale.obj
 0002:0000ea58       ??_C@_1M@GHBGIGDA@?$AAc?$AAh?$AAi?$AAn?$AAa?$AA?$AA@ 0000000180056a58     libucrt:get_qualified_locale.obj
 0002:0000ea68       ??_C@_1M@NCHEJOPO@?$AAc?$AAz?$AAe?$AAc?$AAh?$AA?$AA@ 0000000180056a68     libucrt:get_qualified_locale.obj
 0002:0000ea78       ??_C@_1BA@BKPAPBLA@?$AAe?$AAn?$AAg?$AAl?$AAa?$AAn?$AAd?$AA?$AA@ 0000000180056a78     libucrt:get_qualified_locale.obj
 0002:0000ea88       ??_C@_1BM@HKBCKIPC@?$AAg?$AAr?$AAe?$AAa?$AAt?$AA?5?$AAb?$AAr?$AAi?$AAt?$AAa?$AAi?$AAn?$AA?$AA@ 0000000180056a88     libucrt:get_qualified_locale.obj
 0002:0000eaa8       ??_C@_1BA@PPCHPGJB@?$AAh?$AAo?$AAl?$AAl?$AAa?$AAn?$AAd?$AA?$AA@ 0000000180056aa8     libucrt:get_qualified_locale.obj
 0002:0000eab8       ??_C@_1BE@JBMPEGDG@?$AAh?$AAo?$AAn?$AAg?$AA?9?$AAk?$AAo?$AAn?$AAg?$AA?$AA@ 0000000180056ab8     libucrt:get_qualified_locale.obj
 0002:0000ead0       ??_C@_1BI@KOELBBPJ@?$AAn?$AAe?$AAw?$AA?9?$AAz?$AAe?$AAa?$AAl?$AAa?$AAn?$AAd?$AA?$AA@ 0000000180056ad0     libucrt:get_qualified_locale.obj
 0002:0000eae8       ??_C@_15HIEBHAIO@?$AAn?$AAz?$AA?$AA@ 0000000180056ae8     libucrt:get_qualified_locale.obj
 0002:0000eaf0       ??_C@_1BC@CHBCPFPI@?$AAp?$AAr?$AA?5?$AAc?$AAh?$AAi?$AAn?$AAa?$AA?$AA@ 0000000180056af0     libucrt:get_qualified_locale.obj
 0002:0000eb08       ??_C@_1BC@JAOIIFKD@?$AAp?$AAr?$AA?9?$AAc?$AAh?$AAi?$AAn?$AAa?$AA?$AA@ 0000000180056b08     libucrt:get_qualified_locale.obj
 0002:0000eb20       ??_C@_1BI@BEHPPHKC@?$AAp?$AAu?$AAe?$AAr?$AAt?$AAo?$AA?9?$AAr?$AAi?$AAc?$AAo?$AA?$AA@ 0000000180056b20     libucrt:get_qualified_locale.obj
 0002:0000eb38       ??_C@_1O@PAEOFKDI@?$AAs?$AAl?$AAo?$AAv?$AAa?$AAk?$AA?$AA@ 0000000180056b38     libucrt:get_qualified_locale.obj
 0002:0000eb48       ??_C@_1BK@FIHMCKAM@?$AAs?$AAo?$AAu?$AAt?$AAh?$AA?5?$AAa?$AAf?$AAr?$AAi?$AAc?$AAa?$AA?$AA@ 0000000180056b48     libucrt:get_qualified_locale.obj
 0002:0000eb68       ??_C@_1BI@NAEOODKB@?$AAs?$AAo?$AAu?$AAt?$AAh?$AA?5?$AAk?$AAo?$AAr?$AAe?$AAa?$AA?$AA@ 0000000180056b68     libucrt:get_qualified_locale.obj
 0002:0000eb80       ??_C@_1BK@FBDGGIFF@?$AAs?$AAo?$AAu?$AAt?$AAh?$AA?9?$AAa?$AAf?$AAr?$AAi?$AAc?$AAa?$AA?$AA@ 0000000180056b80     libucrt:get_qualified_locale.obj
 0002:0000eba0       ??_C@_1BI@GHLEJDPK@?$AAs?$AAo?$AAu?$AAt?$AAh?$AA?9?$AAk?$AAo?$AAr?$AAe?$AAa?$AA?$AA@ 0000000180056ba0     libucrt:get_qualified_locale.obj
 0002:0000ebb8       ??_C@_1CE@PLHLOMJF@?$AAt?$AAr?$AAi?$AAn?$AAi?$AAd?$AAa?$AAd?$AA?5?$AA?$CG?$AA?5?$AAt?$AAo?$AAb?$AAa?$AAg?$AAo?$AA?$AA@ 0000000180056bb8     libucrt:get_qualified_locale.obj
 0002:0000ebe0       ??_C@_1BO@MODIMHHI@?$AAu?$AAn?$AAi?$AAt?$AAe?$AAd?$AA?9?$AAk?$AAi?$AAn?$AAg?$AAd?$AAo?$AAm?$AA?$AA@ 0000000180056be0     libucrt:get_qualified_locale.obj
 0002:0000ec00       ??_C@_1BM@FFHJONBJ@?$AAu?$AAn?$AAi?$AAt?$AAe?$AAd?$AA?9?$AAs?$AAt?$AAa?$AAt?$AAe?$AAs?$AA?$AA@ 0000000180056c00     libucrt:get_qualified_locale.obj
 0002:0000ec20       ??_C@_17DNCLJFIF@?$AAA?$AAC?$AAP?$AA?$AA@ 0000000180056c20     libucrt:get_qualified_locale.obj
 0002:0000ec28       ??_C@_17CIKBIHLH@?$AAO?$AAC?$AAP?$AA?$AA@ 0000000180056c28     libucrt:get_qualified_locale.obj
 0002:0000ec30       __rglangidNotDefault       0000000180056c30     libucrt:getqloc_downlevel.obj
 0002:0000eeb0       ??_C@_1BA@BALFACEM@?$AAC?$AAO?$AAN?$AAO?$AAU?$AAT?$AA$?$AA?$AA@ 0000000180056eb0     libucrt:initcon.obj
 0002:0000eec0       __log10_256_lead           0000000180056ec0     libucrt:log10_256_lead_tail_table.obj
 0002:0000f6d0       __log10_256_tail           00000001800576d0     libucrt:log10_256_lead_tail_table.obj
 0002:0000fed8       ??_C@_1BK@DBDEIDLH@?$AAK?$AAE?$AAR?$AAN?$AAE?$AAL?$AA3?$AA2?$AA?4?$AAD?$AAL?$AAL?$AA?$AA@ 0000000180057ed8     DelayImp:delayhlp.obj
 0002:0000fef8       __pfnDliFailureHook2       0000000180057ef8     DelayImp:delayhk1.obj
 0002:0000ff00       _load_config_used          0000000180057f00     LIBCMT:loadcfg.obj
 0002:0000ff98       ??_C@_0BA@JFNIOLAK@string?5too?5long?$AA@ 0000000180057f98     zopfli-binding.obj
 0002:0000ffb0       ??_C@_1FI@JDCJFBJE@?$AAD?$AA?3?$AA?2?$AAG?$AAi?$AAt?$AAm?$AAu?$AAt?$AAl?$AAV?$AAu?$AAe?$AA?2?$AAK?$AAA?$AAO?$AAS?$AAe?$AAr?$AA?2?$AAn?$AAo?$AAd?$AAe?$AA_?$AAm?$AAo?$AAd?$AAu?$AAl?$AAe@ 0000000180057fb0     zopfli-binding.obj
 0002:00010010       ??_C@_1FM@LOELJOFK@?$AAs?$AAi?$AAz?$AAe?$AA?5?$AA?$DM?$AA?$DN?$AA?5?$AAi?$AAm?$AAp?$AA?3?$AA?3?$AAk?$AAM?$AAa?$AAx?$AAL?$AAe?$AAn?$AAg?$AAt?$AAh?$AA?5?$AA?$CG?$AA?$CG?$AA?5?$AA?$CC?$AAt?$AAo?$AAo?$AA?5@ 0000000180058010     zopfli-binding.obj
 0002:00010070       ??_C@_1BO@OPFMAOCA@?$AAl?$AAe?$AAn?$AA?5?$AA?$DM?$AA?$DN?$AA?5?$AAI?$AAN?$AAT?$AA_?$AAM?$AAA?$AAX?$AA?$AA@ 0000000180058070     zopfli-binding.obj
 0002:00010090       ??_C@_1BE@CKDJNAPC@?$AAs?$AAt?$AAr?$AA_?$AA?5?$AA?$CB?$AA?$DN?$AA?5?$AA0?$AA?$AA@ 0000000180058090     zopfli-binding.obj
 0002:000100a8       ??_C@_0CA@LFHFNPL@First?5argument?5must?5be?5a?5buffer?$AA@ 00000001800580a8     zopfli-binding.obj
 0002:000100c8       ??_C@_04HOHEGKBO@gzip?$AA@ 00000001800580c8     zopfli-binding.obj
 0002:000100d0       ??_C@_04OLICEBLN@zlib?$AA@ 00000001800580d0     zopfli-binding.obj
 0002:000100d8       ??_C@_07FNHFFEJG@deflate?$AA@ 00000001800580d8     zopfli-binding.obj
 0002:000100e0       ??_C@_0BG@CDGLDNGO@Invalid?5Zopfli?5format?$AA@ 00000001800580e0     zopfli-binding.obj
 0002:000100f8       ??_C@_0CB@NMCDMDOG@Second?5argument?5must?5be?5a?5string@ 00000001800580f8     zopfli-binding.obj
 0002:00010120       ??_C@_07KBAMPNJK@verbose?$AA@ 0000000180058120     zopfli-binding.obj
 0002:00010128       ??_C@_0N@OBHMEIFA@verbose_more?$AA@ 0000000180058128     zopfli-binding.obj
 0002:00010138       ??_C@_0O@FINABHEJ@numiterations?$AA@ 0000000180058138     zopfli-binding.obj
 0002:00010148       ??_C@_0P@KHILFNBG@blocksplitting?$AA@ 0000000180058148     zopfli-binding.obj
 0002:00010158       ??_C@_0BD@EDGPKCLK@blocksplittinglast?$AA@ 0000000180058158     zopfli-binding.obj
 0002:00010170       ??_C@_0BC@KGLNLOD@blocksplittingmax?$AA@ 0000000180058170     zopfli-binding.obj
 0002:00010188       ??_C@_0CB@OJMBMDPG@Third?5argument?5must?5be?5an?5object@ 0000000180058188     zopfli-binding.obj
 0002:000101b0       ??_C@_0CK@JBLKFGIN@Last?5argument?5must?5be?5a?5callback@ 00000001800581b0     zopfli-binding.obj
 0002:000101e0       ??_C@_0CC@HABKMGAA@adler?5must?5be?5an?5unsigned?5intege@ 00000001800581e0     zopfli-binding.obj
 0002:00010208       ??_C@_0BG@ECJPANEL@data?5must?5be?5a?5buffer?$AA@ 0000000180058208     zopfli-binding.obj
 0002:00010220       ??_C@_0M@NBBBBMKN@deflateSync?$AA@ 0000000180058220     zopfli-binding.obj
 0002:00010230       ??_C@_07NNOKLIPG@adler32?$AA@ 0000000180058230     zopfli-binding.obj
 0002:00010238       ??_C@_0M@MBNAHNGD@pngcompress?$AA@ 0000000180058238     zopfli-binding.obj
 0002:00010248       ??_C@_0BJ@IHNAFEBK@?4?4?2src?2zopfli?9binding?4cc?$AA@ 0000000180058248     zopfli-binding.obj
 0002:00010264       ??_C@_06MBEELINB@zopfli?$AA@ 0000000180058264     zopfli-binding.obj
 0002:00010270       ??_C@_0BI@CFPLBAOH@invalid?5string?5position?$AA@ 0000000180058270     zopfli-binding.obj
 0002:00010288       ??_7AsyncWorker@Nan@@6B@   0000000180058288     zopfli-binding.obj
 0002:000102b8       ??_7CompressWorker@nodezopfli@@6B@ 00000001800582b8     zopfli-binding.obj
 0002:000102e8       ??_C@_0BC@PNJEOMGM@lossy_transparent?$AA@ 00000001800582e8     zopflipng.obj
 0002:00010300       ??_C@_0CK@DIHEPAGK@Wrong?5type?5for?5option?5?8lossy_tra@ 0000000180058300     zopflipng.obj
 0002:00010330       ??_C@_0L@INKINDDK@lossy_8bit?$AA@ 0000000180058330     zopflipng.obj
 0002:00010340       ??_C@_0CD@OGCJNPCN@Wrong?5type?5for?5option?5?8lossy_8bi@ 0000000180058340     zopflipng.obj
 0002:00010368       ??_C@_0BC@NACAJLFP@filter_strategies?$AA@ 0000000180058368     zopflipng.obj
 0002:0001037c       ??_C@_04DDFHDMOL@zero?$AA@ 000000018005837c     zopflipng.obj
 0002:00010384       ??_C@_03OHDNLOHO@one?$AA@  0000000180058384     zopflipng.obj
 0002:00010388       ??_C@_03IJDNBOJF@two?$AA@  0000000180058388     zopflipng.obj
 0002:0001038c       ??_C@_05OAGMNDDJ@three?$AA@ 000000018005838c     zopflipng.obj
 0002:00010394       ??_C@_04DNJNMJF@four?$AA@  0000000180058394     zopflipng.obj
 0002:0001039c       ??_C@_06HKOICKDJ@minsum?$AA@ 000000018005839c     zopflipng.obj
 0002:000103a8       ??_C@_07DLHAIDD@entropy?$AA@ 00000001800583a8     zopflipng.obj
 0002:000103b0       ??_C@_0L@NNMGJOIO@predefined?$AA@ 00000001800583b0     zopflipng.obj
 0002:000103c0       ??_C@_0L@HDDOMAKK@bruteforce?$AA@ 00000001800583c0     zopflipng.obj
 0002:000103d0       ??_C@_0BC@LHICIJLE@Wrong?5strategy?5?3?5?$AA@ 00000001800583d0     zopflipng.obj
 0002:000103e8       ??_C@_0CK@IHIJCFAL@Wrong?5type?5for?5option?5?8filter_st@ 00000001800583e8     zopflipng.obj
 0002:00010418       ??_C@_0BF@JMDKOFOB@auto_filter_strategy?$AA@ 0000000180058418     zopflipng.obj
 0002:00010430       ??_C@_0CN@HPAIBDOM@Wrong?5type?5for?5option?5?8auto_filt@ 0000000180058430     zopflipng.obj
 0002:00010460       ??_C@_0L@DPFGDDOI@use_zopfli?$AA@ 0000000180058460     zopflipng.obj
 0002:00010470       ??_C@_0CD@IOEGJCDF@Wrong?5type?5for?5option?5?8use_zopfl@ 0000000180058470     zopflipng.obj
 0002:00010498       ??_C@_0P@MOGJOKFC@num_iterations?$AA@ 0000000180058498     zopflipng.obj
 0002:000104a8       ??_C@_0CH@BKFDFPBP@Wrong?5type?5for?5option?5?8num_itera@ 00000001800584a8     zopflipng.obj
 0002:000104d0       ??_C@_0BF@GEOAFHJD@num_iterations_large?$AA@ 00000001800584d0     zopflipng.obj
 0002:000104e8       ??_C@_0CN@MBPLNJEO@Wrong?5type?5for?5option?5?8num_itera@ 00000001800584e8     zopflipng.obj
 0002:00010518       ??_C@_0BF@FABKICOH@block_split_strategy?$AA@ 0000000180058518     zopflipng.obj
 0002:00010530       ??_C@_0CN@JGKHJGLO@Wrong?5type?5for?5option?5?8block_spl@ 0000000180058530     zopflipng.obj
 0002:00010560       ??_C@_0CO@MFNDLEJI@Wrong?5value?5for?5option?5?8block_sp@ 0000000180058560     zopflipng.obj
 0002:00010590       ??_C@_0CA@PHEBDBMF@First?5argument?5must?5be?5a?5string?$AA@ 0000000180058590     zopflipng.obj
 0002:000105b0       ??_C@_0BH@NADJJHFL@Decoding?5error?5?$CFu?3?5?$CFs?6?$AA@ 00000001800585b0     zopflipng.obj
 0002:000105c8       ??_C@_0CH@KDEIGCA@Error?3?5verification?5of?5result?5fa@ 00000001800585c8     zopflipng.obj
 0002:000105f0       ??_C@_0BD@OLBABOEK@vector?$DMT?$DO?5too?5long?$AA@ 00000001800585f0     zopflipng.obj
 0002:00010610       ??_C@_1EK@JBOFMPIN@?$AA?4?$AA?4?$AA?2?$AAz?$AAo?$AAp?$AAf?$AAl?$AAi?$AA?2?$AAs?$AAr?$AAc?$AA?2?$AAz?$AAo?$AAp?$AAf?$AAl?$AAi?$AA?2?$AAb?$AAl?$AAo?$AAc?$AAk?$AAs?$AAp?$AAl?$AAi?$AAt?$AAt@ 0000000180058610     blocksplitter.obj
 0002:00010660       ??_C@_1CO@JDNDFHHI@?$AAn?$AAp?$AAo?$AAi?$AAn?$AAt?$AAs?$AA?5?$AA?$DN?$AA?$DN?$AA?5?$AAn?$AAl?$AAz?$AA7?$AA7?$AAp?$AAo?$AAi?$AAn?$AAt?$AAs?$AA?$AA@ 0000000180058660     blocksplitter.obj
 0002:00010690       ??_C@_0BF@PAGILADF@block?5split?5points?3?5?$AA@ 0000000180058690     blocksplitter.obj
 0002:000106a8       ??_C@_03JDANDILB@?$CFd?5?$AA@ 00000001800586a8     blocksplitter.obj
 0002:000106ac       ??_C@_05HPDDAFCL@?$CIhex?3?$AA@ 00000001800586ac     blocksplitter.obj
 0002:000106b4       ??_C@_03KHOJPICI@?5?$CFx?$AA@ 00000001800586b4     blocksplitter.obj
 0002:000106b8       ??_C@_02MNMNLDAI@?$CJ?6?$AA@ 00000001800586b8     blocksplitter.obj
 0002:000106c0       ??_C@_1BM@DLCIHOKI@?$AAl?$AAs?$AAt?$AAa?$AAr?$AAt?$AA?5?$AA?$DM?$AA?5?$AAl?$AAe?$AAn?$AAd?$AA?$AA@ 00000001800586c0     blocksplitter.obj
 0002:000106e0       ??_C@_1BO@EEBAHOKC@?$AAl?$AAl?$AAp?$AAo?$AAs?$AA?5?$AA?$DO?$AA?5?$AAl?$AAs?$AAt?$AAa?$AAr?$AAt?$AA?$AA@ 00000001800586e0     blocksplitter.obj
 0002:00010700       ??_C@_1BK@MHLEIIAD@?$AAl?$AAl?$AAp?$AAo?$AAs?$AA?5?$AA?$DM?$AA?5?$AAl?$AAe?$AAn?$AAd?$AA?$AA@ 0000000180058700     blocksplitter.obj
 0002:00010720       ??_C@_1DA@PEEANHJL@?$AA?$CK?$AAn?$AAp?$AAo?$AAi?$AAn?$AAt?$AAs?$AA?5?$AA?$DN?$AA?$DN?$AA?5?$AAn?$AAl?$AAz?$AA7?$AA7?$AAp?$AAo?$AAi?$AAn?$AAt?$AAs?$AA?$AA@ 0000000180058720     blocksplitter.obj
 0002:00010750       ??_C@_0DN@MABBBPE@Error?3?5Out?5of?5memory?4?5Tried?5allo@ 0000000180058750     cache.obj
 0002:00010790       ??_C@_1DK@CBCJFJDC@?$AA?4?$AA?4?$AA?2?$AAz?$AAo?$AAp?$AAf?$AAl?$AAi?$AA?2?$AAs?$AAr?$AAc?$AA?2?$AAz?$AAo?$AAp?$AAf?$AAl?$AAi?$AA?2?$AAc?$AAa?$AAc?$AAh?$AAe?$AA?4?$AAc?$AA?$AA@ 0000000180058790     cache.obj
 0002:000107d0       ??_C@_1CK@FHDOOKKD@?$AAb?$AAe?$AAs?$AAt?$AAl?$AAe?$AAn?$AAg?$AAt?$AAh?$AA?5?$AA?$DN?$AA?$DN?$AA?5?$AAl?$AAe?$AAn?$AAg?$AAt?$AAh?$AA?$AA@ 00000001800587d0     cache.obj
 0002:00010800       ??_C@_1CK@DCFJNBOF@?$AAb?$AAe?$AAs?$AAt?$AAl?$AAe?$AAn?$AAg?$AAt?$AAh?$AA?5?$AA?$DM?$AA?$DN?$AA?5?$AAl?$AAe?$AAn?$AAg?$AAt?$AAh?$AA?$AA@ 0000000180058800     cache.obj
 0002:00010830       ??_C@_1GM@PGJJKPIB@?$AAb?$AAe?$AAs?$AAt?$AAl?$AAe?$AAn?$AAg?$AAt?$AAh?$AA?5?$AA?$DN?$AA?$DN?$AA?5?$AAZ?$AAo?$AAp?$AAf?$AAl?$AAi?$AAM?$AAa?$AAx?$AAC?$AAa?$AAc?$AAh?$AAe?$AAd?$AAS?$AAu?$AAb@ 0000000180058830     cache.obj
 0002:000108a0       ??_C@_1DO@MHBDJBOK@?$AA?4?$AA?4?$AA?2?$AAz?$AAo?$AAp?$AAf?$AAl?$AAi?$AA?2?$AAs?$AAr?$AAc?$AA?2?$AAz?$AAo?$AAp?$AAf?$AAl?$AAi?$AA?2?$AAd?$AAe?$AAf?$AAl?$AAa?$AAt?$AAe?$AA?4?$AAc?$AA?$AA@ 00000001800588a0     deflate.obj
 0002:000108e0       ??_C@_1BK@GLMBGCKN@?$AAl?$AAi?$AAt?$AAl?$AAe?$AAn?$AA?5?$AA?$DM?$AA?5?$AA2?$AA5?$AA6?$AA?$AA@ 00000001800588e0     deflate.obj
 0002:00010900       ??_C@_1CO@KIGJJPMB@?$AAl?$AAl?$AA_?$AAl?$AAe?$AAn?$AAg?$AAt?$AAh?$AAs?$AA?$FL?$AAl?$AAi?$AAt?$AAl?$AAe?$AAn?$AA?$FN?$AA?5?$AA?$DO?$AA?5?$AA0?$AA?$AA@ 0000000180058900     deflate.obj
 0002:00010930       ??_C@_1DK@KNFMEGOF@?$AAl?$AAi?$AAt?$AAl?$AAe?$AAn?$AA?5?$AA?$DO?$AA?$DN?$AA?5?$AA3?$AA?5?$AA?$CG?$AA?$CG?$AA?5?$AAl?$AAi?$AAt?$AAl?$AAe?$AAn?$AA?5?$AA?$DM?$AA?$DN?$AA?5?$AA2?$AA8?$AA8?$AA?$AA@ 0000000180058930     deflate.obj
 0002:00010970       ??_C@_1CI@BHHMAEMB@?$AAl?$AAl?$AA_?$AAl?$AAe?$AAn?$AAg?$AAt?$AAh?$AAs?$AA?$FL?$AAl?$AAl?$AAs?$AA?$FN?$AA?5?$AA?$DO?$AA?5?$AA0?$AA?$AA@ 0000000180058970     deflate.obj
 0002:00010998       ??_C@_1CE@NAHDJKEM@?$AAd?$AA_?$AAl?$AAe?$AAn?$AAg?$AAt?$AAh?$AAs?$AA?$FL?$AAd?$AAs?$AA?$FN?$AA?5?$AA?$DO?$AA?5?$AA0?$AA?$AA@ 0000000180058998     deflate.obj
 0002:000109c0       ??_C@_1BO@MCHEFCKD@?$AAi?$AA?5?$AA?$DM?$AA?5?$AAl?$AAz?$AA7?$AA7?$AA?9?$AA?$DO?$AAs?$AAi?$AAz?$AAe?$AA?$AA@ 00000001800589c0     deflate.obj
 0002:000109e0       ??_C@_1CO@EICCNFEP@?$AAl?$AAz?$AA7?$AA7?$AA?9?$AA?$DO?$AAl?$AAi?$AAt?$AAl?$AAe?$AAn?$AAs?$AA?$FL?$AAi?$AA?$FN?$AA?5?$AA?$DM?$AA?5?$AA2?$AA5?$AA9?$AA?$AA@ 00000001800589e0     deflate.obj
 0002:00010a10       ??_C@_1BG@JKHBPJMC@?$AAb?$AAt?$AAy?$AAp?$AAe?$AA?5?$AA?$DN?$AA?$DN?$AA?5?$AA2?$AA?$AA@ 0000000180058a10     deflate.obj
 0002:00010a28       ??_C@_0O@NJAAGKAA@treesize?3?5?$CFd?6?$AA@ 0000000180058a28     deflate.obj
 0002:00010a38       ??_C@_0CL@FJFIOHKL@compressed?5block?5size?3?5?$CFd?5?$CI?$CFdk?$CJ?5@ 0000000180058a38     deflate.obj
 0002:00010a68       ??_C@_0DN@HFPJKKKC@Original?5Size?3?5?$CFlu?0?5Deflate?3?5?$CFlu@ 0000000180058a68     deflate.obj
 0002:00011828       ?LODEPNG_VERSION_STRING@@3PEBDEB 0000000180059828     lodepng.obj
 0002:000120b8       __pfnDliNotifyHook2        000000018005a0b8     win_delay_load_hook.obj
 0002:00012e90       ?lodepng_default_decompress_settings@@3ULodePNGDecompressSettings@@B 000000018005ae90     lodepng.obj
 0002:00013220       ??_C@_0DI@IOACCPFG@Original?5Size?3?5?$CFd?0?5Gzip?3?5?$CFd?0?5Com@ 000000018005b220     gzip_container.obj
 0002:00013258       ??_C@_1DI@CKCGODPC@?$AA?4?$AA?4?$AA?2?$AAz?$AAo?$AAp?$AAf?$AAl?$AAi?$AA?2?$AAs?$AAr?$AAc?$AA?2?$AAz?$AAo?$AAp?$AAf?$AAl?$AAi?$AA?2?$AAl?$AAz?$AA7?$AA7?$AA?4?$AAc?$AA?$AA@ 000000018005b258     lz77.obj
 0002:00013290       ??_C@_1BK@BGFPGNLO@?$AAl?$AAe?$AAn?$AAg?$AAt?$AAh?$AA?5?$AA?$DM?$AA?5?$AA2?$AA5?$AA9?$AA?$AA@ 000000018005b290     lz77.obj
 0002:000132b0       ??_C@_1DC@MINEKABK@?$AAp?$AAo?$AAs?$AA?5?$AA?$CL?$AA?5?$AAl?$AAe?$AAn?$AAg?$AAt?$AAh?$AA?5?$AA?$DM?$AA?$DN?$AA?5?$AAd?$AAa?$AAt?$AAa?$AAs?$AAi?$AAz?$AAe?$AA?$AA@ 000000018005b2b0     lz77.obj
 0002:000132f0       ??_C@_1EM@DDOMPDKB@?$AAd?$AAa?$AAt?$AAa?$AA?$FL?$AAp?$AAo?$AAs?$AA?5?$AA?9?$AA?5?$AAd?$AAi?$AAs?$AAt?$AA?5?$AA?$CL?$AA?5?$AAi?$AA?$FN?$AA?5?$AA?$DN?$AA?$DN?$AA?5?$AAd?$AAa?$AAt?$AAa?$AA?$FL?$AAp?$AAo?$AAs@ 000000018005b2f0     lz77.obj
 0002:00013340       ??_C@_1FA@MEJEJLMB@?$AAs?$AAu?$AAb?$AAl?$AAe?$AAn?$AA?$FL?$AA?$CK?$AAl?$AAe?$AAn?$AAg?$AAt?$AAh?$AA?$FN?$AA?5?$AA?$DN?$AA?$DN?$AA?5?$AAs?$AA?9?$AA?$DO?$AAl?$AAm?$AAc?$AA?9?$AA?$DO?$AAd?$AAi?$AAs?$AAt?$AA?$FL@ 000000018005b340     lz77.obj
 0002:00013390       ??_C@_1HC@HBINDMIA@?$AAs?$AA?9?$AA?$DO?$AAl?$AAm?$AAc?$AA?9?$AA?$DO?$AAl?$AAe?$AAn?$AAg?$AAt?$AAh?$AA?$FL?$AAl?$AAm?$AAc?$AAp?$AAo?$AAs?$AA?$FN?$AA?5?$AA?$DN?$AA?$DN?$AA?5?$AA1?$AA?5?$AA?$CG?$AA?$CG?$AA?5?$AAs@ 000000018005b390     lz77.obj
 0002:00013410       ??_C@_1HI@KIMINPHE@?$AA?$CB?$AA?$CI?$AAs?$AA?9?$AA?$DO?$AAl?$AAm?$AAc?$AA?9?$AA?$DO?$AAl?$AAe?$AAn?$AAg?$AAt?$AAh?$AA?$FL?$AAl?$AAm?$AAc?$AAp?$AAo?$AAs?$AA?$FN?$AA?5?$AA?$DN?$AA?$DN?$AA?5?$AA1?$AA?5?$AA?$CG?$AA?$CG@ 000000018005b410     lz77.obj
 0002:00013488       ??_C@_1CM@IKGPKMDN@?$AAp?$AAo?$AAs?$AA?5?$AA?$CL?$AA?5?$AA?$CK?$AAl?$AAe?$AAn?$AAg?$AAt?$AAh?$AA?5?$AA?$DM?$AA?$DN?$AA?5?$AAs?$AAi?$AAz?$AAe?$AA?$AA@ 000000018005b488     lz77.obj
 0002:000134b8       ??_C@_1DE@HMOMCNGO@?$AAl?$AAi?$AAm?$AAi?$AAt?$AA?5?$AA?$DM?$AA?$DN?$AA?5?$AAZ?$AAO?$AAP?$AAF?$AAL?$AAI?$AA_?$AAM?$AAA?$AAX?$AA_?$AAM?$AAA?$AAT?$AAC?$AAH?$AA?$AA@ 000000018005b4b8     lz77.obj
 0002:000134f0       ??_C@_1DE@FLPDPGNH@?$AAl?$AAi?$AAm?$AAi?$AAt?$AA?5?$AA?$DO?$AA?$DN?$AA?5?$AAZ?$AAO?$AAP?$AAF?$AAL?$AAI?$AA_?$AAM?$AAI?$AAN?$AA_?$AAM?$AAA?$AAT?$AAC?$AAH?$AA?$AA@ 000000018005b4f0     lz77.obj
 0002:00013528       ??_C@_1BG@DGDDKFMN@?$AAp?$AAo?$AAs?$AA?5?$AA?$DM?$AA?5?$AAs?$AAi?$AAz?$AAe?$AA?$AA@ 000000018005b528     lz77.obj
 0002:00013540       ??_C@_1BK@NJPHIJEP@?$AAh?$AAv?$AAa?$AAl?$AA?5?$AA?$DM?$AA?5?$AA6?$AA5?$AA5?$AA3?$AA6?$AA?$AA@ 000000018005b540     lz77.obj
 0002:00013560       ??_C@_1BG@DMHDNJBG@?$AAp?$AAp?$AA?5?$AA?$DN?$AA?$DN?$AA?5?$AAh?$AAp?$AAo?$AAs?$AA?$AA@ 000000018005b560     lz77.obj
 0002:00013578       ??_C@_1CO@PMPOHFFG@?$AAp?$AA?5?$AA?$DM?$AA?5?$AAZ?$AAO?$AAP?$AAF?$AAL?$AAI?$AA_?$AAW?$AAI?$AAN?$AAD?$AAO?$AAW?$AA_?$AAS?$AAI?$AAZ?$AAE?$AA?$AA@ 000000018005b578     lz77.obj
 0002:000135a8       ??_C@_1BO@PBADCFIH@?$AAp?$AA?5?$AA?$DN?$AA?$DN?$AA?5?$AAh?$AAp?$AAr?$AAe?$AAv?$AA?$FL?$AAp?$AAp?$AA?$FN?$AA?$AA@ 000000018005b5a8     lz77.obj
 0002:000135c8       ??_C@_1CI@IPGMJBHO@?$AAh?$AAh?$AAa?$AAs?$AAh?$AAv?$AAa?$AAl?$AA?$FL?$AAp?$AA?$FN?$AA?5?$AA?$DN?$AA?$DN?$AA?5?$AAh?$AAv?$AAa?$AAl?$AA?$AA@ 000000018005b5c8     lz77.obj
 0002:000135f0       ??_C@_1BI@NMJMLAIE@?$AAd?$AAi?$AAs?$AAt?$AA?5?$AA?$DM?$AA?$DN?$AA?5?$AAp?$AAo?$AAs?$AA?$AA@ 000000018005b5f0     lz77.obj
 0002:00013608       ??_C@_1CI@INIGGG@?$AAb?$AAe?$AAs?$AAt?$AAl?$AAe?$AAn?$AAg?$AAt?$AAh?$AA?5?$AA?$DM?$AA?$DN?$AA?5?$AAl?$AAi?$AAm?$AAi?$AAt?$AA?$AA@ 000000018005b608     lz77.obj
 0002:00013630       ??_C@_1BE@IFOOONKD@?$AAi?$AA?5?$AA?$DM?$AA?5?$AAi?$AAn?$AAe?$AAn?$AAd?$AA?$AA@ 000000018005b630     lz77.obj
 0002:00013648       ??_C@_1DO@JPOMGJKC@?$AA?4?$AA?4?$AA?2?$AAz?$AAo?$AAp?$AAf?$AAl?$AAi?$AA?2?$AAs?$AAr?$AAc?$AA?2?$AAz?$AAo?$AAp?$AAf?$AAl?$AAi?$AA?2?$AAs?$AAq?$AAu?$AAe?$AAe?$AAz?$AAe?$AA?4?$AAc?$AA?$AA@ 000000018005b648     squeeze.obj
 0002:00013688       ??_C@_1BK@MGPBDEPJ@?$AAn?$AAe?$AAw?$AAC?$AAo?$AAs?$AAt?$AA?5?$AA?$DO?$AA?$DN?$AA?5?$AA0?$AA?$AA@ 000000018005b688     squeeze.obj
 0002:000136a8       ??_C@_1CM@OPANCIPN@?$AAk?$AA?5?$AA?$DM?$AA?$DN?$AA?5?$AAZ?$AAO?$AAP?$AAF?$AAL?$AAI?$AA_?$AAM?$AAA?$AAX?$AA_?$AAM?$AAA?$AAT?$AAC?$AAH?$AA?$AA@ 000000018005b6a8     squeeze.obj
 0002:000136d8       ??_C@_1CM@OJKGOFBC@?$AAc?$AAo?$AAs?$AAt?$AAs?$AA?$FL?$AAb?$AAl?$AAo?$AAc?$AAk?$AAs?$AAi?$AAz?$AAe?$AA?$FN?$AA?5?$AA?$DO?$AA?$DN?$AA?5?$AA0?$AA?$AA@ 000000018005b6d8     squeeze.obj
 0002:00013708       ??_C@_1DK@GIKOFLNP@?$AAl?$AAe?$AAn?$AAg?$AAt?$AAh?$AA_?$AAa?$AAr?$AAr?$AAa?$AAy?$AA?$FL?$AAi?$AAn?$AAd?$AAe?$AAx?$AA?$FN?$AA?5?$AA?$DM?$AA?$DN?$AA?5?$AAi?$AAn?$AAd?$AAe?$AAx?$AA?$AA@ 000000018005b708     squeeze.obj
 0002:00013750       ??_C@_1FA@IHMOJNDF@?$AAl?$AAe?$AAn?$AAg?$AAt?$AAh?$AA_?$AAa?$AAr?$AAr?$AAa?$AAy?$AA?$FL?$AAi?$AAn?$AAd?$AAe?$AAx?$AA?$FN?$AA?5?$AA?$DM?$AA?$DN?$AA?5?$AAZ?$AAO?$AAP?$AAF?$AAL?$AAI?$AA_?$AAM?$AAA@ 000000018005b750     squeeze.obj
 0002:000137a0       ??_C@_1DC@JPECEOBA@?$AAl?$AAe?$AAn?$AAg?$AAt?$AAh?$AA_?$AAa?$AAr?$AAr?$AAa?$AAy?$AA?$FL?$AAi?$AAn?$AAd?$AAe?$AAx?$AA?$FN?$AA?5?$AA?$CB?$AA?$DN?$AA?5?$AA0?$AA?$AA@ 000000018005b7a0     squeeze.obj
 0002:000137d8       ??_C@_1BI@KHADGFKD@?$AAp?$AAo?$AAs?$AA?5?$AA?$DM?$AA?5?$AAi?$AAn?$AAe?$AAn?$AAd?$AA?$AA@ 000000018005b7d8     squeeze.obj
 0002:000137f0       ??_C@_1HI@BFLJFMHG@?$AA?$CB?$AA?$CI?$AAd?$AAu?$AAm?$AAm?$AAy?$AA_?$AAl?$AAe?$AAn?$AAg?$AAt?$AAh?$AA?5?$AA?$CB?$AA?$DN?$AA?5?$AAl?$AAe?$AAn?$AAg?$AAt?$AAh?$AA?5?$AA?$CG?$AA?$CG?$AA?5?$AAl?$AAe?$AAn?$AAg@ 000000018005b7f0     squeeze.obj
 0002:00013868       ??_C@_1CM@IJOBILJB@?$AAp?$AAo?$AAs?$AA?5?$AA?$CL?$AA?5?$AAl?$AAe?$AAn?$AAg?$AAt?$AAh?$AA?5?$AA?$DM?$AA?$DN?$AA?5?$AAi?$AAn?$AAe?$AAn?$AAd?$AA?$AA@ 000000018005b868     squeeze.obj
 0002:00013898       ??_C@_1DE@KKLLHJCH@?$AAc?$AAo?$AAs?$AAt?$AA?5?$AA?$DM?$AA?5?$AAZ?$AAO?$AAP?$AAF?$AAL?$AAI?$AA_?$AAL?$AAA?$AAR?$AAG?$AAE?$AA_?$AAF?$AAL?$AAO?$AAA?$AAT?$AA?$AA@ 000000018005b898     squeeze.obj
 0002:000138d0       ??_C@_0BG@EABFLJIF@Iteration?5?$CFd?3?5?$CFd?5bit?6?$AA@ 000000018005b8d0     squeeze.obj
 0002:000138e8       ??_C@_1DI@NDCDBFJI@?$AA?4?$AA?4?$AA?2?$AAz?$AAo?$AAp?$AAf?$AAl?$AAi?$AA?2?$AAs?$AAr?$AAc?$AA?2?$AAz?$AAo?$AAp?$AAf?$AAl?$AAi?$AA?2?$AAt?$AAr?$AAe?$AAe?$AA?4?$AAc?$AA?$AA@ 000000018005b8e8     tree.obj
 0002:00013920       ??_C@_1CM@PCLHGGCA@?$AAl?$AAe?$AAn?$AAg?$AAt?$AAh?$AAs?$AA?$FL?$AAi?$AA?$FN?$AA?5?$AA?$DM?$AA?$DN?$AA?5?$AAm?$AAa?$AAx?$AAb?$AAi?$AAt?$AAs?$AA?$AA@ 000000018005b920     tree.obj
 0002:00013950       ??_C@_1CG@OPKBECCB@?$AAb?$AAi?$AAt?$AAl?$AAe?$AAn?$AAg?$AAt?$AAh?$AAs?$AA?$FL?$AAi?$AA?$FN?$AA?5?$AA?$DO?$AA?$DN?$AA?5?$AA0?$AA?$AA@ 000000018005b950     tree.obj
 0002:00013978       ??_C@_1O@OKIDBCFO@?$AA?$CB?$AAe?$AAr?$AAr?$AAo?$AAr?$AA?$AA@ 000000018005b978     tree.obj
 0002:00013988       ??_C@_0DI@JKAILBFK@Original?5Size?3?5?$CFd?0?5Zlib?3?5?$CFd?0?5Com@ 000000018005b988     zlib_container.obj
 0002:000139c0       ??_C@_1EE@OCNDKKAD@?$AA?4?$AA?4?$AA?2?$AAz?$AAo?$AAp?$AAf?$AAl?$AAi?$AA?2?$AAs?$AAr?$AAc?$AA?2?$AAz?$AAo?$AAp?$AAf?$AAl?$AAi?$AA?2?$AAz?$AAo?$AAp?$AAf?$AAl?$AAi?$AA_?$AAl?$AAi?$AAb?$AA?4@ 000000018005b9c0     zopfli_lib.obj
 0002:00013a04       ??_C@_13COJANIEC@?$AA0?$AA?$AA@ 000000018005ba04     zopfli_lib.obj
 0002:00013a08       ??_C@_0BH@MLHBPGMP@Encoding?5error?5?$CFu?3?5?$CFs?6?$AA@ 000000018005ba08     zopflipng_lib.obj
 0002:00013a20       ??_C@_0M@FNFGDGLC@minimum?5sum?$AA@ 000000018005ba20     zopflipng_lib.obj
 0002:00013a30       ??_C@_0M@FKHGOFCE@brute?5force?$AA@ 000000018005ba30     zopflipng_lib.obj
 0002:00013a3c       ??_C@_04HHPKOCLH@bKGD?$AA@ 000000018005ba3c     zopflipng_lib.obj
 0002:00013a44       ??_C@_04BHCOCMFE@sBIT?$AA@ 000000018005ba44     zopflipng_lib.obj
 0002:00013a50       ??_C@_0BE@JONHPENG@map?1set?$DMT?$DO?5too?5long?$AA@ 000000018005ba50     zopflipng_lib.obj
 0002:00013a68       ??_C@_08LEEMKFHE@20160409?$AA@ 000000018005ba68     lodepng.obj
 0002:00013a74       ??_C@_02JDPG@rb?$AA@       000000018005ba74     lodepng.obj
 0002:00013a78       ??_C@_02GMLFBBN@wb?$AA@    000000018005ba78     lodepng.obj
 0002:00013a7c       ??_C@_04MNIAFIMC@IHDR?$AA@ 000000018005ba7c     lodepng.obj
 0002:00013a84       ??_C@_04NHMHICBH@IDAT?$AA@ 000000018005ba84     lodepng.obj
 0002:00013a8c       ??_C@_04COOFLABO@IEND?$AA@ 000000018005ba8c     lodepng.obj
 0002:00013a94       ??_C@_04DGLHBNIA@PLTE?$AA@ 000000018005ba94     lodepng.obj
 0002:00013a9c       ??_C@_04LPBJCHJJ@tRNS?$AA@ 000000018005ba9c     lodepng.obj
 0002:00013aa4       ??_C@_04LALJCFBI@tEXt?$AA@ 000000018005baa4     lodepng.obj
 0002:00013aac       ??_C@_04OHCMKLID@zTXt?$AA@ 000000018005baac     lodepng.obj
 0002:00013ab4       ??_C@_04MAGMEGNB@iTXt?$AA@ 000000018005bab4     lodepng.obj
 0002:00013abc       ??_C@_04CGNPPMIJ@tIME?$AA@ 000000018005babc     lodepng.obj
 0002:00013ac4       ??_C@_04PJNAKHPF@pHYs?$AA@ 000000018005bac4     lodepng.obj
 0002:00013ad0       ??_C@_07FFJHAIOD@LodePNG?$AA@ 000000018005bad0     lodepng.obj
 0002:00013ad8       ??_C@_0BN@IBGHKPF@no?5error?0?5everything?5went?5ok?$AA@ 000000018005bad8     lodepng.obj
 0002:00013af8       ??_C@_0BB@KHCEDELJ@nothing?5done?5yet?$AA@ 000000018005baf8     lodepng.obj
 0002:00013b10       ??_C@_0DF@INKBJCMB@end?5of?5input?5memory?5reached?5with@ 000000018005bb10     lodepng.obj
 0002:00013b48       ??_C@_0DI@OINNFIKI@error?5in?5code?5tree?5made?5it?5jump?5@ 000000018005bb48     lodepng.obj
 0002:00013b80       ??_C@_0CP@DDHBCAOL@problem?5while?5processing?5dynamic@ 000000018005bb80     lodepng.obj
 0002:00013bb0       ??_C@_0DH@GKGLPABJ@unexisting?5code?5while?5processing@ 000000018005bbb0     lodepng.obj
 0002:00013be8       ??_C@_0DB@CCCHOPLJ@end?5of?5out?5buffer?5memory?5reached@ 000000018005bbe8     lodepng.obj
 0002:00013c20       ??_C@_0CG@MOLAAFOP@invalid?5distance?5code?5while?5infl@ 000000018005bc20     lodepng.obj
 0002:00013c48       ??_C@_0DH@OHJCBPG@invalid?5deflate?5block?5BTYPE?5enco@ 000000018005bc48     lodepng.obj
 0002:00013c80       ??_C@_0DG@LJBKCKDJ@NLEN?5is?5not?5ones?5complement?5of?5L@ 000000018005bc80     lodepng.obj
 0002:00013cb8       ??_C@_0DA@BOMDJJCD@end?5of?5in?5buffer?5memory?5reached?5@ 000000018005bcb8     lodepng.obj
 0002:00013ce8       ??_C@_0BO@LPIJIILG@invalid?5FCHECK?5in?5zlib?5header?$AA@ 000000018005bce8     lodepng.obj
 0002:00013d08       ??_C@_0CK@OFGJAJAB@invalid?5compression?5method?5in?5zl@ 000000018005bd08     lodepng.obj
 0002:00013d38       ??_C@_0DN@IHNMFLFH@FDICT?5encountered?5in?5zlib?5header@ 000000018005bd38     lodepng.obj
 0002:00013d78       ??_C@_0CG@PKFJEKKJ@PNG?5file?5is?5smaller?5than?5a?5PNG?5h@ 000000018005bd78     lodepng.obj
 0002:00013da0       ??_C@_0DC@KNOMKLMA@incorrect?5PNG?5signature?0?5it?8s?5no@ 000000018005bda0     lodepng.obj
 0002:00013dd8       ??_C@_0CE@PGBEOGCC@first?5chunk?5is?5not?5the?5header?5ch@ 000000018005bdd8     lodepng.obj
 0002:00013e00       ??_C@_0DI@DMLNOICN@chunk?5length?5too?5large?0?5chunk?5br@ 000000018005be00     lodepng.obj
 0002:00013e38       ??_C@_0BO@NDHLKIKI@illegal?5PNG?5color?5type?5or?5bpp?$AA@ 000000018005be38     lodepng.obj
 0002:00013e58       ??_C@_0BP@ODHKPHCH@illegal?5PNG?5compression?5method?$AA@ 000000018005be58     lodepng.obj
 0002:00013e78       ??_C@_0BK@NEGKONLH@illegal?5PNG?5filter?5method?$AA@ 000000018005be78     lodepng.obj
 0002:00013e98       ??_C@_0BN@BGHOFLAF@illegal?5PNG?5interlace?5method?$AA@ 000000018005be98     lodepng.obj
 0002:00013eb8       ??_C@_0DM@MBIDFHIJ@chunk?5length?5of?5a?5chunk?5is?5too?5l@ 000000018005beb8     lodepng.obj
 0002:00013ef8       ??_C@_0CE@HJIDBMAH@illegal?5PNG?5filter?5type?5encounte@ 000000018005bef8     lodepng.obj
 0002:00013f20       ??_C@_0CM@DFEKLLPN@illegal?5bit?5depth?5for?5this?5color@ 000000018005bf20     lodepng.obj
 0002:00013f50       ??_C@_0BH@ICFHIN@the?5palette?5is?5too?5big?$AA@ 000000018005bf50     lodepng.obj
 0002:00013f70       ??_C@_0FD@FKNMJHIN@more?5palette?5alpha?5values?5given?5@ 000000018005bf70     lodepng.obj
 0002:00013fc8       ??_C@_0CO@JKEKIBLK@tRNS?5chunk?5has?5wrong?5size?5for?5gr@ 000000018005bfc8     lodepng.obj
 0002:00013ff8       ??_C@_0CI@IFCNLLFM@tRNS?5chunk?5has?5wrong?5size?5for?5RG@ 000000018005bff8     lodepng.obj
 0002:00014020       ??_C@_0EB@CHDDNMPD@tRNS?5chunk?5appeared?5while?5it?5was@ 000000018005c020     lodepng.obj
 0002:00014068       ??_C@_0CM@HNLFOPI@bKGD?5chunk?5has?5wrong?5size?5for?5pa@ 000000018005c068     lodepng.obj
 0002:00014098       ??_C@_0CO@FCGEOFKF@bKGD?5chunk?5has?5wrong?5size?5for?5gr@ 000000018005c098     lodepng.obj
 0002:000140c8       ??_C@_0CI@CMLABIJA@bKGD?5chunk?5has?5wrong?5size?5for?5RG@ 000000018005c0c8     lodepng.obj
 0002:000140f0       ??_C@_0EI@GHHJBLGG@empty?5input?5buffer?5given?5to?5deco@ 000000018005c0f0     lodepng.obj
 0002:00014138       ??_C@_0DJ@MHOEEPLI@jumped?5past?5memory?5while?5generat@ 000000018005c138     lodepng.obj
 0002:00014178       ??_C@_0DB@BNPOFNMD@jumped?5past?5memory?5while?5inflati@ 000000018005c178     lodepng.obj
 0002:000141b0       ??_C@_0CD@ICHNJILK@jumped?5past?5memory?5while?5inflati@ 000000018005c1b0     lodepng.obj
 0002:000141d8       ??_C@_0BM@CEJPNBLF@size?5of?5zlib?5data?5too?5small?$AA@ 000000018005c1d8     lodepng.obj
 0002:000141f8       ??_C@_0DK@DEJNNMNC@repeat?5symbol?5in?5tree?5while?5ther@ 000000018005c1f8     lodepng.obj
 0002:00014238       ??_C@_0CP@JKHHNIDN@jumped?5past?5tree?5while?5generatin@ 000000018005c238     lodepng.obj
 0002:00014270       ??_C@_0EM@MLFECFBO@given?5output?5image?5colortype?5or?5@ 000000018005c270     lodepng.obj
 0002:000142c0       ??_C@_0DH@GCCBCJBH@invalid?5CRC?5encountered?5?$CIcheckin@ 000000018005c2c0     lodepng.obj
 0002:000142f8       ??_C@_0DP@NMFEBLDJ@invalid?5ADLER32?5encountered?5?$CIche@ 000000018005c2f8     lodepng.obj
 0002:00014338       ??_C@_0CJ@PKIBMELO@requested?5color?5conversion?5not?5s@ 000000018005c338     lodepng.obj
 0002:00014370       ??_C@_0EL@DFAHNGDC@invalid?5window?5size?5given?5in?5the@ 000000018005c370     lodepng.obj
 0002:000143c0       ??_C@_0FB@CGBCJAKP@invalid?5BTYPE?5given?5in?5the?5setti@ 000000018005c3c0     lodepng.obj
 0002:00014418       ??_C@_0DB@DIPJMLEM@conversion?5from?5color?5to?5greysca@ 000000018005c418     lodepng.obj
 0002:00014450       ??_C@_0EO@OPNCIJKM@length?5of?5a?5chunk?5too?5long?0?5max?5@ 000000018005c450     lodepng.obj
 0002:000144a0       ??_C@_0DK@CGBJPOCG@the?5length?5of?5the?5END?5symbol?5256@ 000000018005c4a0     lodepng.obj
 0002:000144e0       ??_C@_0FP@NKPOKJKO@the?5length?5of?5a?5text?5chunk?5keywo@ 000000018005c4e0     lodepng.obj
 0002:00014540       ??_C@_0FO@HGBKNLHO@the?5length?5of?5a?5text?5chunk?5keywo@ 000000018005c540     lodepng.obj
 0002:000145a0       ??_C@_0FJ@LPKJLMJ@tried?5to?5encode?5a?5PLTE?5chunk?5wit@ 000000018005c5a0     lodepng.obj
 0002:00014600       ??_C@_0ED@FHCCPMOF@unknown?5chunk?5type?5with?5?8critica@ 000000018005c600     lodepng.obj
 0002:00014648       ??_C@_0DM@FFMIBKLO@unexisting?5interlace?5mode?5given?5@ 000000018005c648     lodepng.obj
 0002:00014690       ??_C@_0GA@DJPMGDIO@while?5decoding?0?5unexisting?5compr@ 000000018005c690     lodepng.obj
 0002:000146f0       ??_C@_0BI@GJKJMBKH@invalid?5tIME?5chunk?5size?$AA@ 000000018005c6f0     lodepng.obj
 0002:00014708       ??_C@_0BI@NMOBNHEN@invalid?5pHYs?5chunk?5size?$AA@ 000000018005c708     lodepng.obj
 0002:00014720       ??_C@_0DJ@PANFLBNP@no?5null?5termination?5char?5found?5w@ 000000018005c720     lodepng.obj
 0002:00014760       ??_C@_0CP@KDAKHJNL@iTXt?5chunk?5too?5short?5to?5contain?5@ 000000018005c760     lodepng.obj
 0002:00014790       ??_C@_0CA@FGDALBLM@integer?5overflow?5in?5buffer?5size?$AA@ 000000018005c790     lodepng.obj
 0002:000147b0       ??_C@_0CA@CBHGFENA@failed?5to?5open?5file?5for?5reading?$AA@ 000000018005c7b0     lodepng.obj
 0002:000147d0       ??_C@_0CA@EHFMONBL@failed?5to?5open?5file?5for?5writing?$AA@ 000000018005c7d0     lodepng.obj
 0002:000147f0       ??_C@_0CD@MOHNLFBI@tried?5creating?5a?5tree?5of?50?5symbo@ 000000018005c7f0     lodepng.obj
 0002:00014818       ??_C@_0CF@PBAGOFJG@lazy?5matching?5at?5pos?50?5is?5imposs@ 000000018005c818     lodepng.obj
 0002:00014840       ??_C@_0EF@IEGLDIHK@color?5conversion?5to?5palette?5requ@ 000000018005c840     lodepng.obj
 0002:00014888       ??_C@_0BJ@FDBIHNP@memory?5allocation?5failed?$AA@ 000000018005c888     lodepng.obj
 0002:000148a8       ??_C@_0DK@JNCHGFNK@given?5image?5too?5small?5to?5contain@ 000000018005c8a8     lodepng.obj
 0002:000148e8       ??_C@_0DC@KAGBFHHD@impossible?5offset?5in?5lz77?5encodi@ 000000018005c8e8     lodepng.obj
 0002:00014920       ??_C@_0FB@OFCJJNFO@must?5provide?5custom?5zlib?5functio@ 000000018005c920     lodepng.obj
 0002:00014980       ??_C@_0EJ@PHLJLBOL@invalid?5filter?5strategy?5given?5fo@ 000000018005c980     lodepng.obj
 0002:000149d0       ??_C@_0DK@LPMOJNBK@text?5chunk?5keyword?5too?5short?5or?5@ 000000018005c9d0     lodepng.obj
 0002:00014a10       ??_C@_0CC@EIKGNLEE@windowsize?5must?5be?5a?5power?5of?5tw@ 000000018005ca10     lodepng.obj
 0002:00014a38       ??_C@_0BP@ICCEHJFD@invalid?5decompressed?5idat?5size?$AA@ 000000018005ca38     lodepng.obj
 0002:00014a58       ??_C@_0BP@IAJLFLF@too?5many?5pixels?0?5not?5supported?$AA@ 000000018005ca58     lodepng.obj
 0002:00014a78       ??_C@_0CA@MGMLPFDK@zero?5width?5or?5height?5is?5invalid?$AA@ 000000018005ca78     lodepng.obj
 0002:00014a98       ??_C@_0CK@EGDBBGEN@header?5chunk?5must?5have?5a?5size?5of@ 000000018005ca98     lodepng.obj
 0002:00014ac8       ??_C@_0BD@KFLAIOGJ@unknown?5error?5code?$AA@ 000000018005cac8     lodepng.obj
 0002:00014ae0       ??_7State@lodepng@@6B@     000000018005cae0     lodepng.obj
 0002:00014ae8       ??_7LodePNGState@@6B@      000000018005cae8     lodepng.obj
 0002:00014af0       ??_C@_0BC@BDKFLDHL@unknown?5exception?$AA@ 000000018005caf0     lodepng_util.obj
 0002:00014b08       ??_C@_0BA@ELKIONDK@bad?5locale?5name?$AA@ 000000018005cb08     lodepng_util.obj
 0002:00014b18       ??_C@_00CNPNBAHC@?$AA@     000000018005cb18     lodepng_util.obj
 0002:00014b1c       ??_C@_02LMMGGCAJ@?3?5?$AA@ 000000018005cb1c     lodepng_util.obj
 0002:00014b20       ??_C@_08LLGCOLLL@iostream?$AA@ 000000018005cb20     lodepng_util.obj
 0002:00014b30       ??_C@_0BG@PADBLCHM@iostream?5stream?5error?$AA@ 000000018005cb30     lodepng_util.obj
 0002:00014b48       ??_C@_0BF@PHHKMMFD@ios_base?3?3badbit?5set?$AA@ 000000018005cb48     lodepng_util.obj
 0002:00014b60       ??_C@_0BG@FMKFHCIL@ios_base?3?3failbit?5set?$AA@ 000000018005cb60     lodepng_util.obj
 0002:00014b78       ??_C@_0BF@OOHOMBOF@ios_base?3?3eofbit?5set?$AA@ 000000018005cb78     lodepng_util.obj
 0002:00014bb0       ??_7exception@stdext@@6B@  000000018005cbb0     lodepng_util.obj
 0002:00014c30       ??_C@_08HCOMDCCD@iojs?4exe?$AA@ 000000018005cc30     win_delay_load_hook.obj
 0002:00014c40       ??_C@_08JDDNMFDB@node?4exe?$AA@ 000000018005cc40     win_delay_load_hook.obj
 0002:00014f98       __real@3d800000            000000018005cf98     lodepng.obj
 0002:00014f9c       __real@3f000000            000000018005cf9c     lodepng.obj
 0002:00014fa0       __real@3f800000            000000018005cfa0     lodepng.obj
 0002:00014fa4       __real@3fb8aa3b            000000018005cfa4     lodepng.obj
 0002:00014fa8       __real@3fe0000000000000    000000018005cfa8     squeeze.obj
 0002:00014fb0       __real@3feaaa8f            000000018005cfb0     lodepng.obj
 0002:00014fb8       __real@3ff0000000000000    000000018005cfb8     squeeze.obj
 0002:00014fc0       __real@3ff199999999999a    000000018005cfc0     deflate.obj
 0002:00014fc8       __real@3ff71547652b81e1    000000018005cfc8     tree.obj
 0002:00014fd0       __real@40000000            000000018005cfd0     lodepng.obj
 0002:00014fd8       __real@4008000000000000    000000018005cfd8     deflate.obj
 0002:00014fe0       __real@4020000000000000    000000018005cfe0     squeeze.obj
 0002:00014fe8       __real@4022000000000000    000000018005cfe8     squeeze.obj
 0002:00014ff0       __real@40400000            000000018005cff0     lodepng.obj
 0002:00014ff8       __real@4059000000000000    000000018005cff8     deflate.obj
 0002:00015000       __real@40800000            000000018005d000     lodepng.obj
 0002:00015004       __real@42000000            000000018005d004     lodepng.obj
 0002:00015008       __real@43e0000000000000    000000018005d008     squeeze.obj
 0002:00015010       __real@43f0000000000000    000000018005d010     tree.obj
 0002:00015018       __real@46293e5939a08cea    000000018005d018     squeeze.obj
 0002:00015020       __real@5f800000            000000018005d020     lodepng.obj
 0002:00015028       __real@bee4f8b588e368f1    000000018005d028     tree.obj
 0002:00015030       __xmm@00000000000000180000000000000018 000000018005d030     lodepng.obj
 0002:00015040       __xmm@000000010000000f0000000000000000 000000018005d040     zopflipng_lib.obj
 0002:00015050       __xmm@00000003000000020000000100000000 000000018005d050     zopflipng_lib.obj
 0002:00015060       __xmm@00000007000000060000000500000004 000000018005d060     zopflipng_lib.obj
 0002:00015678       _tls_used                  000000018005d678     LIBCMT:tlssup.obj
 0002:000156a0       ??_R4exception@std@@6B@    000000018005d6a0     libcpmt:xthrow.obj
 0002:000156c8       ??_R3exception@std@@8      000000018005d6c8     libcpmt:xthrow.obj
 0002:000156e0       ??_R2exception@std@@8      000000018005d6e0     libcpmt:xthrow.obj
 0002:000156f0       ??_R1A@?0A@EA@exception@std@@8 000000018005d6f0     libcpmt:xthrow.obj
 0002:00015718       ??_R4bad_alloc@std@@6B@    000000018005d718     libcpmt:xthrow.obj
 0002:00015740       ??_R3bad_alloc@std@@8      000000018005d740     libcpmt:xthrow.obj
 0002:00015758       ??_R2bad_alloc@std@@8      000000018005d758     libcpmt:xthrow.obj
 0002:00015770       ??_R1A@?0A@EA@bad_alloc@std@@8 000000018005d770     libcpmt:xthrow.obj
 0002:00015798       ??_R4logic_error@std@@6B@  000000018005d798     libcpmt:xthrow.obj
 0002:000157c0       ??_R3logic_error@std@@8    000000018005d7c0     libcpmt:xthrow.obj
 0002:000157d8       ??_R2logic_error@std@@8    000000018005d7d8     libcpmt:xthrow.obj
 0002:000157f0       ??_R1A@?0A@EA@logic_error@std@@8 000000018005d7f0     libcpmt:xthrow.obj
 0002:00015818       ??_R4length_error@std@@6B@ 000000018005d818     libcpmt:xthrow.obj
 0002:00015840       ??_R3length_error@std@@8   000000018005d840     libcpmt:xthrow.obj
 0002:00015858       ??_R2length_error@std@@8   000000018005d858     libcpmt:xthrow.obj
 0002:00015878       ??_R1A@?0A@EA@length_error@std@@8 000000018005d878     libcpmt:xthrow.obj
 0002:000158a0       ??_R4out_of_range@std@@6B@ 000000018005d8a0     libcpmt:xthrow.obj
 0002:000158c8       ??_R3out_of_range@std@@8   000000018005d8c8     libcpmt:xthrow.obj
 0002:000158e0       ??_R2out_of_range@std@@8   000000018005d8e0     libcpmt:xthrow.obj
 0002:00015900       ??_R1A@?0A@EA@out_of_range@std@@8 000000018005d900     libcpmt:xthrow.obj
 0002:00015928       ??_R4runtime_error@std@@6B@ 000000018005d928     libcpmt:xthrow.obj
 0002:00015950       ??_R3runtime_error@std@@8  000000018005d950     libcpmt:xthrow.obj
 0002:00015968       ??_R2runtime_error@std@@8  000000018005d968     libcpmt:xthrow.obj
 0002:00015980       ??_R1A@?0A@EA@runtime_error@std@@8 000000018005d980     libcpmt:xthrow.obj
 0002:000159a8       ??_R4ios_base@std@@6B@     000000018005d9a8     libcpmt:cout.obj
 0002:000159d0       ??_R3ios_base@std@@8       000000018005d9d0     libcpmt:cout.obj
 0002:000159e8       ??_R2ios_base@std@@8       000000018005d9e8     libcpmt:cout.obj
 0002:00015a00       ??_R1A@?0A@EA@ios_base@std@@8 000000018005da00     libcpmt:cout.obj
 0002:00015a28       ??_R17?0A@EA@?$_Iosb@H@std@@8 000000018005da28     libcpmt:cout.obj
 0002:00015a50       ??_R3?$_Iosb@H@std@@8      000000018005da50     libcpmt:cout.obj
 0002:00015a68       ??_R2?$_Iosb@H@std@@8      000000018005da68     libcpmt:cout.obj
 0002:00015a78       ??_R1A@?0A@EA@?$_Iosb@H@std@@8 000000018005da78     libcpmt:cout.obj
 0002:00015aa0       ??_R4?$basic_ios@DU?$char_traits@D@std@@@std@@6B@ 000000018005daa0     libcpmt:cout.obj
 0002:00015ac8       ??_R3?$basic_ios@DU?$char_traits@D@std@@@std@@8 000000018005dac8     libcpmt:cout.obj
 0002:00015ae0       ??_R2?$basic_ios@DU?$char_traits@D@std@@@std@@8 000000018005dae0     libcpmt:cout.obj
 0002:00015b00       ??_R1A@?0A@EA@?$basic_ios@DU?$char_traits@D@std@@@std@@8 000000018005db00     libcpmt:cout.obj
 0002:00015b28       ??_R4?$basic_streambuf@DU?$char_traits@D@std@@@std@@6B@ 000000018005db28     libcpmt:cout.obj
 0002:00015b50       ??_R3?$basic_streambuf@DU?$char_traits@D@std@@@std@@8 000000018005db50     libcpmt:cout.obj
 0002:00015b68       ??_R2?$basic_streambuf@DU?$char_traits@D@std@@@std@@8 000000018005db68     libcpmt:cout.obj
 0002:00015b78       ??_R1A@?0A@EA@?$basic_streambuf@DU?$char_traits@D@std@@@std@@8 000000018005db78     libcpmt:cout.obj
 0002:00015ba0       ??_R1A@A@3FA@?$basic_ios@DU?$char_traits@D@std@@@std@@8 000000018005dba0     libcpmt:cout.obj
 0002:00015bc8       ??_R1A@A@3EA@ios_base@std@@8 000000018005dbc8     libcpmt:cout.obj
 0002:00015bf0       ??_R17A@3EA@?$_Iosb@H@std@@8 000000018005dbf0     libcpmt:cout.obj
 0002:00015c18       ??_R4?$basic_ostream@DU?$char_traits@D@std@@@std@@6B@ 000000018005dc18     libcpmt:cout.obj
 0002:00015c40       ??_R3?$basic_ostream@DU?$char_traits@D@std@@@std@@8 000000018005dc40     libcpmt:cout.obj
 0002:00015c58       ??_R2?$basic_ostream@DU?$char_traits@D@std@@@std@@8 000000018005dc58     libcpmt:cout.obj
 0002:00015c80       ??_R1A@?0A@EA@?$basic_ostream@DU?$char_traits@D@std@@@std@@8 000000018005dc80     libcpmt:cout.obj
 0002:00015ca8       ??_R4?$basic_filebuf@DU?$char_traits@D@std@@@std@@6B@ 000000018005dca8     libcpmt:cout.obj
 0002:00015cd0       ??_R3?$basic_filebuf@DU?$char_traits@D@std@@@std@@8 000000018005dcd0     libcpmt:cout.obj
 0002:00015ce8       ??_R2?$basic_filebuf@DU?$char_traits@D@std@@@std@@8 000000018005dce8     libcpmt:cout.obj
 0002:00015d00       ??_R1A@?0A@EA@?$basic_filebuf@DU?$char_traits@D@std@@@std@@8 000000018005dd00     libcpmt:cout.obj
 0002:00015d28       ??_R4bad_cast@std@@6B@     000000018005dd28     libcpmt:cout.obj
 0002:00015d50       ??_R3bad_cast@std@@8       000000018005dd50     libcpmt:cout.obj
 0002:00015d68       ??_R2bad_cast@std@@8       000000018005dd68     libcpmt:cout.obj
 0002:00015d80       ??_R1A@?0A@EA@bad_cast@std@@8 000000018005dd80     libcpmt:cout.obj
 0002:00015da8       ??_R4_Facet_base@std@@6B@  000000018005dda8     libcpmt:cout.obj
 0002:00015dd0       ??_R3_Facet_base@std@@8    000000018005ddd0     libcpmt:cout.obj
 0002:00015de8       ??_R2_Facet_base@std@@8    000000018005dde8     libcpmt:cout.obj
 0002:00015df8       ??_R1A@?0A@EA@_Facet_base@std@@8 000000018005ddf8     libcpmt:cout.obj
 0002:00015e20       ??_R1A@?0A@EA@facet@locale@std@@8 000000018005de20     libcpmt:cout.obj
 0002:00015e48       ??_R3facet@locale@std@@8   000000018005de48     libcpmt:cout.obj
 0002:00015e60       ??_R2facet@locale@std@@8   000000018005de60     libcpmt:cout.obj
 0002:00015e80       ??_R17?0A@EA@_Crt_new_delete@std@@8 000000018005de80     libcpmt:cout.obj
 0002:00015ea8       ??_R3_Crt_new_delete@std@@8 000000018005dea8     libcpmt:cout.obj
 0002:00015ec0       ??_R2_Crt_new_delete@std@@8 000000018005dec0     libcpmt:cout.obj
 0002:00015ed0       ??_R1A@?0A@EA@_Crt_new_delete@std@@8 000000018005ded0     libcpmt:cout.obj
 0002:00015ef8       ??_R3codecvt_base@std@@8   000000018005def8     libcpmt:cout.obj
 0002:00015f10       ??_R2codecvt_base@std@@8   000000018005df10     libcpmt:cout.obj
 0002:00015f38       ??_R1A@?0A@EA@codecvt_base@std@@8 000000018005df38     libcpmt:cout.obj
 0002:00015f60       ??_R3ctype_base@std@@8     000000018005df60     libcpmt:cout.obj
 0002:00015f78       ??_R2ctype_base@std@@8     000000018005df78     libcpmt:cout.obj
 0002:00015fa0       ??_R1A@?0A@EA@ctype_base@std@@8 000000018005dfa0     libcpmt:cout.obj
 0002:00015fc8       ??_R4?$ctype@D@std@@6B@    000000018005dfc8     libcpmt:cout.obj
 0002:00015ff0       ??_R3?$ctype@D@std@@8      000000018005dff0     libcpmt:cout.obj
 0002:00016008       ??_R2?$ctype@D@std@@8      000000018005e008     libcpmt:cout.obj
 0002:00016038       ??_R1A@?0A@EA@?$ctype@D@std@@8 000000018005e038     libcpmt:cout.obj
 0002:00016060       ??_R4error_category@std@@6B@ 000000018005e060     libcpmt:cout.obj
 0002:00016088       ??_R3error_category@std@@8 000000018005e088     libcpmt:cout.obj
 0002:000160a0       ??_R2error_category@std@@8 000000018005e0a0     libcpmt:cout.obj
 0002:000160b0       ??_R1A@?0A@EA@error_category@std@@8 000000018005e0b0     libcpmt:cout.obj
 0002:000160d8       ??_R4_System_error@std@@6B@ 000000018005e0d8     libcpmt:cout.obj
 0002:00016100       ??_R3_System_error@std@@8  000000018005e100     libcpmt:cout.obj
 0002:00016118       ??_R2_System_error@std@@8  000000018005e118     libcpmt:cout.obj
 0002:00016138       ??_R1A@?0A@EA@_System_error@std@@8 000000018005e138     libcpmt:cout.obj
 0002:00016160       ??_R3system_error@std@@8   000000018005e160     libcpmt:cout.obj
 0002:00016178       ??_R2system_error@std@@8   000000018005e178     libcpmt:cout.obj
 0002:000161a0       ??_R1A@?0A@EA@system_error@std@@8 000000018005e1a0     libcpmt:cout.obj
 0002:000161c8       ??_R3_Generic_error_category@std@@8 000000018005e1c8     libcpmt:cout.obj
 0002:000161e0       ??_R2_Generic_error_category@std@@8 000000018005e1e0     libcpmt:cout.obj
 0002:000161f8       ??_R1A@?0A@EA@_Generic_error_category@std@@8 000000018005e1f8     libcpmt:cout.obj
 0002:00016220       ??_R4_Iostream_error_category@std@@6B@ 000000018005e220     libcpmt:cout.obj
 0002:00016248       ??_R3_Iostream_error_category@std@@8 000000018005e248     libcpmt:cout.obj
 0002:00016260       ??_R2_Iostream_error_category@std@@8 000000018005e260     libcpmt:cout.obj
 0002:00016280       ??_R1A@?0A@EA@_Iostream_error_category@std@@8 000000018005e280     libcpmt:cout.obj
 0002:000162a8       ??_R4failure@ios_base@std@@6B@ 000000018005e2a8     libcpmt:cout.obj
 0002:000162d0       ??_R3failure@ios_base@std@@8 000000018005e2d0     libcpmt:cout.obj
 0002:000162e8       ??_R2failure@ios_base@std@@8 000000018005e2e8     libcpmt:cout.obj
 0002:00016318       ??_R1A@?0A@EA@failure@ios_base@std@@8 000000018005e318     libcpmt:cout.obj
 0002:00016340       ??_R4?$codecvt@DDU_Mbstatet@@@std@@6B@ 000000018005e340     libcpmt:cout.obj
 0002:00016368       ??_R3?$codecvt@DDU_Mbstatet@@@std@@8 000000018005e368     libcpmt:cout.obj
 0002:00016380       ??_R2?$codecvt@DDU_Mbstatet@@@std@@8 000000018005e380     libcpmt:cout.obj
 0002:000163b0       ??_R1A@?0A@EA@?$codecvt@DDU_Mbstatet@@@std@@8 000000018005e3b0     libcpmt:cout.obj
 0002:000163d8       ??_R4_Locimp@locale@std@@6B@ 000000018005e3d8     libcpmt:locale0.obj
 0002:00016400       ??_R3_Locimp@locale@std@@8 000000018005e400     libcpmt:locale0.obj
 0002:00016418       ??_R2_Locimp@locale@std@@8 000000018005e418     libcpmt:locale0.obj
 0002:00016440       ??_R1A@?0A@EA@_Locimp@locale@std@@8 000000018005e440     libcpmt:locale0.obj
 0002:00016468       ??_R4type_info@@6B@        000000018005e468     LIBCMT:std_type_info_static.obj
 0002:00016490       ??_R3type_info@@8          000000018005e490     LIBCMT:std_type_info_static.obj
 0002:000164a8       ??_R2type_info@@8          000000018005e4a8     LIBCMT:std_type_info_static.obj
 0002:000164b8       ??_R1A@?0A@EA@type_info@@8 000000018005e4b8     LIBCMT:std_type_info_static.obj
 0002:000164e0       ??_R4bad_array_new_length@std@@6B@ 000000018005e4e0     LIBCMT:throw_bad_alloc.obj
 0002:00016508       ??_R3bad_array_new_length@std@@8 000000018005e508     LIBCMT:throw_bad_alloc.obj
 0002:00016520       ??_R2bad_array_new_length@std@@8 000000018005e520     LIBCMT:throw_bad_alloc.obj
 0002:00016540       ??_R1A@?0A@EA@bad_array_new_length@std@@8 000000018005e540     LIBCMT:throw_bad_alloc.obj
 0002:00016568       ??_R4bad_exception@std@@6B@ 000000018005e568     libvcruntime:frame.obj
 0002:00016590       ??_R3bad_exception@std@@8  000000018005e590     libvcruntime:frame.obj
 0002:000165a8       ??_R2bad_exception@std@@8  000000018005e5a8     libvcruntime:frame.obj
 0002:000165c0       ??_R1A@?0A@EA@bad_exception@std@@8 000000018005e5c0     libvcruntime:frame.obj
 0002:00016a80       __rtc_iaa                  000000018005ea80     LIBCMT:_initsect_.obj
 0002:00016a88       __rtc_izz                  000000018005ea88     LIBCMT:_initsect_.obj
 0002:00016a90       __rtc_taa                  000000018005ea90     LIBCMT:_initsect_.obj
 0002:00016a98       __rtc_tzz                  000000018005ea98     LIBCMT:_initsect_.obj
 0002:0001b370       _TI2?AVbad_alloc@std@@     0000000180063370     libcpmt:xthrow.obj
 0002:0001b390       _CTA2?AVbad_alloc@std@@    0000000180063390     libcpmt:xthrow.obj
 0002:0001b3a8       _CT??_R0?AVbad_alloc@std@@@8??0bad_alloc@std@@QEAA@AEBV01@@Z24 00000001800633a8     libcpmt:xthrow.obj
 0002:0001b3d0       _CT??_R0?AVexception@std@@@8??0exception@std@@QEAA@AEBV01@@Z24 00000001800633d0     libcpmt:xthrow.obj
 0002:0001b3f8       _CT??_R0?AVlogic_error@std@@@8??0logic_error@std@@QEAA@AEBV01@@Z24 00000001800633f8     libcpmt:xthrow.obj
 0002:0001b420       _TI3?AVlength_error@std@@  0000000180063420     libcpmt:xthrow.obj
 0002:0001b440       _CTA3?AVlength_error@std@@ 0000000180063440     libcpmt:xthrow.obj
 0002:0001b460       _CT??_R0?AVlength_error@std@@@8??0length_error@std@@QEAA@AEBV01@@Z24 0000000180063460     libcpmt:xthrow.obj
 0002:0001b488       _TI3?AVout_of_range@std@@  0000000180063488     libcpmt:xthrow.obj
 0002:0001b4a8       _CTA3?AVout_of_range@std@@ 00000001800634a8     libcpmt:xthrow.obj
 0002:0001b4c8       _CT??_R0?AVout_of_range@std@@@8??0out_of_range@std@@QEAA@AEBV01@@Z24 00000001800634c8     libcpmt:xthrow.obj
 0002:0001b4f0       _TI2?AVbad_cast@std@@      00000001800634f0     libcpmt:cout.obj
 0002:0001b510       _CTA2?AVbad_cast@std@@     0000000180063510     libcpmt:cout.obj
 0002:0001b528       _CT??_R0?AVbad_cast@std@@@8??0bad_cast@std@@QEAA@AEBV01@@Z24 0000000180063528     libcpmt:cout.obj
 0002:0001b550       _TI3?AVbad_array_new_length@std@@ 0000000180063550     LIBCMT:throw_bad_alloc.obj
 0002:0001b570       _CTA3?AVbad_array_new_length@std@@ 0000000180063570     LIBCMT:throw_bad_alloc.obj
 0002:0001b590       _CT??_R0?AVbad_array_new_length@std@@@8??0bad_array_new_length@std@@QEAA@AEBV01@@Z24 0000000180063590     LIBCMT:throw_bad_alloc.obj
 0002:0001b5b8       _TI2?AVbad_exception@std@@ 00000001800635b8     libvcruntime:frame.obj
 0002:0001b5d8       _CTA2?AVbad_exception@std@@ 00000001800635d8     libvcruntime:frame.obj
 0002:0001b5f0       _CT??_R0?AVbad_exception@std@@@8??0bad_exception@std@@QEAA@AEBV01@@Z24 00000001800635f0     libvcruntime:frame.obj
 0002:0001b614       __DELAY_IMPORT_DESCRIPTOR_node_exe 0000000180063614     node:node.exe
 0002:0001b634       __NULL_DELAY_IMPORT_DESCRIPTOR 0000000180063634     node:node.exe
 0002:0001b828       \177node_NULL_THUNK_DATA_DLN 0000000180063828     node:node.exe
 0002:0001c640       \177node_NULL_THUNK_DATA_DLB 0000000180064640     node:node.exe
 0002:0001c860       __IMPORT_DESCRIPTOR_KERNEL32 0000000180064860     kernel32:KERNEL32.dll
 0002:0001c874       __NULL_IMPORT_DESCRIPTOR   0000000180064874     kernel32:KERNEL32.dll
 0003:00000004       ?_Sync@ios_base@std@@0_NA  0000000180066004     libcpmt:ios.obj
 0003:00000020       ?_PJP_CPP_Copyright@@3PADA 0000000180066020     libcpmt:iosptrs.obj
 0003:00000080       _Init_global_epoch         0000000180066080     LIBCMT:thread_safe_statics.obj
 0003:00000084       __scrt_native_dllmain_reason 0000000180066084     LIBCMT:utility.obj
 0003:00000088       __security_cookie          0000000180066088     LIBCMT:gs_cookie.obj
 0003:00000090       __security_cookie_complement 0000000180066090     LIBCMT:gs_cookie.obj
 0003:00000098       _fltused                   0000000180066098     LIBCMT:fltused.obj
 0003:000000a0       __isa_available            00000001800660a0     LIBCMT:_cpu_disp_.obj
 0003:000000a4       __isa_enabled              00000001800660a4     LIBCMT:_cpu_disp_.obj
 0003:000000a8       __memcpy_nt_iters          00000001800660a8     LIBCMT:_cpu_disp_.obj
 0003:000000c0       _iob                       00000001800660c0     libucrt:_file.obj
 0003:000001c8       __abort_behavior           00000001800661c8     libucrt:abort.obj
 0003:000001d0       __acrt_lconv_c             00000001800661d0     libucrt:localeconv.obj
 0003:00000268       __acrt_lconv               0000000180066268     libucrt:localeconv.obj
 0003:00000270       __acrt_lconv_static_decimal 0000000180066270     libucrt:localeconv.obj
 0003:00000274       __acrt_lconv_static_W_decimal 0000000180066274     libucrt:localeconv.obj
 0003:00000280       _pctype                    0000000180066280     libucrt:ctype.obj
 0003:00000288       _pwctype                   0000000180066288     libucrt:ctype.obj
 0003:000002a0       __badioinfo                00000001800662a0     libucrt:ioinit.obj
 0003:000002f0       __acrt_initial_locale_data 00000001800662f0     libucrt:nlsdata.obj
 0003:00000448       __acrt_initial_locale_pointers 0000000180066448     libucrt:nlsdata.obj
 0003:00000458       __acrt_wide_c_locale_string 0000000180066458     libucrt:nlsdata.obj
 0003:0000045c       __mb_cur_max               000000018006645c     libucrt:nlsdata.obj
 0003:00000460       _lookuptrailbytes          0000000180066460     libucrt:read.obj
 0003:00000564       __globallocalestatus       0000000180066564     libucrt:glstatus.obj
 0003:00000600       __acrt_initial_multibyte_data 0000000180066600     libucrt:mbctype.obj
 0003:00000828       __acrt_current_multibyte_data 0000000180066828     libucrt:mbctype.obj
 0003:00000930       _mbctype                   0000000180066930     libucrt:mbctype.obj
 0003:00000a40       _mbcasemap                 0000000180066a40     libucrt:mbctype.obj
 0003:00000b40       __dcrt_lowio_console_output_handle 0000000180066b40     libucrt:initcon.obj
 0003:00000b90       ??_R0?AVbad_alloc@std@@@8  0000000180066b90     libcpmt:xthrow.obj
 0003:00000bb8       ??_R0?AVexception@std@@@8  0000000180066bb8     libcpmt:xthrow.obj
 0003:00000be0       ??_R0?AVlogic_error@std@@@8 0000000180066be0     libcpmt:xthrow.obj
 0003:00000c08       ??_R0?AVlength_error@std@@@8 0000000180066c08     libcpmt:xthrow.obj
 0003:00000c30       ??_R0?AVout_of_range@std@@@8 0000000180066c30     libcpmt:xthrow.obj
 0003:00000c58       ??_R0?AVruntime_error@std@@@8 0000000180066c58     libcpmt:xthrow.obj
 0003:00000c80       ??_R0?AVfailure@ios_base@std@@@8 0000000180066c80     libcpmt:cout.obj
 0003:00000cb0       ??_R0?AVsystem_error@std@@@8 0000000180066cb0     libcpmt:cout.obj
 0003:00000cd8       ??_R0?AV_System_error@std@@@8 0000000180066cd8     libcpmt:cout.obj
 0003:00000d00       ??_R0?AVbad_cast@std@@@8   0000000180066d00     libcpmt:cout.obj
 0003:00000d28       ??_R0?AVios_base@std@@@8   0000000180066d28     libcpmt:cout.obj
 0003:00000d50       ??_R0?AV?$_Iosb@H@std@@@8  0000000180066d50     libcpmt:cout.obj
 0003:00000d78       ??_R0?AV?$basic_ios@DU?$char_traits@D@std@@@std@@@8 0000000180066d78     libcpmt:cout.obj
 0003:00000dc0       ??_R0?AV?$basic_streambuf@DU?$char_traits@D@std@@@std@@@8 0000000180066dc0     libcpmt:cout.obj
 0003:00000e10       ??_R0?AV?$basic_ostream@DU?$char_traits@D@std@@@std@@@8 0000000180066e10     libcpmt:cout.obj
 0003:00000e60       ??_R0?AV?$basic_filebuf@DU?$char_traits@D@std@@@std@@@8 0000000180066e60     libcpmt:cout.obj
 0003:00000ea8       ??_R0?AV_Facet_base@std@@@8 0000000180066ea8     libcpmt:cout.obj
 0003:00000ed0       ??_R0?AVfacet@locale@std@@@8 0000000180066ed0     libcpmt:cout.obj
 0003:00000ef8       ??_R0?AU_Crt_new_delete@std@@@8 0000000180066ef8     libcpmt:cout.obj
 0003:00000f28       ??_R0?AVcodecvt_base@std@@@8 0000000180066f28     libcpmt:cout.obj
 0003:00000f50       ??_R0?AUctype_base@std@@@8 0000000180066f50     libcpmt:cout.obj
 0003:00000f78       ??_R0?AV?$ctype@D@std@@@8  0000000180066f78     libcpmt:cout.obj
 0003:00000fa0       ??_R0?AVerror_category@std@@@8 0000000180066fa0     libcpmt:cout.obj
 0003:00000fd0       ??_R0?AV_Generic_error_category@std@@@8 0000000180066fd0     libcpmt:cout.obj
 0003:00001008       ??_R0?AV_Iostream_error_category@std@@@8 0000000180067008     libcpmt:cout.obj
 0003:00001040       ??_R0?AV?$codecvt@DDU_Mbstatet@@@std@@@8 0000000180067040     libcpmt:cout.obj
 0003:00001078       ??_R0?AV_Locimp@locale@std@@@8 0000000180067078     libcpmt:locale0.obj
 0003:000010a8       ??_R0?AVtype_info@@@8      00000001800670a8     LIBCMT:std_type_info_static.obj
 0003:000010c8       ??_R0?AVbad_array_new_length@std@@@8 00000001800670c8     LIBCMT:throw_bad_alloc.obj
 0003:000010f8       ??_R0?AVbad_exception@std@@@8 00000001800670f8     libvcruntime:frame.obj
 0003:00001120       __imp_uv_queue_work        0000000180067120     node:node.exe
 0003:00001128       __imp_?Global@Context@v8@@QEAA?AV?$Local@VObject@v8@@@2@XZ 0000000180067128     node:node.exe
 0003:00001130       __imp_?Value@External@v8@@QEBAPEAXXZ 0000000180067130     node:node.exe
 0003:00001138       __imp_?New@External@v8@@SA?AV?$Local@VExternal@v8@@@2@PEAVIsolate@2@PEAX@Z 0000000180067138     node:node.exe
 0003:00001140       __imp_?NewFromUnsigned@Integer@v8@@SA?AV?$Local@VInteger@v8@@@2@PEAVIsolate@2@I@Z 0000000180067140     node:node.exe
 0003:00001148       __imp_?ThrowException@Isolate@v8@@QEAA?AV?$Local@VValue@v8@@@2@V32@@Z 0000000180067148     node:node.exe
 0003:00001150       __imp_?GetCurrentContext@Isolate@v8@@QEAA?AV?$Local@VContext@v8@@@2@XZ 0000000180067150     node:node.exe
 0003:00001158       __imp_?GetCurrent@Isolate@v8@@SAPEAV12@XZ 0000000180067158     node:node.exe
 0003:00001160       __imp_?CreateHandle@HandleScope@v8@@KAPEAPEAVObject@internal@2@PEAVIsolate@42@PEAV342@@Z 0000000180067160     node:node.exe
 0003:00001168       __imp_?CreateHandle@HandleScope@v8@@CAPEAPEAVObject@internal@2@PEAVHeapObject@42@PEAV342@@Z 0000000180067168     node:node.exe
 0003:00001170       __imp_??1HandleScope@v8@@QEAA@XZ 0000000180067170     node:node.exe
 0003:00001178       __imp_??0HandleScope@v8@@QEAA@PEAVIsolate@1@@Z 0000000180067178     node:node.exe
 0003:00001180       __imp_?Error@Exception@v8@@SA?AV?$Local@VValue@v8@@@2@V?$Local@VString@v8@@@2@@Z 0000000180067180     node:node.exe
 0003:00001188       __imp_?TypeError@Exception@v8@@SA?AV?$Local@VValue@v8@@@2@V?$Local@VString@v8@@@2@@Z 0000000180067188     node:node.exe
 0003:00001190       __imp_?SetClassName@FunctionTemplate@v8@@QEAAXV?$Local@VString@v8@@@2@@Z 0000000180067190     node:node.exe
 0003:00001198       __imp_?GetFunction@FunctionTemplate@v8@@QEAA?AV?$MaybeLocal@VFunction@v8@@@2@V?$Local@VContext@v8@@@2@@Z 0000000180067198     node:node.exe
 0003:000011a0       __imp_?New@FunctionTemplate@v8@@SA?AV?$Local@VFunctionTemplate@v8@@@2@PEAVIsolate@2@P6AXAEBV?$FunctionCallbackInfo@VValue@v8@@@2@@ZV?$Local@VValue@v8@@@2@V?$Local@VSignature@v8@@@2@HW4ConstructorBehavior@2@@Z 00000001800671a0     node:node.exe
 0003:000011a8       __imp_?ToLocalEmpty@V8@v8@@CAXXZ 00000001800671a8     node:node.exe
 0003:000011b0       __imp_?FromJustIsNothing@V8@v8@@CAXXZ 00000001800671b0     node:node.exe
 0003:000011b8       __imp_?DisposeGlobal@V8@v8@@CAXPEAPEAVObject@internal@2@@Z 00000001800671b8     node:node.exe
 0003:000011c0       __imp_?GlobalizeReference@V8@v8@@CAPEAPEAVObject@internal@2@PEAVIsolate@42@PEAPEAV342@@Z 00000001800671c0     node:node.exe
 0003:000011c8       __imp_?Int32Value@Value@v8@@QEBAHXZ 00000001800671c8     node:node.exe
 0003:000011d0       __imp_?Uint32Value@Value@v8@@QEBAIXZ 00000001800671d0     node:node.exe
 0003:000011d8       __imp_?BooleanValue@Value@v8@@QEBA_NXZ 00000001800671d8     node:node.exe
 0003:000011e0       __imp_?ToUint32@Value@v8@@QEBA?AV?$MaybeLocal@VUint32@v8@@@2@V?$Local@VContext@v8@@@2@@Z 00000001800671e0     node:node.exe
 0003:000011e8       __imp_?IsUint32@Value@v8@@QEBA_NXZ 00000001800671e8     node:node.exe
 0003:000011f0       __imp_?IsInt32@Value@v8@@QEBA_NXZ 00000001800671f0     node:node.exe
 0003:000011f8       __imp_?IsObject@Value@v8@@QEBA_NXZ 00000001800671f8     node:node.exe
 0003:00001200       __imp_?IsFunction@Value@v8@@QEBA_NXZ 0000000180067200     node:node.exe
 0003:00001208       __imp_?Escape@EscapableHandleScope@v8@@AEAAPEAPEAVObject@internal@2@PEAPEAV342@@Z 0000000180067208     node:node.exe
 0003:00001210       __imp_??0EscapableHandleScope@v8@@QEAA@PEAVIsolate@1@@Z 0000000180067210     node:node.exe
 0003:00001218       __imp_?NewFromUtf8@String@v8@@SA?AV?$MaybeLocal@VString@v8@@@2@PEAVIsolate@2@PEBDW4NewStringType@2@H@Z 0000000180067218     node:node.exe
 0003:00001220       __imp_?WriteUtf8@String@v8@@QEBAHPEADHPEAHH@Z 0000000180067220     node:node.exe
 0003:00001228       __imp_?Length@String@v8@@QEBAHXZ 0000000180067228     node:node.exe
 0003:00001230       __imp_?SlowGetInternalField@Object@v8@@AEAA?AV?$Local@VValue@v8@@@2@H@Z 0000000180067230     node:node.exe
 0003:00001238       __imp_?New@Object@v8@@SA?AV?$Local@VObject@v8@@@2@PEAVIsolate@2@@Z 0000000180067238     node:node.exe
 0003:00001240       __imp_?SetInternalField@Object@v8@@QEAAXHV?$Local@VValue@v8@@@2@@Z 0000000180067240     node:node.exe
 0003:00001248       __imp_?Has@Object@v8@@QEAA?AV?$Maybe@_N@2@V?$Local@VContext@v8@@@2@V?$Local@VValue@v8@@@2@@Z 0000000180067248     node:node.exe
 0003:00001250       __imp_?Get@Object@v8@@QEAA?AV?$MaybeLocal@VValue@v8@@@2@V?$Local@VContext@v8@@@2@V?$Local@VValue@v8@@@2@@Z 0000000180067250     node:node.exe
 0003:00001258       __imp_?Set@Object@v8@@QEAA_NV?$Local@VValue@v8@@@2@0@Z 0000000180067258     node:node.exe
 0003:00001260       __imp_?SetInternalFieldCount@ObjectTemplate@v8@@QEAAXH@Z 0000000180067260     node:node.exe
 0003:00001268       __imp_?NewInstance@ObjectTemplate@v8@@QEAA?AV?$MaybeLocal@VObject@v8@@@2@V?$Local@VContext@v8@@@2@@Z 0000000180067268     node:node.exe
 0003:00001270       __imp_?New@ObjectTemplate@v8@@SA?AV?$Local@VObjectTemplate@v8@@@2@PEAVIsolate@2@V?$Local@VFunctionTemplate@v8@@@2@@Z 0000000180067270     node:node.exe
 0003:00001278       __imp_node_module_register 0000000180067278     node:node.exe
 0003:00001280       __imp_?HasInstance@Buffer@node@@YA_NV?$Local@VValue@v8@@@v8@@@Z 0000000180067280     node:node.exe
 0003:00001288       __imp_?New@Buffer@node@@YA?AV?$MaybeLocal@VObject@v8@@@v8@@PEAVIsolate@4@PEAD_K@Z 0000000180067288     node:node.exe
 0003:00001290       __imp_?Data@Buffer@node@@YAPEADV?$Local@VObject@v8@@@v8@@@Z 0000000180067290     node:node.exe
 0003:00001298       __imp_?Length@Buffer@node@@YA_KV?$Local@VObject@v8@@@v8@@@Z 0000000180067298     node:node.exe
 0003:000012a0       __imp_?MakeCallback@node@@YA?AV?$Local@VValue@v8@@@v8@@PEAVIsolate@3@V?$Local@VObject@v8@@@3@V?$Local@VFunction@v8@@@3@HPEAV23@@Z 00000001800672a0     node:node.exe
 0003:000012a8       __imp_?GetCurrentEventLoop@node@@YAPEAUuv_loop_s@@PEAVIsolate@v8@@@Z 00000001800672a8     node:node.exe
 0003:000012b0       __imp_?ToObject@Value@v8@@QEBA?AV?$Local@VObject@v8@@@2@XZ 00000001800672b0     node:node.exe
 0003:000012b8       __imp_?ToString@Value@v8@@QEBA?AV?$Local@VString@v8@@@2@XZ 00000001800672b8     node:node.exe
 0003:000012c0       __imp_??1EscapableHandleScope@v8@@QEAA@XZ 00000001800672c0     node:node.exe
 0003:000012c8       __imp_?Length@Array@v8@@QEBAIXZ 00000001800672c8     node:node.exe
 0003:000012d0       __imp_?ToInteger@Value@v8@@QEBA?AV?$MaybeLocal@VInteger@v8@@@2@V?$Local@VContext@v8@@@2@@Z 00000001800672d0     node:node.exe
 0003:000012d8       __imp_?IsNumber@Value@v8@@QEBA_NXZ 00000001800672d8     node:node.exe
 0003:000012e0       __imp_?IsArray@Value@v8@@QEBA_NXZ 00000001800672e0     node:node.exe
 0003:000012e8       __imp_?Get@Object@v8@@QEAA?AV?$Local@VValue@v8@@@2@I@Z 00000001800672e8     node:node.exe
 0003:000012f0       \177node_NULL_THUNK_DATA_DLA 00000001800672f0     node:node.exe
 0003:00001300       __hmod__node_exe           0000000180067300     node:node.exe
 0003:00001470       ?cout@std@@3V?$basic_ostream@DU?$char_traits@D@std@@@1@A 0000000180067470     libcpmt:cout.obj
 0003:00001578       ?id@?$codecvt@DDU_Mbstatet@@@std@@2V0locale@2@A 0000000180067578     libcpmt:cout.obj
 0003:00001580       ?_Stinit@?1??_Init@?$basic_filebuf@DU?$char_traits@D@std@@@std@@IEAAXPEAU_iobuf@@W4_Initfl@23@@Z@4U_Mbstatet@@A 0000000180067580     libcpmt:cout.obj
 0003:00001588       ?_Psave@?$_Facetptr@V?$codecvt@DDU_Mbstatet@@@std@@@std@@2PEBVfacet@locale@2@EB 0000000180067588     libcpmt:cout.obj
 0003:00001598       ?_Id_cnt@id@locale@std@@0HA 0000000180067598     libcpmt:locale0.obj
 0003:000015a0       ?_Clocptr@_Locimp@locale@std@@0PEAV123@EA 00000001800675a0     libcpmt:locale0.obj
 0003:000015b0       ?id@?$ctype@_W@std@@2V0locale@2@A 00000001800675b0     libcpmt:locale0.obj
 0003:000015b8       ?id@?$ctype@D@std@@2V0locale@2@A 00000001800675b8     libcpmt:locale0.obj
 0003:000015c0       ?id@?$codecvt@GDU_Mbstatet@@@std@@2V0locale@2@A 00000001800675c0     libcpmt:locale0.obj
 0003:000015c8       ?id@?$ctype@G@std@@2V0locale@2@A 00000001800675c8     libcpmt:locale0.obj
 0003:000015e0       ?id@?$codecvt@_WDU_Mbstatet@@@std@@2V0locale@2@A 00000001800675e0     libcpmt:locale0.obj
 0003:000015f0       ?_Raise_handler@std@@3P6AXAEBVexception@stdext@@@ZEA 00000001800675f0     libcpmt:raisehan.obj
 0003:0000165c       ?_Index@ios_base@std@@0HA  000000018006765c     libcpmt:ios.obj
 0003:00001660       ?_Ptr_cin@std@@3PEAV?$basic_istream@DU?$char_traits@D@std@@@1@EA 0000000180067660     libcpmt:iosptrs.obj
 0003:00001668       ?_Ptr_cout@std@@3PEAV?$basic_ostream@DU?$char_traits@D@std@@@1@EA 0000000180067668     libcpmt:iosptrs.obj
 0003:00001670       ?_Ptr_cerr@std@@3PEAV?$basic_ostream@DU?$char_traits@D@std@@@1@EA 0000000180067670     libcpmt:iosptrs.obj
 0003:00001678       ?_Ptr_clog@std@@3PEAV?$basic_ostream@DU?$char_traits@D@std@@@1@EA 0000000180067678     libcpmt:iosptrs.obj
 0003:00001680       ?_Ptr_wcin@std@@3PEAV?$basic_istream@_WU?$char_traits@_W@std@@@1@EA 0000000180067680     libcpmt:iosptrs.obj
 0003:00001688       ?_Ptr_wcout@std@@3PEAV?$basic_ostream@_WU?$char_traits@_W@std@@@1@EA 0000000180067688     libcpmt:iosptrs.obj
 0003:00001690       ?_Ptr_wcerr@std@@3PEAV?$basic_ostream@_WU?$char_traits@_W@std@@@1@EA 0000000180067690     libcpmt:iosptrs.obj
 0003:00001698       ?_Ptr_wclog@std@@3PEAV?$basic_ostream@_WU?$char_traits@_W@std@@@1@EA 0000000180067698     libcpmt:iosptrs.obj
 0003:000016f8       ?id@?$num_get@DV?$istreambuf_iterator@DU?$char_traits@D@std@@@std@@@std@@2V0locale@2@A 00000001800676f8     libcpmt:locale.obj
 0003:00001700       __encodedKERNEL32Functions 0000000180067700     libcpmt:winapisupp.obj
 0003:00001840       ?id@?$time_put@_WV?$ostreambuf_iterator@_WU?$char_traits@_W@std@@@std@@@std@@2V0locale@2@A 0000000180067840     libcpmt:wlocale.obj
 0003:00001848       ?id@?$num_get@_WV?$istreambuf_iterator@_WU?$char_traits@_W@std@@@std@@@std@@2V0locale@2@A 0000000180067848     libcpmt:wlocale.obj
 0003:00001850       ?id@?$num_put@_WV?$ostreambuf_iterator@_WU?$char_traits@_W@std@@@std@@@std@@2V0locale@2@A 0000000180067850     libcpmt:wlocale.obj
 0003:00001858       ?id@?$numpunct@_W@std@@2V0locale@2@A 0000000180067858     libcpmt:wlocale.obj
 0003:00001860       ?id@?$collate@_W@std@@2V0locale@2@A 0000000180067860     libcpmt:wlocale.obj
 0003:00001868       ?id@?$messages@_W@std@@2V0locale@2@A 0000000180067868     libcpmt:wlocale.obj
 0003:00001870       ?id@?$money_get@_WV?$istreambuf_iterator@_WU?$char_traits@_W@std@@@std@@@std@@2V0locale@2@A 0000000180067870     libcpmt:wlocale.obj
 0003:00001878       ?id@?$money_put@_WV?$ostreambuf_iterator@_WU?$char_traits@_W@std@@@std@@@std@@2V0locale@2@A 0000000180067878     libcpmt:wlocale.obj
 0003:00001880       ?id@?$moneypunct@_W$0A@@std@@2V0locale@2@A 0000000180067880     libcpmt:wlocale.obj
 0003:00001888       ?id@?$moneypunct@_W$00@std@@2V0locale@2@A 0000000180067888     libcpmt:wlocale.obj
 0003:00001890       ?id@?$time_get@_WV?$istreambuf_iterator@_WU?$char_traits@_W@std@@@std@@@std@@2V0locale@2@A 0000000180067890     libcpmt:wlocale.obj
 0003:00001898       ?id@?$num_get@GV?$istreambuf_iterator@GU?$char_traits@G@std@@@std@@@std@@2V0locale@2@A 0000000180067898     libcpmt:wlocale.obj
 0003:000018a0       ?id@?$num_put@GV?$ostreambuf_iterator@GU?$char_traits@G@std@@@std@@@std@@2V0locale@2@A 00000001800678a0     libcpmt:wlocale.obj
 0003:000018a8       ?id@?$numpunct@G@std@@2V0locale@2@A 00000001800678a8     libcpmt:wlocale.obj
 0003:000018b0       ?id@?$collate@G@std@@2V0locale@2@A 00000001800678b0     libcpmt:wlocale.obj
 0003:000018b8       ?id@?$messages@G@std@@2V0locale@2@A 00000001800678b8     libcpmt:wlocale.obj
 0003:000018c0       ?id@?$money_get@GV?$istreambuf_iterator@GU?$char_traits@G@std@@@std@@@std@@2V0locale@2@A 00000001800678c0     libcpmt:wlocale.obj
 0003:000018c8       ?id@?$money_put@GV?$ostreambuf_iterator@GU?$char_traits@G@std@@@std@@@std@@2V0locale@2@A 00000001800678c8     libcpmt:wlocale.obj
 0003:000018d0       ?id@?$moneypunct@G$0A@@std@@2V0locale@2@A 00000001800678d0     libcpmt:wlocale.obj
 0003:000018d8       ?id@?$moneypunct@G$00@std@@2V0locale@2@A 00000001800678d8     libcpmt:wlocale.obj
 0003:000018e0       ?id@?$time_get@GV?$istreambuf_iterator@GU?$char_traits@G@std@@@std@@@std@@2V0locale@2@A 00000001800678e0     libcpmt:wlocale.obj
 0003:000018e8       ?id@?$time_put@GV?$ostreambuf_iterator@GU?$char_traits@G@std@@@std@@@std@@2V0locale@2@A 00000001800678e8     libcpmt:wlocale.obj
 0003:000018f0       ?id@?$collate@D@std@@2V0locale@2@A 00000001800678f0     libcpmt:xlocale.obj
 0003:000018f8       ?id@?$messages@D@std@@2V0locale@2@A 00000001800678f8     libcpmt:xlocale.obj
 0003:00001900       ?id@?$money_get@DV?$istreambuf_iterator@DU?$char_traits@D@std@@@std@@@std@@2V0locale@2@A 0000000180067900     libcpmt:xlocale.obj
 0003:00001908       ?id@?$money_put@DV?$ostreambuf_iterator@DU?$char_traits@D@std@@@std@@@std@@2V0locale@2@A 0000000180067908     libcpmt:xlocale.obj
 0003:00001910       ?id@?$moneypunct@D$0A@@std@@2V0locale@2@A 0000000180067910     libcpmt:xlocale.obj
 0003:00001918       ?id@?$moneypunct@D$00@std@@2V0locale@2@A 0000000180067918     libcpmt:xlocale.obj
 0003:00001920       ?id@?$time_get@DV?$istreambuf_iterator@DU?$char_traits@D@std@@@std@@@std@@2V0locale@2@A 0000000180067920     libcpmt:xlocale.obj
 0003:00001928       ?id@?$time_put@DV?$ostreambuf_iterator@DU?$char_traits@D@std@@@std@@@std@@2V0locale@2@A 0000000180067928     libcpmt:xlocale.obj
 0003:00001978       __scrt_current_native_startup_state 0000000180067978     LIBCMT:utility.obj
 0003:00001980       __scrt_native_startup_lock 0000000180067980     LIBCMT:utility.obj
 0003:00001f30       __scrt_debugger_hook_flag  0000000180067f30     LIBCMT:utility_desktop.obj
 0003:00001f34       _tls_index                 0000000180067f34     LIBCMT:tlssup.obj
 0003:00001f38       __favor                    0000000180067f38     LIBCMT:_cpu_disp_.obj
 0003:00001f40       ?__type_info_root_node@@3U__type_info_node@@A 0000000180067f40     LIBCMT:tncleanup.obj
 0003:00001f50       ?_OptionsStorage@?1??__local_stdio_scanf_options@@9@4_KA 0000000180067f50     LIBCMT:default_local_stdio_options.obj
 0003:00001f58       ?g_OutOfMemoryExceptionCallback@@3P6APEAXXZEA 0000000180067f58     libvcruntime:frame.obj
 0003:00001fc8       __pPurecall                0000000180067fc8     libvcruntime:purevirt_data.obj
 0003:00002078       ?pArgList@UnDecorator@@0PEAVReplicator@@EA 0000000180068078     libvcruntime:undname.obj
 0003:00002080       ?pZNameList@UnDecorator@@0PEAVReplicator@@EA 0000000180068080     libvcruntime:undname.obj
 0003:00002088       ?pTemplateArgList@UnDecorator@@0PEAVReplicator@@EA 0000000180068088     libvcruntime:undname.obj
 0003:00002090       ?gName@UnDecorator@@0PEBDEB 0000000180068090     libvcruntime:undname.obj
 0003:00002098       ?name@UnDecorator@@0PEBDEB 0000000180068098     libvcruntime:undname.obj
 0003:000020a0       ?outputString@UnDecorator@@0PEADEA 00000001800680a0     libvcruntime:undname.obj
 0003:000020a8       ?maxStringLength@UnDecorator@@0HA 00000001800680a8     libvcruntime:undname.obj
 0003:000020ac       ?disableFlags@UnDecorator@@0KA 00000001800680ac     libvcruntime:undname.obj
 0003:000020b0       ?fExplicitTemplateParams@UnDecorator@@0_NA 00000001800680b0     libvcruntime:undname.obj
 0003:000020b1       ?fGetTemplateArgumentList@UnDecorator@@0_NA 00000001800680b1     libvcruntime:undname.obj
 0003:000020b8       ?m_pGetParameter@UnDecorator@@0P6APEADJ@ZEA 00000001800680b8     libvcruntime:undname.obj
 0003:000020f0       _nstream                   00000001800680f0     libucrt:_file.obj
 0003:000020f8       __piob                     00000001800680f8     libucrt:_file.obj
 0003:00002100       _cflush                    0000000180068100     libucrt:_file.obj
 0003:00002111       __acrt_lconv_static_null   0000000180068111     libucrt:localeconv.obj
 0003:00002114       __acrt_lconv_static_W_null 0000000180068114     libucrt:localeconv.obj
 0003:00002448       _environ_table             0000000180068448     libucrt:environment_initialization.obj
 0003:00002450       _wenviron_table            0000000180068450     libucrt:environment_initialization.obj
 0003:00002458       __dcrt_initial_wide_environment 0000000180068458     libucrt:environment_initialization.obj
 0003:00002460       __dcrt_initial_narrow_environment 0000000180068460     libucrt:environment_initialization.obj
 0003:00002468       __acrt_atexit_table        0000000180068468     libucrt:onexit.obj
 0003:00002480       __acrt_at_quick_exit_table 0000000180068480     libucrt:onexit.obj
 0003:00002670       __pioinfo                  0000000180068670     libucrt:ioinit.obj
 0003:00002a70       _nhandle                   0000000180068a70     libucrt:ioinit.obj
 0003:00002a80       __acrt_stdout_buffer       0000000180068a80     libucrt:_sftbuf.obj
 0003:00002a88       __acrt_stderr_buffer       0000000180068a88     libucrt:_sftbuf.obj
 0003:00002a90       __acrt_locale_changed_data 0000000180068a90     libucrt:wsetlocale.obj
 0003:00002a98       __acrt_current_locale_data 0000000180068a98     libucrt:nlsdata.obj
 0003:00002aa8       __acrt_heap                0000000180068aa8     libucrt:heap_handle.obj
 0003:00002ab0       __fma3_is_available        0000000180068ab0     libucrt:fma3_available.obj
 0003:00002ab4       __use_fma3_lib             0000000180068ab4     libucrt:fma3_available.obj
 0003:00002ab8       ?_timezone@@3V?$dual_state_global@J@__crt_state_management@@A 0000000180068ab8     libucrt:timeset.obj
 0003:00002abc       ?_daylight@@3V?$dual_state_global@H@__crt_state_management@@A 0000000180068abc     libucrt:timeset.obj
 0003:00002ac0       ?_dstbias@@3V?$dual_state_global@J@__crt_state_management@@A 0000000180068ac0     libucrt:timeset.obj
 0003:00002b8c       __mbcodepage               0000000180068b8c     libucrt:mbctype.obj
 0003:00002b90       __ismbcodepage             0000000180068b90     libucrt:mbctype.obj
 0003:00002b98       __mbulinfo                 0000000180068b98     libucrt:mbctype.obj
 0003:00002ba8       __mblocalename             0000000180068ba8     libucrt:mbctype.obj
 0003:00002bb4       __argc                     0000000180068bb4     libucrt:argv_data.obj
 0003:00002bb8       __argv                     0000000180068bb8     libucrt:argv_data.obj
 0003:00002bc0       __wargv                    0000000180068bc0     libucrt:argv_data.obj
 0003:00002bc8       _acmdln                    0000000180068bc8     libucrt:argv_data.obj
 0003:00002bd0       _wcmdln                    0000000180068bd0     libucrt:argv_data.obj
 0003:00002bd8       _pgmptr                    0000000180068bd8     libucrt:argv_data.obj
 0003:00002be8       _commode                   0000000180068be8     libucrt:ncommode.obj
 0003:00002bec       _umaskval                  0000000180068bec     libucrt:umask.obj
 0003:00002bf0       _fmode                     0000000180068bf0     libucrt:txtmode.obj
 0003:00002bf8       ?DloadKernel32@@3PEAUHINSTANCE__@@EA 0000000180068bf8     DelayImp:delayhlp.obj
 0003:00002c00       ?DloadAcquireSRWLockExclusive@@3P6AXPEA_K@ZEA 0000000180068c00     DelayImp:delayhlp.obj
 0003:00002c08       ?DloadReleaseSRWLockExclusive@@3P6AXPEA_K@ZEA 0000000180068c08     DelayImp:delayhlp.obj
 0003:00002c10       ?DloadSrwLock@@3_KA        0000000180068c10     DelayImp:delayhlp.obj
 0003:00002c18       ?DloadSectionLockCount@@3KA 0000000180068c18     DelayImp:delayhlp.obj
 0003:00002c1c       ?DloadSectionOldProtection@@3KA 0000000180068c1c     DelayImp:delayhlp.obj
 0003:00002c20       ?DloadSectionCommitPermanent@@3KA 0000000180068c20     DelayImp:delayhlp.obj
 0003:00002c28       ?_OptionsStorage@?1??__local_stdio_printf_options@@9@4_KA 0000000180068c28     zopflipng.obj
 0003:00002c30       ?_Psave@?$_Facetptr@V?$ctype@D@std@@@std@@2PEBVfacet@locale@2@EB 0000000180068c30     lodepng_util.obj
 0003:00002c38       ?id@?$num_put@DV?$ostreambuf_iterator@DU?$char_traits@D@std@@@std@@@std@@2V0locale@2@A 0000000180068c38     lodepng_util.obj
 0003:00002c40       ?id@?$numpunct@D@std@@2V0locale@2@A 0000000180068c40     lodepng_util.obj
 0003:00002c48       ?$TSS0@?1???$_Immortalize@V_Iostream_error_category@std@@@std@@YAAEAV_Iostream_error_category@1@XZ@4HA 0000000180068c48     lodepng_util.obj
 0003:00002c50       ?_Static@?1???$_Immortalize@V_Iostream_error_category@std@@@std@@YAAEAV_Iostream_error_category@1@XZ@4U?$_Immortalizer@V_Iostream_error_category@std@@@1@A 0000000180068c50     lodepng_util.obj
 0003:00002c60       __dyn_tls_init_callback    0000000180068c60     <common>
 0003:00002c68       __scrt_ucrt_dll_is_in_use  0000000180068c68     <common>
 0006:00000000       _tls_start                 000000018006e000     LIBCMT:tlssup.obj
 0006:00000004       _Init_thread_epoch         000000018006e004     LIBCMT:thread_safe_statics.obj
 0006:00000008       _tls_end                   000000018006e008     LIBCMT:tlssup.obj

 entry point at        0001:00025adc

 Static symbols

 0000:fff8e000       .debug$S                   0000000180000000     node:node.exe
 0000:fff8e000       .debug$S                   0000000180000000     kernel32:KERNEL32.dll
 0000:fff8e000       .debug$S                   0000000180000000     kernel32:KERNEL32.dll
 0000:fff8e000       .debug$S                   0000000180000000     node:node.exe
 0000:fff8e000       .debug$S                   0000000180000000     node:node.exe
 0000:fff8e000       .debug$S                   0000000180000000     node:node.exe
 0000:fff8e000       .debug$S                   0000000180000000     node:node.exe
 0000:fff8e000       .debug$S                   0000000180000000     node:node.exe
 0000:fff8e000       .debug$S                   0000000180000000     kernel32:KERNEL32.dll
 0000:fff8e000       .debug$S                   0000000180000000     node:node.exe
 0000:fff8e000       .debug$S                   0000000180000000     kernel32:KERNEL32.dll
 0000:fff8e000       .debug$S                   0000000180000000     node:node.exe
 0000:fff8e000       .debug$S                   0000000180000000     node:node.exe
 0000:fff8e000       .debug$S                   0000000180000000     kernel32:KERNEL32.dll
 0000:fff8e000       .debug$S                   0000000180000000     kernel32:KERNEL32.dll
 0000:fff8e000       .debug$S                   0000000180000000     kernel32:KERNEL32.dll
 0000:fff8e000       .debug$S                   0000000180000000     kernel32:KERNEL32.dll
 0000:fff8e000       .debug$S                   0000000180000000     node:node.exe
 0000:fff8e000       .debug$S                   0000000180000000     node:node.exe
 0000:fff8e000       .debug$S                   0000000180000000     node:node.exe
 0000:fff8e000       .debug$S                   0000000180000000     node:node.exe
 0000:fff8e000       .debug$S                   0000000180000000     kernel32:KERNEL32.dll
 0000:fff8e000       .debug$S                   0000000180000000     node:node.exe
 0000:fff8e000       .debug$S                   0000000180000000     node:node.exe
 0000:fff8e000       .debug$S                   0000000180000000     node:node.exe
 0000:fff8e000       .debug$S                   0000000180000000     kernel32:KERNEL32.dll
 0000:fff8e000       .debug$S                   0000000180000000     node:node.exe
 0000:fff8e000       .debug$S                   0000000180000000     kernel32:KERNEL32.dll
 0000:fff8e000       .debug$S                   0000000180000000     node:node.exe
 0000:fff8e000       .debug$S                   0000000180000000     node:node.exe
 0000:fff8e000       .debug$S                   0000000180000000     node:node.exe
 0000:fff8e000       .debug$S                   0000000180000000     kernel32:KERNEL32.dll
 0000:fff8e000       .debug$S                   0000000180000000     kernel32:KERNEL32.dll
 0000:fff8e000       .debug$S                   0000000180000000     node:node.exe
 0000:fff8e000       .debug$S                   0000000180000000     node:node.exe
 0000:fff8e000       .debug$S                   0000000180000000     kernel32:KERNEL32.dll
 0000:fff8e000       .debug$S                   0000000180000000     kernel32:KERNEL32.dll
 0000:fff8e000       .debug$S                   0000000180000000     kernel32:KERNEL32.dll
 0000:fff8e000       .debug$S                   0000000180000000     kernel32:KERNEL32.dll
 0000:fff8e000       .debug$S                   0000000180000000     kernel32:KERNEL32.dll
 0000:fff8e000       .debug$S                   0000000180000000     kernel32:KERNEL32.dll
 0000:fff8e000       .debug$S                   0000000180000000     kernel32:KERNEL32.dll
 0000:fff8e000       .debug$S                   0000000180000000     kernel32:KERNEL32.dll
 0000:fff8e000       .debug$S                   0000000180000000     node:node.exe
 0000:fff8e000       .debug$S                   0000000180000000     kernel32:KERNEL32.dll
 0000:fff8e000       .debug$S                   0000000180000000     node:node.exe
 0000:fff8e000       .debug$S                   0000000180000000     node:node.exe
 0000:fff8e000       .debug$S                   0000000180000000     kernel32:KERNEL32.dll
 0000:fff8e000       .debug$S                   0000000180000000     kernel32:KERNEL32.dll
 0000:fff8e000       .debug$S                   0000000180000000     node:node.exe
 0000:fff8e000       .debug$S                   0000000180000000     kernel32:KERNEL32.dll
 0000:fff8e000       .debug$S                   0000000180000000     kernel32:KERNEL32.dll
 0000:fff8e000       .debug$S                   0000000180000000     kernel32:KERNEL32.dll
 0000:fff8e000       .debug$S                   0000000180000000     kernel32:KERNEL32.dll
 0000:fff8e000       .debug$S                   0000000180000000     kernel32:KERNEL32.dll
 0000:fff8e000       .debug$S                   0000000180000000     kernel32:KERNEL32.dll
 0000:fff8e000       .debug$S                   0000000180000000     node:node.exe
 0000:fff8e000       .debug$S                   0000000180000000     node:node.exe
 0000:fff8e000       .debug$S                   0000000180000000     node:node.exe
 0000:fff8e000       .debug$S                   0000000180000000     kernel32:KERNEL32.dll
 0000:fff8e000       .debug$S                   0000000180000000     node:node.exe
 0000:fff8e000       .debug$S                   0000000180000000     kernel32:KERNEL32.dll
 0000:fff8e000       .debug$S                   0000000180000000     node:node.exe
 0000:fff8e000       .debug$S                   0000000180000000     kernel32:KERNEL32.dll
 0000:fff8e000       .debug$S                   0000000180000000     kernel32:KERNEL32.dll
 0000:fff8e000       .debug$S                   0000000180000000     kernel32:KERNEL32.dll
 0000:fff8e000       .debug$S                   0000000180000000     kernel32:KERNEL32.dll
 0000:fff8e000       .debug$S                   0000000180000000     node:node.exe
 0000:fff8e000       .debug$S                   0000000180000000     node:node.exe
 0000:fff8e000       .debug$S                   0000000180000000     kernel32:KERNEL32.dll
 0000:fff8e000       .debug$S                   0000000180000000     node:node.exe
 0000:fff8e000       .debug$S                   0000000180000000     node:node.exe
 0000:fff8e000       .debug$S                   0000000180000000     node:node.exe
 0000:fff8e000       .debug$S                   0000000180000000     node:node.exe
 0000:fff8e000       .debug$S                   0000000180000000     kernel32:KERNEL32.dll
 0000:fff8e000       .debug$S                   0000000180000000     kernel32:KERNEL32.dll
 0000:fff8e000       .debug$S                   0000000180000000     zopfli.exp
 0000:fff8e000       .debug$S                   0000000180000000     node:node.exe
 0000:fff8e000       .debug$S                   0000000180000000     node:node.exe
 0000:fff8e000       .debug$S                   0000000180000000     node:node.exe
 0000:fff8e000       .debug$S                   0000000180000000     node:node.exe
 0000:fff8e000       .debug$S                   0000000180000000     node:node.exe
 0000:fff8e000       .debug$S                   0000000180000000     node:node.exe
 0000:fff8e000       .debug$S                   0000000180000000     node:node.exe
 0000:fff8e000       .debug$S                   0000000180000000     node:node.exe
 0000:fff8e000       .debug$S                   0000000180000000     kernel32:KERNEL32.dll
 0000:fff8e000       .debug$S                   0000000180000000     node:node.exe
 0000:fff8e000       .debug$S                   0000000180000000     node:node.exe
 0000:fff8e000       .debug$S                   0000000180000000     node:node.exe
 0000:fff8e000       .debug$S                   0000000180000000     node:node.exe
 0000:fff8e000       .debug$S                   0000000180000000     node:node.exe
 0000:fff8e000       .debug$S                   0000000180000000     kernel32:KERNEL32.dll
 0000:fff8e000       .debug$S                   0000000180000000     kernel32:KERNEL32.dll
 0000:fff8e000       .debug$S                   0000000180000000     kernel32:KERNEL32.dll
 0000:fff8e000       .debug$S                   0000000180000000     kernel32:KERNEL32.dll
 0000:fff8e000       .debug$S                   0000000180000000     kernel32:KERNEL32.dll
 0000:fff8e000       .debug$S                   0000000180000000     kernel32:KERNEL32.dll
 0000:fff8e000       .debug$S                   0000000180000000     node:node.exe
 0000:fff8e000       .debug$S                   0000000180000000     kernel32:KERNEL32.dll
 0000:fff8e000       .debug$S                   0000000180000000     node:node.exe
 0000:fff8e000       .debug$S                   0000000180000000     kernel32:KERNEL32.dll
 0000:fff8e000       .debug$S                   0000000180000000     kernel32:KERNEL32.dll
 0000:fff8e000       .debug$S                   0000000180000000     kernel32:KERNEL32.dll
 0000:fff8e000       .debug$S                   0000000180000000     kernel32:KERNEL32.dll
 0000:fff8e000       .debug$S                   0000000180000000     node:node.exe
 0000:fff8e000       .debug$S                   0000000180000000     kernel32:KERNEL32.dll
 0000:fff8e000       .debug$S                   0000000180000000     kernel32:KERNEL32.dll
 0000:fff8e000       .debug$S                   0000000180000000     kernel32:KERNEL32.dll
 0000:fff8e000       .debug$S                   0000000180000000     kernel32:KERNEL32.dll
 0000:fff8e000       .debug$S                   0000000180000000     node:node.exe
 0000:fff8e000       .debug$S                   0000000180000000     kernel32:KERNEL32.dll
 0000:fff8e000       .debug$S                   0000000180000000     kernel32:KERNEL32.dll
 0000:fff8e000       .debug$S                   0000000180000000     kernel32:KERNEL32.dll
 0000:fff8e000       .debug$S                   0000000180000000     kernel32:KERNEL32.dll
 0000:fff8e000       .debug$S                   0000000180000000     kernel32:KERNEL32.dll
 0000:fff8e000       .debug$S                   0000000180000000     node:node.exe
 0000:fff8e000       .debug$S                   0000000180000000     node:node.exe
 0000:fff8e000       .debug$S                   0000000180000000     node:node.exe
 0000:fff8e000       .debug$S                   0000000180000000     kernel32:KERNEL32.dll
 0000:fff8e000       .debug$S                   0000000180000000     node:node.exe
 0000:fff8e000       .debug$S                   0000000180000000     kernel32:KERNEL32.dll
 0000:fff8e000       .debug$S                   0000000180000000     kernel32:KERNEL32.dll
 0000:fff8e000       .debug$S                   0000000180000000     kernel32:KERNEL32.dll
 0000:fff8e000       .debug$S                   0000000180000000     kernel32:KERNEL32.dll
 0000:fff8e000       .debug$S                   0000000180000000     node:node.exe
 0000:fff8e000       .debug$S                   0000000180000000     kernel32:KERNEL32.dll
 0000:fff8e000       .debug$S                   0000000180000000     kernel32:KERNEL32.dll
 0000:fff8e000       .debug$S                   0000000180000000     kernel32:KERNEL32.dll
 0000:fff8e000       .debug$S                   0000000180000000     kernel32:KERNEL32.dll
 0000:fff8e000       .debug$S                   0000000180000000     node:node.exe
 0000:fff8e000       .debug$S                   0000000180000000     kernel32:KERNEL32.dll
 0000:fff8e000       .debug$S                   0000000180000000     kernel32:KERNEL32.dll
 0000:fff8e000       .debug$S                   0000000180000000     node:node.exe
 0000:fff8e000       .debug$S                   0000000180000000     kernel32:KERNEL32.dll
 0000:fff8e000       .debug$S                   0000000180000000     kernel32:KERNEL32.dll
 0000:fff8e000       .debug$S                   0000000180000000     kernel32:KERNEL32.dll
 0000:fff8e000       .debug$S                   0000000180000000     kernel32:KERNEL32.dll
 0000:fff8e000       .debug$S                   0000000180000000     node:node.exe
 0000:fff8e000       .debug$S                   0000000180000000     node:node.exe
 0000:fff8e000       .debug$S                   0000000180000000     kernel32:KERNEL32.dll
 0000:fff8e000       .debug$S                   0000000180000000     kernel32:KERNEL32.dll
 0000:fff8e000       .debug$S                   0000000180000000     kernel32:KERNEL32.dll
 0000:fff8e000       .debug$S                   0000000180000000     kernel32:KERNEL32.dll
 0000:fff8e000       .debug$S                   0000000180000000     kernel32:KERNEL32.dll
 0000:fff8e000       .debug$S                   0000000180000000     kernel32:KERNEL32.dll
 0000:fff8e000       .debug$S                   0000000180000000     node:node.exe
 0000:fff8e000       .debug$S                   0000000180000000     kernel32:KERNEL32.dll
 0000:fff8e000       .debug$S                   0000000180000000     kernel32:KERNEL32.dll
 0000:fff8e000       .debug$S                   0000000180000000     kernel32:KERNEL32.dll
 0000:fff8e000       .debug$S                   0000000180000000     kernel32:KERNEL32.dll
 0000:fff8e000       .debug$S                   0000000180000000     node:node.exe
 0000:fff8e000       .debug$S                   0000000180000000     kernel32:KERNEL32.dll
 0000:fff8e000       .debug$S                   0000000180000000     kernel32:KERNEL32.dll
 0000:fff8e000       .debug$S                   0000000180000000     kernel32:KERNEL32.dll
 0000:fff8e000       .debug$S                   0000000180000000     kernel32:KERNEL32.dll
 0000:fff8e000       .debug$S                   0000000180000000     node:node.exe
 0000:fff8e000       .debug$S                   0000000180000000     kernel32:KERNEL32.dll
 0000:fff8e000       .debug$S                   0000000180000000     kernel32:KERNEL32.dll
 0000:fff8e000       .debug$S                   0000000180000000     node:node.exe
 0000:fff8e000       .debug$S                   0000000180000000     kernel32:KERNEL32.dll
 0000:fff8e000       .debug$S                   0000000180000000     kernel32:KERNEL32.dll
 0000:fff8e000       .debug$S                   0000000180000000     kernel32:KERNEL32.dll
 0000:fff8e000       .debug$S                   0000000180000000     kernel32:KERNEL32.dll
 0000:fff8e000       .debug$S                   0000000180000000     node:node.exe
 0000:fff8e000       .debug$S                   0000000180000000     kernel32:KERNEL32.dll
 0000:fff8e000       .debug$S                   0000000180000000     kernel32:KERNEL32.dll
 0000:fff8e000       .debug$S                   0000000180000000     kernel32:KERNEL32.dll
 0000:fff8e000       .debug$S                   0000000180000000     kernel32:KERNEL32.dll
 0000:fff8e000       .debug$S                   0000000180000000     kernel32:KERNEL32.dll
 0000:fff8e000       .debug$S                   0000000180000000     kernel32:KERNEL32.dll
 0000:fff8e000       .debug$S                   0000000180000000     node:node.exe
 0000:fff8e000       .debug$S                   0000000180000000     kernel32:KERNEL32.dll
 0000:fff8e000       .debug$S                   0000000180000000     kernel32:KERNEL32.dll
 0001:00000000       ??__Einitlocks@std@@YAXXZ  0000000180001000 f   libcpmt:xlock.obj
 0001:00000020       ??__Ecout@std@@YAXXZ       0000000180001020 f   libcpmt:cout.obj
 0001:00000050       ??__Efout@std@@YAXXZ       0000000180001050 f   libcpmt:cout.obj
 0001:000000a0       ??__Einit_cout@std@@YAXXZ  00000001800010a0 f   libcpmt:cout.obj
 0001:000000ac       ??__Einitlocks@@YAXXZ      00000001800010ac f   libcpmt:cout.obj
 0001:000000cc       ??__E_Fac_tidy_reg@std@@YAXXZ 00000001800010cc f   libcpmt:locale0.obj
 0001:000000d8       ??__Eclassic_locale@std@@YAXXZ 00000001800010d8 f   libcpmt:locale0.obj
 0001:000000e4       ??__Einit_atexit@@YAXXZ    00000001800010e4 f   libcpmt:iosptrs.obj
 0001:000000f0       ??__Einitlocks@std@@YAXXZ  00000001800010f0 f   libcpmt:iosptrs.obj
 0001:00000180       ?FunctionCallbackWrapper@imp@Nan@@YAXAEBV?$FunctionCallbackInfo@VValue@v8@@@v8@@@Z 0000000180001180 f   zopfli-binding.obj
 0001:00001f60       _register_zopfli           0000000180002f60 f   zopfli-binding.obj
 0001:00004100       FindMinimum                0000000180005100 f   blocksplitter.obj
 0001:00004330       SplitCost                  0000000180005330 f   blocksplitter.obj
 0001:00004380       AddSorted                  0000000180005380 f   blocksplitter.obj
 0001:00004440       PrintBlockSplitPoints      0000000180005440 f   blocksplitter.obj
 0001:00004da0       ZopfliGetDistExtraBits     0000000180005da0 f   deflate.obj
 0001:00004da0       ZopfliGetDistExtraBits     0000000180005da0 f   squeeze.obj
 0001:00004e50       ZopfliGetDistExtraBitsValue 0000000180005e50 f   deflate.obj
 0001:00004ef0       ZopfliGetDistSymbol        0000000180005ef0 f   squeeze.obj
 0001:00004ef0       ZopfliGetDistSymbol        0000000180005ef0 f   deflate.obj
 0001:00004ef0       ZopfliGetDistSymbol        0000000180005ef0 f   lz77.obj
 0001:00005030       AddBit                     0000000180006030 f   deflate.obj
 0001:000050c0       AddBits                    00000001800060c0 f   deflate.obj
 0001:00005190       AddHuffmanBits             0000000180006190 f   deflate.obj
 0001:00005260       EncodeTree                 0000000180006260 f   deflate.obj
 0001:00006000       CalculateTreeSize          0000000180007000 f   deflate.obj
 0001:000060a0       AddLZ77Data                00000001800070a0 f   deflate.obj
 0001:00006320       CalculateBlockSymbolSizeSmall 0000000180007320 f   deflate.obj
 0001:00006440       CalculateBlockSymbolSizeGivenCounts 0000000180007440 f   deflate.obj
 0001:00006750       TryOptimizeHuffmanForRle   0000000180007750 f   deflate.obj
 0001:00006c20       GetDynamicLengths          0000000180007c20 f   deflate.obj
 0001:00007120       AddNonCompressedBlock      0000000180008120 f   deflate.obj
 0001:00007430       AddLZ77Block               0000000180008430 f   deflate.obj
 0001:00007a50       AddLZ77BlockAutoType       0000000180008a50 f   deflate.obj
 0001:00008a70       BoundaryPM                 0000000180009a70 f   katajainen.obj
 0001:00008b80       ExtractBitLengths          0000000180009b80 f   katajainen.obj
 0001:00008c80       LeafComparator             0000000180009c80 f   katajainen.obj
 0001:00009950       ZopfliLZ77GetHistogramAt   000000018000a950 f   lz77.obj
 0001:00009d80       TryGetFromLongestMatchCache 000000018000ad80 f   lz77.obj
 0001:00009fa0       StoreInLongestMatchCache   000000018000afa0 f   lz77.obj
 0001:0000a910       CopyStats                  000000018000b910 f   squeeze.obj
 0001:0000aac0       AddWeighedStatFreqs        000000018000bac0 f   squeeze.obj
 0001:0000b140       RandomizeFreqs             000000018000c140 f   squeeze.obj
 0001:0000b210       GetCostFixed               000000018000c210 f   squeeze.obj
 0001:0000b280       GetCostStat                000000018000c280 f   squeeze.obj
 0001:0000b2f0       GetCostModelMinCost        000000018000c2f0 f   squeeze.obj
 0001:0000b3b0       GetBestLengths             000000018000c3b0 f   squeeze.obj
 0001:0000b8a0       TraceBackwards             000000018000c8a0 f   squeeze.obj
 0001:0000b9f0       FollowPath                 000000018000c9f0 f   squeeze.obj
 0001:0000c720       adler32                    000000018000d720 f   zlib_container.obj
 0001:0000dc38       $LN850                     000000018000ec38     zopflipng_lib.obj
 0001:00010fb0       ?uivector_resize@@YAIPEAUuivector@@_K@Z 0000000180011fb0 f   lodepng.obj
 0001:00011030       ?ucvector_resize@@YAIPEAUucvector@@_K@Z 0000000180012030 f   lodepng.obj
 0001:000110b0       ?ucvector_push_back@@YAIPEAUucvector@@E@Z 00000001800120b0 f   lodepng.obj
 0001:00011100       ?string_init@@YAXPEAPEAD@Z 0000000180012100 f   lodepng.obj
 0001:00011130       ?string_set@@YAXPEAPEADPEBD@Z 0000000180012130 f   lodepng.obj
 0001:000111b0       ?lodepng_filesize@@YAJPEBD@Z 00000001800121b0 f   lodepng.obj
 0001:00011220       ?lodepng_buffer_file@@YAIPEAE_KPEBD@Z 0000000180012220 f   lodepng.obj
 0001:000112a0       ?addBitsToStream@@YAXPEA_KPEAUucvector@@I_K@Z 00000001800122a0 f   lodepng.obj
 0001:00011380       ?addBitsToStreamReversed@@YAXPEA_KPEAUucvector@@I_K@Z 0000000180012380 f   lodepng.obj
 0001:00011460       ?readBitsFromStream@@YAIPEA_KPEBE_K@Z 0000000180012460 f   lodepng.obj
 0001:000114d0       ?HuffmanTree_make2DTree@@YAIPEAUHuffmanTree@@@Z 00000001800124d0 f   lodepng.obj
 0001:00011650       ?HuffmanTree_makeFromLengths2@@YAIPEAUHuffmanTree@@@Z 0000000180012650 f   lodepng.obj
 0001:000117f0       ?HuffmanTree_makeFromLengths@@YAIPEAUHuffmanTree@@PEBI_KI@Z 00000001800127f0 f   lodepng.obj
 0001:000119c0       ?bpmnode_create@@YAPEAUBPMNode@@PEAUBPMLists@@HIPEAU1@@Z 00000001800129c0 f   lodepng.obj
 0001:00011b00       ?bpmnode_compare@@YAHPEBX0@Z 0000000180012b00 f   lodepng.obj
 0001:00011b30       ?boundaryPM@@YAXPEAUBPMLists@@PEAUBPMNode@@_KHH@Z 0000000180012b30 f   lodepng.obj
 0001:00012020       ?HuffmanTree_makeFromFrequencies@@YAIPEAUHuffmanTree@@PEBI_K2I@Z 0000000180013020 f   lodepng.obj
 0001:000120e0       ?generateFixedLitLenTree@@YAIPEAUHuffmanTree@@@Z 00000001800130e0 f   lodepng.obj
 0001:00012240       ?generateFixedDistanceTree@@YAIPEAUHuffmanTree@@@Z 0000000180013240 f   lodepng.obj
 0001:00012300       ?getTreeInflateDynamic@@YAIPEAUHuffmanTree@@0PEBEPEA_K_K@Z 0000000180013300 f   lodepng.obj
 0001:000128f0       ?inflateHuffmanBlock@@YAIPEAUucvector@@PEBEPEA_K2_KI@Z 00000001800138f0 f   lodepng.obj
 0001:00012d30       ?lodepng_inflatev@@YAIPEAUucvector@@PEBE_KPEBULodePNGDecompressSettings@@@Z 0000000180013d30 f   lodepng.obj
 0001:00012f60       ?addLengthDistance@@YAXPEAUuivector@@_K1@Z 0000000180013f60 f   lodepng.obj
 0001:000130d0       ?hash_init@@YAIPEAUHash@@I@Z 00000001800140d0 f   lodepng.obj
 0001:00013280       ?encodeLZ77@@YAIPEAUuivector@@PEAUHash@@PEBE_K3IIII@Z 0000000180014280 f   lodepng.obj
 0001:00013970       ?deflateNoCompression@@YAIPEAUucvector@@PEBE_K@Z 0000000180014970 f   lodepng.obj
 0001:00013c30       ?writeLZ77data@@YAXPEA_KPEAUucvector@@PEBUuivector@@PEBUHuffmanTree@@3@Z 0000000180014c30 f   lodepng.obj
 0001:00013d50       ?deflateDynamic@@YAIPEAUucvector@@PEA_KPEAUHash@@PEBE_K4PEBULodePNGCompressSettings@@I@Z 0000000180014d50 f   lodepng.obj
 0001:00014d10       ?deflateFixed@@YAIPEAUucvector@@PEA_KPEAUHash@@PEBE_K4PEBULodePNGCompressSettings@@I@Z 0000000180015d10 f   lodepng.obj
 0001:00015050       ?lodepng_deflatev@@YAIPEAUucvector@@PEBE_KPEBULodePNGCompressSettings@@@Z 0000000180016050 f   lodepng.obj
 0001:00015230       ?update_adler32@@YAIIPEBEI@Z 0000000180016230 f   lodepng.obj
 0001:00015a10       ?checkColorValidity@@YAIW4LodePNGColorType@@I@Z 0000000180016a10 f   lodepng.obj
 0001:00015b30       ?lodepng_color_mode_equal@@YAHPEBULodePNGColorMode@@0@Z 0000000180016b30 f   lodepng.obj
 0001:00015cc0       ?LodePNGUnknownChunks_copy@@YAIPEAULodePNGInfo@@PEBU1@@Z 0000000180016cc0 f   lodepng.obj
 0001:00015da0       ?LodePNGText_cleanup@@YAXPEAULodePNGInfo@@@Z 0000000180016da0 f   lodepng.obj
 0001:00015e20       ?LodePNGText_copy@@YAIPEAULodePNGInfo@@PEBU1@@Z 0000000180016e20 f   lodepng.obj
 0001:00016130       ?LodePNGIText_cleanup@@YAXPEAULodePNGInfo@@@Z 0000000180017130 f   lodepng.obj
 0001:000161f0       ?LodePNGIText_copy@@YAIPEAULodePNGInfo@@PEBU1@@Z 00000001800171f0 f   lodepng.obj
 0001:00016830       ?addColorBits@@YAXPEAE_KII@Z 0000000180017830 f   lodepng.obj
 0001:000168b0       ?color_tree_cleanup@@YAXPEAUColorTree@@@Z 00000001800178b0 f   lodepng.obj
 0001:000168f0       ?color_tree_get@@YAHPEAUColorTree@@EEEE@Z 00000001800178f0 f   lodepng.obj
 0001:00016990       ?color_tree_add@@YAXPEAUColorTree@@EEEEI@Z 0000000180017990 f   lodepng.obj
 0001:00016a60       ?rgba8ToPixel@@YAIPEAE_KPEBULodePNGColorMode@@PEAUColorTree@@EEEE@Z 0000000180017a60 f   lodepng.obj
 0001:00016cf0       ?rgba16ToPixel@@YAXPEAE_KPEBULodePNGColorMode@@GGGG@Z 0000000180017cf0 f   lodepng.obj
 0001:00016dd0       ?getPixelColorRGBA8@@YAXPEAE000PEBE_KPEBULodePNGColorMode@@@Z 0000000180017dd0 f   lodepng.obj
 0001:00017190       ?getPixelColorsRGBA8@@YAXPEAE_KIPEBEPEBULodePNGColorMode@@@Z 0000000180018190 f   lodepng.obj
 0001:00017670       ?getPixelColorRGBA16@@YAXPEAG000PEBE_KPEBULodePNGColorMode@@@Z 0000000180018670 f   lodepng.obj
 0001:00018680       ?paethPredictor@@YAEFFF@Z  0000000180019680 f   lodepng.obj
 0001:00018a40       ?unfilterScanline@@YAIPEAEPEBE1_KE2@Z 0000000180019a40 f   lodepng.obj
 0001:00018ee0       ?unfilter@@YAIPEAEPEBEIII@Z 0000000180019ee0 f   lodepng.obj
 0001:00018f90       ?Adam7_deinterlace@@YAXPEAEPEBEIII@Z 0000000180019f90 f   lodepng.obj
 0001:00019440       ?removePaddingBits@@YAXPEAEPEBE_K2I@Z 000000018001a440 f   lodepng.obj
 0001:00019520       ?postProcessScanlines@@YAIPEAE0IIPEBULodePNGInfo@@@Z 000000018001a520 f   lodepng.obj
 0001:00019830       ?readChunk_PLTE@@YAIPEAULodePNGColorMode@@PEBE_K@Z 000000018001a830 f   lodepng.obj
 0001:00019930       ?readChunk_tRNS@@YAIPEAULodePNGColorMode@@PEBE_K@Z 000000018001a930 f   lodepng.obj
 0001:00019a30       ?readChunk_bKGD@@YAIPEAULodePNGInfo@@PEBE_K@Z 000000018001aa30 f   lodepng.obj
 0001:00019af0       ?readChunk_tEXt@@YAIPEAULodePNGInfo@@PEBE_K@Z 000000018001aaf0 f   lodepng.obj
 0001:00019c10       ?readChunk_zTXt@@YAIPEAULodePNGInfo@@PEBULodePNGDecompressSettings@@PEBE_K@Z 000000018001ac10 f   lodepng.obj
 0001:00019dc0       ?readChunk_iTXt@@YAIPEAULodePNGInfo@@PEBULodePNGDecompressSettings@@PEBE_K@Z 000000018001adc0 f   lodepng.obj
 0001:0001a0d0       ?decodeGeneric@@YAXPEAPEAEPEAI1PEAULodePNGState@@PEBE_K@Z 000000018001b0d0 f   lodepng.obj
 0001:0001b0a0       ?writeSignature@@YAXPEAUucvector@@@Z 000000018001c0a0 f   lodepng.obj
 0001:0001b1b0       ?addChunk_IHDR@@YAIPEAUucvector@@IIW4LodePNGColorType@@II@Z 000000018001c1b0 f   lodepng.obj
 0001:0001b400       ?addChunk_PLTE@@YAIPEAUucvector@@PEBULodePNGColorMode@@@Z 000000018001c400 f   lodepng.obj
 0001:0001b500       ?addChunk_tRNS@@YAIPEAUucvector@@PEBULodePNGColorMode@@@Z 000000018001c500 f   lodepng.obj
 0001:0001b800       ?addChunk_tEXt@@YAIPEAUucvector@@PEBD1@Z 000000018001c800 f   lodepng.obj
 0001:0001b9a0       ?addChunk_zTXt@@YAIPEAUucvector@@PEBD1PEAULodePNGCompressSettings@@@Z 000000018001c9a0 f   lodepng.obj
 0001:0001bc00       ?addChunk_iTXt@@YAIPEAUucvector@@IPEBD111PEAULodePNGCompressSettings@@@Z 000000018001cc00 f   lodepng.obj
 0001:0001c060       ?addChunk_bKGD@@YAIPEAUucvector@@PEBULodePNGInfo@@@Z 000000018001d060 f   lodepng.obj
 0001:0001c2e0       ?addChunk_pHYs@@YAIPEAUucvector@@PEBULodePNGInfo@@@Z 000000018001d2e0 f   lodepng.obj
 0001:0001c440       ?filterScanline@@YAXPEAEPEBE1_K2E@Z 000000018001d440 f   lodepng.obj
 0001:0001c8e0       ?flog2@@YAMM@Z             000000018001d8e0 f   lodepng.obj
 0001:0001c9a0       ?filter@@YAIPEAEPEBEIIPEBULodePNGColorMode@@PEBULodePNGEncoderSettings@@@Z 000000018001d9a0 f   lodepng.obj
 0001:0001d150       ?addPaddingBits@@YAXPEAEPEBE_K2I@Z 000000018001e150 f   lodepng.obj
 0001:0001d250       ?Adam7_interlace@@YAXPEAEPEBEIII@Z 000000018001e250 f   lodepng.obj
 0001:0001d780       ?preProcessScanlines@@YAIPEAPEAEPEA_KPEBEIIPEBULodePNGInfo@@PEBULodePNGEncoderSettings@@@Z 000000018001e780 f   lodepng.obj
 0001:0001dbf0       ?getPaletteTranslucency@@YAIPEBE_K@Z 000000018001ebf0 f   lodepng.obj
 0001:0001dc90       ?addUnknownChunks@@YAIPEAUucvector@@PEAE_K@Z 000000018001ec90 f   lodepng.obj
 0001:0001e808       $LN86                      000000018001f808     lodepng.obj
 0001:00021d70       ?load_exe_hook@@YAP6A_JXZIPEAUDelayLoadInfo@@@Z 0000000180022d70 f   win_delay_load_hook.obj
 0001:00022ff0       uninitialize_c             0000000180023ff0 f i libucrt:initialization.obj
 0001:00022ff0       initialize_environment     0000000180023ff0 f i libucrt:initialization.obj
 0001:00022ff0       report_memory_leaks        0000000180023ff0 f i libucrt:initialization.obj
 0001:00022ff0       uninitialize_global_state_isolation 0000000180023ff0 f i libucrt:initialization.obj
 0001:00022ff0       initialize_global_state_isolation 0000000180023ff0 f i libucrt:initialization.obj
 0001:00023fcc       tidy_global                0000000180024fcc f   libcpmt:locale0.obj
 0001:000247e0       ?initialize_pointers@@YAHXZ 00000001800257e0 f   libcpmt:winapisupp.obj
 0001:00024ef0       $$000000                   0000000180025ef0     LIBCMT:_amdsecgs_.obj
 0001:000250b0       ?__scrt_initialize_thread_safe_statics@@YAHXZ 00000001800260b0 f   LIBCMT:thread_safe_statics.obj
 0001:000251d0       ?__scrt_uninitialize_thread_safe_statics@@YAXXZ 00000001800261d0 f   LIBCMT:thread_safe_statics.obj
 0001:00025790       ?dllmain_crt_dispatch@@YAHQEAUHINSTANCE__@@KQEAX@Z 0000000180026790 f   LIBCMT:dll_dllmain.obj
 0001:000257e0       ?dllmain_crt_process_attach@@YAHQEAUHINSTANCE__@@QEAX@Z 00000001800267e0 f   LIBCMT:dll_dllmain.obj
 0001:0002590c       ?dllmain_crt_process_detach@@YAH_N@Z 000000018002690c f   LIBCMT:dll_dllmain.obj
 0001:00025990       ?dllmain_dispatch@@YAHQEAUHINSTANCE__@@KQEAX@Z 0000000180026990 f   LIBCMT:dll_dllmain.obj
 0001:00025a88       ?dllmain_raw@@YAHQEAUHINSTANCE__@@KQEAX@Z 0000000180026a88 f   LIBCMT:dll_dllmain.obj
 0001:00025c50       $$000000                   0000000180026c50     LIBCMT:_chkstk_.obj
 0001:00025e6c       capture_current_context    0000000180026e6c f   LIBCMT:gs_report.obj
 0001:00025edc       capture_previous_context   0000000180026edc f   LIBCMT:gs_report.obj
 0001:000264a0       $$000000                   00000001800274a0     libvcruntime:memcpy.obj
 0001:00026547       MoveSmall                  0000000180027547     libvcruntime:memcpy.obj
 0001:00026a0c       ?CatchIt@@YAXPEAUEHExceptionRecord@@PEA_KPEAU_CONTEXT@@PEAU_xDISPATCHER_CONTEXT@@PEBU_s_FuncInfo@@PEBU_s_HandlerType@@PEBU_s_CatchableType@@PEBU_s_TryBlockMapEntry@@H1EE@Z 0000000180027a0c f   libvcruntime:frame.obj
 0001:00026ad0       ?ExFilterRethrow@@YAHPEAU_EXCEPTION_POINTERS@@PEAUEHExceptionRecord@@PEAH@Z 0000000180027ad0 f   libvcruntime:frame.obj
 0001:00026b58       ?FindHandler@@YAXPEAUEHExceptionRecord@@PEA_KPEAU_CONTEXT@@PEAU_xDISPATCHER_CONTEXT@@PEBU_s_FuncInfo@@EH1@Z 0000000180027b58 f   libvcruntime:frame.obj
 0001:00027028       ?FindHandlerForForeignException@@YAXPEAUEHExceptionRecord@@PEA_KPEAU_CONTEXT@@PEAU_xDISPATCHER_CONTEXT@@PEBU_s_FuncInfo@@HH1@Z 0000000180028028 f   libvcruntime:frame.obj
 0001:00027294       ?IsInExceptionSpec@@YAEPEAUEHExceptionRecord@@PEBU_s_ESTypeList@@@Z 0000000180028294 f   libvcruntime:frame.obj
 0001:00028600       $$000000                   0000000180029600     libvcruntime:memset.obj
 0001:000286ec       MsetTab                    00000001800296ec     libvcruntime:memset.obj
 0001:000287b0       $$000000                   00000001800297b0     libvcruntime:memcmp.obj
 0001:00028a84       ?try_get_function@@YAPEAXW4function_id@?A0x679b24ab@@QEBDQEBW4module_id@2@2@Z 0000000180029a84 f   libvcruntime:winapi_downlevel.obj
 0001:00029270       $$000000                   000000018002a270     libvcruntime:handlers.obj
 0001:000292c0       $$000000                   000000018002a2c0     libvcruntime:_jmpuwind_.obj
 0001:000293bc       ??$common_assert_to_message_box@_W@@YAXQEB_W0IQEAX@Z 000000018002a3bc f   libucrt:assert.obj
 0001:00029480       ??$common_assert_to_message_box_build_string@_W@@YAXQEA_W_KQEB_W2IQEAX@Z 000000018002a480 f   libucrt:assert.obj
 0001:00029c54       ??$common_assert_to_stderr@_W@@YAXQEB_W0I@Z 000000018002ac54 f   libucrt:assert.obj
 0001:00029dc4       ?get_assert_format@@YAPEB_W_W@Z 000000018002adc4 f   libucrt:assert.obj
 0001:0002a96c       ??R<lambda_0a64b6a4deda75c01876f29c44fc5eb3>@@QEBAHXZ 000000018002b96c f   libucrt:output.obj
 0001:0002aa5c       ??R<lambda_dd75445284c072d0bd3768540cc698fa>@@QEBAHXZ 000000018002ba5c f   libucrt:output.obj
 0001:0002d584       ?atexit_exception_filter@@YAHK@Z 000000018002e584 f   libucrt:exit.obj
 0001:0002d590       ?common_exit@@YAXHW4_crt_exit_cleanup_mode@@W4_crt_exit_return_mode@@@Z 000000018002e590 f   libucrt:exit.obj
 0001:0002d6fc       ?exit_or_terminate_process@@YAXI@Z 000000018002e6fc f   libucrt:exit.obj
 0001:0002d748       ?try_cor_exit_process@@YAXI@Z 000000018002e748 f   libucrt:exit.obj
 0001:0002d800       ?shortsort@@YAXPEAD0_KP6AHPEBX2@Z@Z 000000018002e800 f   libucrt:qsort.obj
 0001:0002dc04       ??$common_ftell@J@@YAJV__crt_stdio_stream@@@Z 000000018002ec04 f   libucrt:ftell.obj
 0001:0002dc70       ??$common_ftell@_J@@YA_JV__crt_stdio_stream@@@Z 000000018002ec70 f   libucrt:ftell.obj
 0001:0002dcc4       ??$common_ftell_nolock@_J@@YA_JV__crt_stdio_stream@@@Z 000000018002ecc4 f   libucrt:ftell.obj
 0001:0002de3c       ?common_ftell_read_mode_nolock@@YA_JV__crt_stdio_stream@@_J1@Z 000000018002ee3c f   libucrt:ftell.obj
 0001:0002dfb4       ?common_ftell_translated_utf8_nolock@@YA_JV__crt_stdio_stream@@_J@Z 000000018002efb4 f   libucrt:ftell.obj
 0001:0002e144       ??$common_fsopen@D@@YAPEAU_iobuf@@QEBD0H@Z 000000018002f144 f   libucrt:fopen.obj
 0001:0002e310       ?common_fseek@@YAHV__crt_stdio_stream@@_JH@Z 000000018002f310 f   libucrt:fseek.obj
 0001:0002e37c       ?common_fseek_binary_mode_read_only_fast_track_nolock@@YA_NV__crt_stdio_stream@@_JH@Z 000000018002f37c f   libucrt:fseek.obj
 0001:0002e48c       ?common_fseek_nolock@@YAHV__crt_stdio_stream@@_JH@Z 000000018002f48c f   libucrt:fseek.obj
 0001:0002e5d4       ??R<lambda_532e024f4337e6fc7ad266c2bef9f4ed>@@QEBA_KXZ 000000018002f5d4 f   libucrt:fwrite.obj
 0001:0002efb0       common_flush_all           000000018002ffb0 f   libucrt:fflush.obj
 0001:0002f41c       ??R<lambda_b721fa326cdb32351d23dfa67958c160>@@QEBAHXZ 000000018003041c f   libucrt:setvbuf.obj
 0001:0002f71c       call_wsetlocale            000000018003071c f   libucrt:setlocale.obj
 0001:00030290       ?x_ismbbtype_l@@YAHPEAU__crt_locale_pointers@@IHH@Z 0000000180031290 f   libucrt:ismbbyte.obj
 0001:000308f0       memcpy_s                   00000001800318f0 f   libucrt:cfout.obj
 0001:000308f0       memcpy_s                   00000001800318f0 f   libucrt:strtod.obj
 0001:00030980       $$000000                   0000000180031980     libucrt:pow.obj
 0001:00032020       $$000000                   0000000180033020     libucrt:powf.obj
 0001:00032f40       ?internal_isupper_l@@YA_NHQEAU__crt_locale_pointers@@@Z 0000000180033f40 f   libucrt:tolower_toupper.obj
 0001:000336f8       ??$parse_command_line@D@@YAXPEADPEAPEAD0PEA_K2@Z 00000001800346f8 f   libucrt:argv_parsing.obj
 0001:00033a90       ??$common_initialize_environment_nolock@D@@YAHXZ 0000000180034a90 f   libucrt:environment_initialization.obj
 0001:00033afc       ??$create_environment@D@@YAQEAPEADQEAD@Z 0000000180034afc f   libucrt:environment_initialization.obj
 0001:00033bf8       ??$free_environment@_W@@YAXQEAPEA_W@Z 0000000180034bf8 f   libucrt:environment_initialization.obj
 0001:00033bf8       ??$free_environment@D@@YAXQEAPEAD@Z 0000000180034bf8 f   libucrt:environment_initialization.obj
 0001:00033c3c       ??$uninitialize_environment_internal@D@@YAXAEAPEAPEAD@Z 0000000180034c3c f   libucrt:environment_initialization.obj
 0001:00033c58       ??$uninitialize_environment_internal@_W@@YAXAEAPEAPEA_W@Z 0000000180034c58 f   libucrt:environment_initialization.obj
 0001:00033e90       ??R<lambda_4e60a939b0d047cfe11ddc22648dfba9>@@QEBAHXZ 0000000180034e90 f   libucrt:onexit.obj
 0001:00034140       initialize_global_variables 0000000180035140 f   libucrt:initialization.obj
 0001:00034154       initialize_c               0000000180035154 f   libucrt:initialization.obj
 0001:00034178       uninitialize_environment   0000000180035178 f   libucrt:initialization.obj
 0001:00034188       initialize_pointers        0000000180035188 f   libucrt:initialization.obj
 0001:000341dc       uninitialize_vcruntime     00000001800351dc f   libucrt:initialization.obj
 0001:000341e4       uninitialize_allocated_memory 00000001800351e4 f   libucrt:initialization.obj
 0001:00034e3c       ??$common_xtox@K_W@@YAHKQEA_W_KI_N@Z 0000000180035e3c f   libucrt:xtoa.obj
 0001:00034ee8       ??$common_xtox_s@K_W@@YAHKQEA_W_KI_N@Z 0000000180035ee8 f   libucrt:xtoa.obj
 0001:00035144       ??$message_box_wait_thread@_W@@YAKQEAX@Z 0000000180036144 f   libucrt:crtmbox.obj
 0001:000356e4       ?construct_ptd_array@@YAXQEAU__acrt_ptd@@@Z 00000001800366e4 f   libucrt:per_thread_data.obj
 0001:000357b4       ?destroy_fls@@YAXPEAX@Z    00000001800367b4 f   libucrt:per_thread_data.obj
 0001:000357d4       ?destroy_ptd_array@@YAXQEAU__acrt_ptd@@@Z 00000001800367d4 f   libucrt:per_thread_data.obj
 0001:000358cc       ?replace_current_thread_locale_nolock@@YAXQEAU__acrt_ptd@@QEAU__crt_locale_data@@@Z 00000001800368cc f   libucrt:per_thread_data.obj
 0001:00035b0c       ?<helper_func_cdecl>@<lambda_e2bb8337c48846e80c921ea5ddadc92d>@@CAHPEA_W@Z 0000000180036b0c f   libucrt:winapi_thunks.obj
 0001:00035be8       ?try_get_function@@YAPEAXW4function_id@?A0x63058377@@QEBDQEBW4module_id@2@2@Z 0000000180036be8 f   libucrt:winapi_thunks.obj
 0001:0003682c       ?initialize_inherited_file_handles_nolock@@YAXXZ 000000018003782c f   libucrt:ioinit.obj
 0001:00036918       ?initialize_stdio_handles_nolock@@YAXXZ 0000000180037918 f   libucrt:ioinit.obj
 0001:00036ea8       ?fp_format_a@@YAHQEBNPEAD_KQEAD2H_NIQEAU__crt_locale_pointers@@@Z 0000000180037ea8 f   libucrt:cvt.obj
 0001:00037208       ?fp_format_e@@YAHQEBNQEAD_K12H_NIQEAU__crt_locale_pointers@@@Z 0000000180038208 f   libucrt:cvt.obj
 0001:000372d8       ?fp_format_e_internal@@YAHQEAD_KH_NIQEAU_strflt@@2QEAU__crt_locale_pointers@@@Z 00000001800382d8 f   libucrt:cvt.obj
 0001:000374b4       ?fp_format_f_internal@@YAHQEAD_KHQEAU_strflt@@_NQEAU__crt_locale_pointers@@@Z 00000001800384b4 f   libucrt:cvt.obj
 0001:000375fc       ?fp_format_g@@YAHQEBNQEAD_K12H_NIQEAU__crt_locale_pointers@@@Z 00000001800385fc f   libucrt:cvt.obj
 0001:00037734       ?fp_format_nan_or_infinity@@YAHW4__acrt_fp_class@@_NPEAD_K1@Z 0000000180038734 f   libucrt:cvt.obj
 0001:00037d84       no_op_initialize           0000000180038d84 f   libucrt:wsetlocale.obj
 0001:00037ef0       ??R<lambda_2af78c5f5901b1372d98f9ab3177dfa6>@@QEBAXXZ 0000000180038ef0 f   libucrt:wsetlocale.obj
 0001:000382b4       _copytlocinfo_nolock       00000001800392b4 f   libucrt:wsetlocale.obj
 0001:00038874       _wsetlocale_get_all        0000000180039874 f   libucrt:wsetlocale.obj
 0001:00038a5c       _wsetlocale_nolock         0000000180039a5c f   libucrt:wsetlocale.obj
 0001:00038ce4       _wsetlocale_set_cat        0000000180039ce4 f   libucrt:wsetlocale.obj
 0001:00039024       ??$common_lseek@_J@@YA_JH_JH@Z 000000018003a024 f   libucrt:lseek.obj
 0001:00039114       ??$common_lseek_nolock@_J@@YA_JH_JH@Z 000000018003a114 f   libucrt:lseek.obj
 0001:000391c0       ??$translate_text_mode_nolock@_W@@YAHHQEA_W_K@Z 000000018003a1c0 f   libucrt:read.obj
 0001:000393f0       ?translate_ansi_or_utf8_nolock@@YAHHQEAD_KQEA_W1@Z 000000018003a3f0 f   libucrt:read.obj
 0001:00039d10       ?find_or_allocate_unused_stream_nolock@@YA?AV__crt_stdio_stream@@XZ 000000018003ad10 f   libucrt:stream.obj
 0001:0003a308       ?write_double_translated_ansi_nolock@@YA?AUwrite_result@?A0x9c548279@@HQEBDI@Z 000000018003b308 f   libucrt:write.obj
 0001:0003a510       ?write_text_ansi_nolock@@YA?AUwrite_result@?A0x9c548279@@HQEBDI@Z 000000018003b510 f   libucrt:write.obj
 0001:0003a618       ?write_text_utf16le_nolock@@YA?AUwrite_result@?A0x9c548279@@HQEBDI@Z 000000018003b618 f   libucrt:write.obj
 0001:0003a734       ?write_text_utf8_nolock@@YA?AUwrite_result@?A0x9c548279@@HQEBDI@Z 000000018003b734 f   libucrt:write.obj
 0001:0003ac78       ??$write_buffer_nolock@D@@YA_NDV__crt_stdio_stream@@@Z 000000018003bc78 f   libucrt:_flsbuf.obj
 0001:0003ad7c       ??$write_buffer_nolock@_W@@YA_N_WV__crt_stdio_stream@@@Z 000000018003bd7c f   libucrt:_flsbuf.obj
 0001:0003b05c       ??$common_refill_and_read_nolock@D@@YAHV__crt_stdio_stream@@@Z 000000018003c05c f   libucrt:_filbuf.obj
 0001:0003b7ec       ?_mbstowcs_l_helper@@YA_KPEA_WPEBD_KPEAU__crt_locale_pointers@@@Z 000000018003c7ec f   libucrt:mbstowcs.obj
 0001:0003bb18       ?_wcstombs_l_helper@@YA_KPEADPEB_W_KPEAU__crt_locale_pointers@@@Z 000000018003cb18 f   libucrt:wcstombs.obj
 0001:0003c078       ?InternalGetLocaleInfoA@@YAHQEAU__crt_locale_pointers@@QEB_WKQEADH@Z 000000018003d078 f   libucrt:getlocaleinfoa.obj
 0001:0003c594       ?__acrt_LCMapStringA_stat@@YAHPEAU__crt_locale_pointers@@PEB_WKPEBDHPEADHHH@Z 000000018003d594 f   libucrt:lcmapstringa.obj
 0001:0003cf08       ?<helper_func_cdecl>@<lambda_2feae5270eb4d0d5532525f423405775>@@CAHPEBX0@Z 000000018003df08 f   libucrt:argv_wildcards.obj
 0001:0003cf1c       ??$common_expand_argv_wildcards@D@@YAHQEAPEADQEAPEAPEAD@Z 000000018003df1c f   libucrt:argv_wildcards.obj
 0001:0003d128       ??$copy_and_add_argument_to_buffer@D@@YAHQEBD0_KAEAV?$argument_list@D@?A0xca0879c4@@@Z 000000018003e128 f   libucrt:argv_wildcards.obj
 0001:0003d238       ??$expand_argument_wildcards@D@@YAHQEAD0AEAV?$argument_list@D@?A0xca0879c4@@@Z 000000018003e238 f   libucrt:argv_wildcards.obj
 0001:0003d4ec       ??R<lambda_ad1ced32f4ac17aa236e5ef05d6b3b7c>@@QEBAXXZ 000000018003e4ec f   libucrt:mbctype.obj
 0001:0003d704       ?getSystemCP@@YAHH@Z       000000018003e704 f   libucrt:mbctype.obj
 0001:0003d784       ?setSBCS@@YAXPEAU__crt_multibyte_data@@@Z 000000018003e784 f   libucrt:mbctype.obj
 0001:0003d814       ?setSBUpLow@@YAXPEAU__crt_multibyte_data@@@Z 000000018003e814 f   libucrt:mbctype.obj
 0001:0003d9f8       ?setmbcp_internal@@YAHH_N@Z 000000018003e9f8 f   libucrt:mbctype.obj
 0001:0003e750       ?GetTableIndexFromLocaleName@@YAHPEB_W@Z 000000018003f750 f   libucrt:lcidtoname_downlevel.obj
 0001:00040c58       ?free_crt_array_internal@@YAXQEAPEBX_K@Z 0000000180041c58 f   libucrt:inittime.obj
 0001:00040cb0       ?initialize_lc_time@@YA_NQEAU__crt_lc_time_data@@QEAU__crt_locale_data@@@Z 0000000180041cb0 f   libucrt:inittime.obj
 0001:0004123c       GetLocaleNameFromDefault   000000018004223c f   libucrt:get_qualified_locale.obj
 0001:000412e4       GetLocaleNameFromLangCountry 00000001800422e4 f   libucrt:get_qualified_locale.obj
 0001:000413b4       GetLocaleNameFromLanguage  00000001800423b4 f   libucrt:get_qualified_locale.obj
 0001:00041450       LangCountryEnumProcEx      0000000180042450 f   libucrt:get_qualified_locale.obj
 0001:00041804       LanguageEnumProcEx         0000000180042804 f   libucrt:get_qualified_locale.obj
 0001:000418f0       ProcessCodePage            00000001800428f0 f   libucrt:get_qualified_locale.obj
 0001:000419a4       TestDefaultCountry         00000001800429a4 f   libucrt:get_qualified_locale.obj
 0001:00041a0c       TranslateName              0000000180042a0c f   libucrt:get_qualified_locale.obj
 0001:00041cc8       CountryEnumProc            0000000180042cc8 f   libucrt:getqloc_downlevel.obj
 0001:00041db4       GetLcidFromLangCountry     0000000180042db4 f   libucrt:getqloc_downlevel.obj
 0001:00041e84       GetLcidFromLanguage        0000000180042e84 f   libucrt:getqloc_downlevel.obj
 0001:00041f1c       LangCountryEnumProc        0000000180042f1c f   libucrt:getqloc_downlevel.obj
 0001:00042160       LanguageEnumProc           0000000180043160 f   libucrt:getqloc_downlevel.obj
 0001:0004225c       LcidFromHexString          000000018004325c f   libucrt:getqloc_downlevel.obj
 0001:000422ac       ProcessCodePage            00000001800432ac f   libucrt:getqloc_downlevel.obj
 0001:0004235c       TestDefaultLanguage        000000018004335c f   libucrt:getqloc_downlevel.obj
 0001:00042408       TranslateName              0000000180043408 f   libucrt:getqloc_downlevel.obj
 0001:000428e0       $$000000                   00000001800438e0     libucrt:strncmp.obj
 0001:00042ae4       ??$common_sopen_dispatch@D@@YAHQEBDHHHQEAHH@Z 0000000180043ae4 f   libucrt:open.obj
 0001:00042bc4       ?configure_text_mode@@YAHHUfile_options@?A0x656cf9f4@@HAEAW4__crt_lowio_text_mode@@@Z 0000000180043bc4 f   libucrt:open.obj
 0001:00042e58       ?decode_options@@YA?AUfile_options@?A0x656cf9f4@@HHH@Z 0000000180043e58 f   libucrt:open.obj
 0001:00043064       ?truncate_ctrl_z_if_present@@YAHH@Z 0000000180044064 f   libucrt:open.obj
 0001:00043640       $$000000                   0000000180044640     libucrt:fpsr.obj
 0001:000437fc       _call_matherr              00000001800447fc f   libucrt:libm_error.obj
 0001:00043864       _exception_enabled         0000000180044864 f   libucrt:libm_error.obj
 0001:00043dac       ?initialize_multibyte@@YAHXZ 0000000180044dac f   libucrt:multibyte_initializer.obj
 0001:00043f80       $$000000                   0000000180044f80     libucrt:log10.obj
 0001:000449ec       common_control87           00000001800459ec f   libucrt:ieee.obj
 0001:00044d50       _log_special_common        0000000180045d50 f   libucrt:log_special.obj
 0001:00045760       $$000000                   0000000180046760     libucrt:log.obj
 0001:00045c90       $$000000                   0000000180046c90     LIBCMT:_guard_dispatch_.obj
 0001:00045cb0       ?dtor$0@?0??Get@Nan@@YA?AV?$MaybeLocal@VValue@v8@@@v8@@V?$Local@VObject@v8@@@3@V?$Local@VValue@v8@@@3@@Z@4HA 0000000180046cb0 f   zopfli-binding.obj
 0001:00045cb0       ?dtor$0@?0??NewInstance@Nan@@YA?AV?$MaybeLocal@VObject@v8@@@v8@@V?$Local@VObjectTemplate@v8@@@3@@Z@4HA 0000000180046cb0 f   zopfli-binding.obj
 0001:00045cb0       ?dtor$0@?0??GetFunction@Nan@@YA?AV?$MaybeLocal@VFunction@v8@@@v8@@V?$Local@VFunctionTemplate@v8@@@3@@Z@4HA 0000000180046cb0 f   zopfli-binding.obj
 0001:00045cb0       ?dtor$0@?0??convert@?$ToFactory@VUint32@v8@@@imp@Nan@@SA?AV?$MaybeLocal@VUint32@v8@@@v8@@V?$Local@VValue@v8@@@5@@Z@4HA 0000000180046cb0 f   zopfli-binding.obj
 0001:00045cb0       ?dtor$0@?0??convert@?$ToFactory@VInteger@v8@@@imp@Nan@@SA?AV?$MaybeLocal@VInteger@v8@@@v8@@V?$Local@VValue@v8@@@5@@Z@4HA 0000000180046cb0 f   zopflipng.obj
 0001:00045cc0       ?dtor$0@?0??Has@Nan@@YA?AV?$Maybe@_N@v8@@V?$Local@VObject@v8@@@3@V?$Local@VString@v8@@@3@@Z@4HA 0000000180046cc0 f   zopfli-binding.obj
 0001:00045cd0       ?dtor$0@?0??New@?$Factory@VFunctionTemplate@v8@@@imp@Nan@@SA?AV?$Local@VFunctionTemplate@v8@@@v8@@P6AXAEBV?$FunctionCallbackInfo@VValue@v8@@@3@@ZV?$Local@VValue@v8@@@5@V?$Local@VSignature@v8@@@5@@Z@4HA 0000000180046cd0 f   zopfli-binding.obj
 0001:00045ce0       ?dtor$0@?0???0Utf8String@Nan@@QEAA@V?$Local@VValue@v8@@@v8@@@Z@4HA 0000000180046ce0 f   zopfli-binding.obj
 0001:00045ce0       ?dtor$0@?0??ThrowTypeError@Nan@@YAXPEBD@Z@4HA 0000000180046ce0 f   zopfli-binding.obj
 0001:00045ce0       ?dtor$0@?0??Call_@Callback@Nan@@AEBA?AV?$Local@VValue@v8@@@v8@@PEAVIsolate@4@V?$Local@VObject@v8@@@4@HQEAV34@@Z@4HA 0000000180046ce0 f   zopfli-binding.obj
 0001:00045ce0       ?dtor$0@?0??HandleOKCallback@AsyncWorker@Nan@@MEAAXXZ@4HA 0000000180046ce0 f   zopfli-binding.obj
 0001:00045ce0       ?dtor$0@?0??HandleErrorCallback@AsyncWorker@Nan@@MEAAXXZ@4HA 0000000180046ce0 f   zopfli-binding.obj
 0001:00045cf0       ?dtor$0@?0??Call@Callback@Nan@@QEBA?AV?$Local@VValue@v8@@@v8@@HQEAV34@@Z@4HA 0000000180046cf0 f   zopfli-binding.obj
 0001:00045d00       ?dtor$0@?0??Call@Callback@Nan@@QEBA?AV?$MaybeLocal@VValue@v8@@@v8@@HQEAV?$Local@VValue@v8@@@4@PEAVAsyncResource@2@@Z@4HA 0000000180046d00 f   zopfli-binding.obj
 0001:00045d10       ?dtor$0@?0???0AsyncWorker@Nan@@QEAA@PEAVCallback@1@PEBD@Z@4HA 0000000180046d10 f   zopfli-binding.obj
 0001:00045d23       ?dtor$1@?0???0AsyncWorker@Nan@@QEAA@PEAVCallback@1@PEBD@Z@4HA 0000000180046d23 f   zopfli-binding.obj
 0001:00045d30       ?dtor$0@?0??WorkComplete@AsyncWorker@Nan@@UEAAXXZ@4HA 0000000180046d30 f   zopfli-binding.obj
 0001:00045d40       ?dtor$0@?0??ParseArgs@nodezopfli@@YAXAEBV?$FunctionCallbackInfo@VValue@v8@@@Nan@@AEAW4ZopfliFormat@@AEAUZopfliOptions@@@Z@4HA 0000000180046d40 f   zopfli-binding.obj
 0001:00045d4c       ?dtor$1@?0??ParseArgs@nodezopfli@@YAXAEBV?$FunctionCallbackInfo@VValue@v8@@@Nan@@AEAW4ZopfliFormat@@AEAUZopfliOptions@@@Z@4HA 0000000180046d4c f   zopfli-binding.obj
 0001:00045d60       ?dtor$0@?0???0CompressWorker@nodezopfli@@QEAA@PEAVCallback@Nan@@AEAW4ZopfliFormat@@AEAUZopfliOptions@@V?$Local@VObject@v8@@@v8@@@Z@4HA 0000000180046d60 f   zopfli-binding.obj
 0001:00045d6c       ?dtor$1@?0???0CompressWorker@nodezopfli@@QEAA@PEAVCallback@Nan@@AEAW4ZopfliFormat@@AEAUZopfliOptions@@V?$Local@VObject@v8@@@v8@@@Z@4HA 0000000180046d6c f   zopfli-binding.obj
 0001:00045d7f       ?dtor$2@?0???0CompressWorker@nodezopfli@@QEAA@PEAVCallback@Nan@@AEAW4ZopfliFormat@@AEAUZopfliOptions@@V?$Local@VObject@v8@@@v8@@@Z@4HA 0000000180046d7f f   zopfli-binding.obj
 0001:00045d8b       ?dtor$3@?0???0CompressWorker@nodezopfli@@QEAA@PEAVCallback@Nan@@AEAW4ZopfliFormat@@AEAUZopfliOptions@@V?$Local@VObject@v8@@@v8@@@Z@4HA 0000000180046d8b f   zopfli-binding.obj
 0001:00045da0       ?dtor$0@?0??Async@CompressBinding@nodezopfli@@SAXAEBV?$FunctionCallbackInfo@VValue@v8@@@Nan@@@Z@4HA 0000000180046da0 f   zopfli-binding.obj
 0001:00045dbd       ?dtor$1@?0??Async@CompressBinding@nodezopfli@@SAXAEBV?$FunctionCallbackInfo@VValue@v8@@@Nan@@@Z@4HA 0000000180046dbd f   zopfli-binding.obj
 0001:00045de0       ?dtor$0@?0???$SetMethod@VObject@v8@@VLocal@2@@Nan@@YAXV?$Local@VObject@v8@@@v8@@PEBDP6AXAEBV?$FunctionCallbackInfo@VValue@v8@@@0@@Z@Z@4HA 0000000180046de0 f   zopfli-binding.obj
 0001:00045df0       ?dtor$0@?0??parseOptions@@YAXAEBV?$Local@VObject@v8@@@v8@@AEAUZopfliPNGOptions@@@Z@4HA 0000000180046df0 f   zopflipng.obj
 0001:00045dfc       ?dtor$1@?0??parseOptions@@YAXAEBV?$Local@VObject@v8@@@v8@@AEAUZopfliPNGOptions@@@Z@4HA 0000000180046dfc f   zopflipng.obj
 0001:00045e08       ?dtor$2@?0??parseOptions@@YAXAEBV?$Local@VObject@v8@@@v8@@AEAUZopfliPNGOptions@@@Z@4HA 0000000180046e08 f   zopflipng.obj
 0001:00045e14       ?dtor$3@?0??parseOptions@@YAXAEBV?$Local@VObject@v8@@@v8@@AEAUZopfliPNGOptions@@@Z@4HA 0000000180046e14 f   zopflipng.obj
 0001:00045e20       ?dtor$4@?0??parseOptions@@YAXAEBV?$Local@VObject@v8@@@v8@@AEAUZopfliPNGOptions@@@Z@4HA 0000000180046e20 f   zopflipng.obj
 0001:00045e30       ?dtor$0@?0??PNGDeflate@@YAXAEBV?$FunctionCallbackInfo@VValue@v8@@@Nan@@@Z@4HA 0000000180046e30 f   zopflipng.obj
 0001:00045e3c       ?dtor$1@?0??PNGDeflate@@YAXAEBV?$FunctionCallbackInfo@VValue@v8@@@Nan@@@Z@4HA 0000000180046e3c f   zopflipng.obj
 0001:00045e48       ?dtor$2@?0??PNGDeflate@@YAXAEBV?$FunctionCallbackInfo@VValue@v8@@@Nan@@@Z@4HA 0000000180046e48 f   zopflipng.obj
 0001:00045e54       ?dtor$3@?0??PNGDeflate@@YAXAEBV?$FunctionCallbackInfo@VValue@v8@@@Nan@@@Z@4HA 0000000180046e54 f   zopflipng.obj
 0001:00045e60       ?dtor$4@?0??PNGDeflate@@YAXAEBV?$FunctionCallbackInfo@VValue@v8@@@Nan@@@Z@4HA 0000000180046e60 f   zopflipng.obj
 0001:00045e6c       ?dtor$5@?0??PNGDeflate@@YAXAEBV?$FunctionCallbackInfo@VValue@v8@@@Nan@@@Z@4HA 0000000180046e6c f   zopflipng.obj
 0001:00045e78       ?dtor$6@?0??PNGDeflate@@YAXAEBV?$FunctionCallbackInfo@VValue@v8@@@Nan@@@Z@4HA 0000000180046e78 f   zopflipng.obj
 0001:00045e84       ?dtor$7@?0??PNGDeflate@@YAXAEBV?$FunctionCallbackInfo@VValue@v8@@@Nan@@@Z@4HA 0000000180046e84 f   zopflipng.obj
 0001:00045e90       ?dtor$8@?0??PNGDeflate@@YAXAEBV?$FunctionCallbackInfo@VValue@v8@@@Nan@@@Z@4HA 0000000180046e90 f   zopflipng.obj
 0001:00045ea0       ?dtor$0@?0??LossyOptimizeTransparent@@YAXPEAVState@lodepng@@PEAEII@Z@4HA 0000000180046ea0 f   zopflipng_lib.obj
 0001:00045eac       ?dtor$1@?0??LossyOptimizeTransparent@@YAXPEAVState@lodepng@@PEAEII@Z@4HA 0000000180046eac f   zopflipng_lib.obj
 0001:00045ec0       ?dtor$0@?0??TryOptimize@@YAIAEBV?$vector@EV?$allocator@E@std@@@std@@IIAEBVState@lodepng@@_N20W4ZopfliPNGFilterStrategy@@2HPEBUZopfliPNGOptions@@PEAV12@@Z@4HA 0000000180046ec0 f   zopflipng_lib.obj
 0001:00045ecc       ?dtor$1@?0??TryOptimize@@YAIAEBV?$vector@EV?$allocator@E@std@@@std@@IIAEBVState@lodepng@@_N20W4ZopfliPNGFilterStrategy@@2HPEBUZopfliPNGOptions@@PEAV12@@Z@4HA 0000000180046ecc f   zopflipng_lib.obj
 0001:00045ed8       ?dtor$2@?0??TryOptimize@@YAIAEBV?$vector@EV?$allocator@E@std@@@std@@IIAEBVState@lodepng@@_N20W4ZopfliPNGFilterStrategy@@2HPEBUZopfliPNGOptions@@PEAV12@@Z@4HA 0000000180046ed8 f   zopflipng_lib.obj
 0001:00045ee4       ?dtor$3@?0??TryOptimize@@YAIAEBV?$vector@EV?$allocator@E@std@@@std@@IIAEBVState@lodepng@@_N20W4ZopfliPNGFilterStrategy@@2HPEBUZopfliPNGOptions@@PEAV12@@Z@4HA 0000000180046ee4 f   zopflipng_lib.obj
 0001:00045ef0       ?dtor$4@?0??TryOptimize@@YAIAEBV?$vector@EV?$allocator@E@std@@@std@@IIAEBVState@lodepng@@_N20W4ZopfliPNGFilterStrategy@@2HPEBUZopfliPNGOptions@@PEAV12@@Z@4HA 0000000180046ef0 f   zopflipng_lib.obj
 0001:00045f00       ?dtor$0@?0??AutoChooseFilterStrategy@@YAIAEBV?$vector@EV?$allocator@E@std@@@std@@IIAEBVState@lodepng@@_N20HPEAW4ZopfliPNGFilterStrategy@@PEA_N@Z@4HA 0000000180046f00 f   zopflipng_lib.obj
 0001:00045f10       ?dtor$0@?0??ChunksToKeep@@YAXAEBV?$vector@EV?$allocator@E@std@@@std@@AEBV?$vector@V?$basic_string@DU?$char_traits@D@std@@V?$allocator@D@2@@std@@V?$allocator@V?$basic_string@DU?$char_traits@D@std@@V?$allocator@D@2@@std@@@2@@2@PEAV?$set@V?$basic_string@DU?$char_traits@D@std@@V?$allocator@D@2@@std@@U?$less@V?$basic_string@DU?$char_traits@D@std@@V?$allocator@D@2@@std@@@2@V?$allocator@V?$basic_string@DU?$char_traits@D@std@@V?$allocator@D@2@@std@@@2@@2@@Z@4HA 0000000180046f10 f   zopflipng_lib.obj
 0001:00045f3a       ?dtor$1@?0??ChunksToKeep@@YAXAEBV?$vector@EV?$allocator@E@std@@@std@@AEBV?$vector@V?$basic_string@DU?$char_traits@D@std@@V?$allocator@D@2@@std@@V?$allocator@V?$basic_string@DU?$char_traits@D@std@@V?$allocator@D@2@@std@@@2@@2@PEAV?$set@V?$basic_string@DU?$char_traits@D@std@@V?$allocator@D@2@@std@@U?$less@V?$basic_string@DU?$char_traits@D@std@@V?$allocator@D@2@@std@@@2@V?$allocator@V?$basic_string@DU?$char_traits@D@std@@V?$allocator@D@2@@std@@@2@@2@@Z@4HA 0000000180046f3a f   zopflipng_lib.obj
 0001:00045f70       ?dtor$0@?0??KeepChunks@@YAXAEBV?$vector@EV?$allocator@E@std@@@std@@AEBV?$vector@V?$basic_string@DU?$char_traits@D@std@@V?$allocator@D@2@@std@@V?$allocator@V?$basic_string@DU?$char_traits@D@std@@V?$allocator@D@2@@std@@@2@@2@PEAV12@@Z@4HA 0000000180046f70 f   zopflipng_lib.obj
 0001:00045f9d       ?dtor$1@?0??KeepChunks@@YAXAEBV?$vector@EV?$allocator@E@std@@@std@@AEBV?$vector@V?$basic_string@DU?$char_traits@D@std@@V?$allocator@D@2@@std@@V?$allocator@V?$basic_string@DU?$char_traits@D@std@@V?$allocator@D@2@@std@@@2@@2@PEAV12@@Z@4HA 0000000180046f9d f   zopflipng_lib.obj
 0001:00045fca       ?dtor$2@?0??KeepChunks@@YAXAEBV?$vector@EV?$allocator@E@std@@@std@@AEBV?$vector@V?$basic_string@DU?$char_traits@D@std@@V?$allocator@D@2@@std@@V?$allocator@V?$basic_string@DU?$char_traits@D@std@@V?$allocator@D@2@@std@@@2@@2@PEAV12@@Z@4HA 0000000180046fca f   zopflipng_lib.obj
 0001:00045ff4       ?dtor$3@?0??KeepChunks@@YAXAEBV?$vector@EV?$allocator@E@std@@@std@@AEBV?$vector@V?$basic_string@DU?$char_traits@D@std@@V?$allocator@D@2@@std@@V?$allocator@V?$basic_string@DU?$char_traits@D@std@@V?$allocator@D@2@@std@@@2@@2@PEAV12@@Z@4HA 0000000180046ff4 f   zopflipng_lib.obj
 0001:00046010       ?dtor$4@?0??KeepChunks@@YAXAEBV?$vector@EV?$allocator@E@std@@@std@@AEBV?$vector@V?$basic_string@DU?$char_traits@D@std@@V?$allocator@D@2@@std@@V?$allocator@V?$basic_string@DU?$char_traits@D@std@@V?$allocator@D@2@@std@@@2@@2@PEAV12@@Z@4HA 0000000180047010 f   zopflipng_lib.obj
 0001:00046030       ?dtor$0@?0??ZopfliPNGOptimize@@YAHAEBV?$vector@EV?$allocator@E@std@@@std@@AEBUZopfliPNGOptions@@_NPEAV12@@Z@4HA 0000000180047030 f   zopflipng_lib.obj
 0001:0004603c       ?dtor$1@?0??ZopfliPNGOptimize@@YAHAEBV?$vector@EV?$allocator@E@std@@@std@@AEBUZopfliPNGOptions@@_NPEAV12@@Z@4HA 000000018004703c f   zopflipng_lib.obj
 0001:00046048       ?dtor$2@?0??ZopfliPNGOptimize@@YAHAEBV?$vector@EV?$allocator@E@std@@@std@@AEBUZopfliPNGOptions@@_NPEAV12@@Z@4HA 0000000180047048 f   zopflipng_lib.obj
 0001:00046054       ?dtor$3@?0??ZopfliPNGOptimize@@YAHAEBV?$vector@EV?$allocator@E@std@@@std@@AEBUZopfliPNGOptions@@_NPEAV12@@Z@4HA 0000000180047054 f   zopflipng_lib.obj
 0001:00046060       ?dtor$4@?0??ZopfliPNGOptimize@@YAHAEBV?$vector@EV?$allocator@E@std@@@std@@AEBUZopfliPNGOptions@@_NPEAV12@@Z@4HA 0000000180047060 f   zopflipng_lib.obj
 0001:0004606c       ?dtor$5@?0??ZopfliPNGOptimize@@YAHAEBV?$vector@EV?$allocator@E@std@@@std@@AEBUZopfliPNGOptions@@_NPEAV12@@Z@4HA 000000018004706c f   zopflipng_lib.obj
 0001:00046078       ?dtor$6@?0??ZopfliPNGOptimize@@YAHAEBV?$vector@EV?$allocator@E@std@@@std@@AEBUZopfliPNGOptions@@_NPEAV12@@Z@4HA 0000000180047078 f   zopflipng_lib.obj
 0001:00046084       ?dtor$7@?0??ZopfliPNGOptimize@@YAHAEBV?$vector@EV?$allocator@E@std@@@std@@AEBUZopfliPNGOptions@@_NPEAV12@@Z@4HA 0000000180047084 f   zopflipng_lib.obj
 0001:00046090       ?dtor$9@?0??ZopfliPNGOptimize@@YAHAEBV?$vector@EV?$allocator@E@std@@@std@@AEBUZopfliPNGOptions@@_NPEAV12@@Z@4HA 0000000180047090 f   zopflipng_lib.obj
 0001:000460bd       ?dtor$10@?0??ZopfliPNGOptimize@@YAHAEBV?$vector@EV?$allocator@E@std@@@std@@AEBUZopfliPNGOptions@@_NPEAV12@@Z@4HA 00000001800470bd f   zopflipng_lib.obj
 0001:000460c9       ?dtor$11@?0??ZopfliPNGOptimize@@YAHAEBV?$vector@EV?$allocator@E@std@@@std@@AEBUZopfliPNGOptions@@_NPEAV12@@Z@4HA 00000001800470c9 f   zopflipng_lib.obj
 0001:000460d5       ?dtor$12@?0??ZopfliPNGOptimize@@YAHAEBV?$vector@EV?$allocator@E@std@@@std@@AEBUZopfliPNGOptions@@_NPEAV12@@Z@4HA 00000001800470d5 f   zopflipng_lib.obj
 0001:000460e1       ?dtor$13@?0??ZopfliPNGOptimize@@YAHAEBV?$vector@EV?$allocator@E@std@@@std@@AEBUZopfliPNGOptions@@_NPEAV12@@Z@4HA 00000001800470e1 f   zopflipng_lib.obj
 0001:0004610a       ?dtor$15@?0??ZopfliPNGOptimize@@YAHAEBV?$vector@EV?$allocator@E@std@@@std@@AEBUZopfliPNGOptions@@_NPEAV12@@Z@4HA 000000018004710a f   zopflipng_lib.obj
 0001:00046120       ?dtor$0@?0???$_Insert_at@AEBV?$basic_string@DU?$char_traits@D@std@@V?$allocator@D@2@@std@@U_Nil@2@@?$_Tree@V?$_Tset_traits@V?$basic_string@DU?$char_traits@D@std@@V?$allocator@D@2@@std@@U?$less@V?$basic_string@DU?$char_traits@D@std@@V?$allocator@D@2@@std@@@2@V?$allocator@V?$basic_string@DU?$char_traits@D@std@@V?$allocator@D@2@@std@@@2@$0A@@std@@@std@@IEAA?AV?$_Tree_const_iterator@V?$_Tree_val@U?$_Tree_simple_types@V?$basic_string@DU?$char_traits@D@std@@V?$allocator@D@2@@std@@@std@@@std@@@1@_NPEAU?$_Tree_node@V?$basic_string@DU?$char_traits@D@std@@V?$allocator@D@2@@std@@PEAX@1@AEBV?$basic_string@DU?$char_traits@D@std@@V?$allocator@D@2@@1@U_Nil@1@@Z@4HA 0000000180047120 f   zopflipng_lib.obj
 0001:00046140       ?dtor$0@?0??lodepng_decode_memory@@YAIPEAPEAEPEAI1PEBE_KW4LodePNGColorType@@I@Z@4HA 0000000180047140 f   lodepng.obj
 0001:00046150       ?dtor$0@?0??decode@lodepng@@YAIAEAV?$vector@EV?$allocator@E@std@@@std@@AEAI1PEBE_KW4LodePNGColorType@@I@Z@4HA 0000000180047150 f   lodepng.obj
 0001:00046160       ?dtor$0@?0???0_Locinfo@std@@QEAA@PEBD@Z@4HA 0000000180047160 f   lodepng_util.obj
 0001:0004616c       ?dtor$1@?0???0_Locinfo@std@@QEAA@PEBD@Z@4HA 000000018004716c f   lodepng_util.obj
 0001:0004617c       ?dtor$2@?0???0_Locinfo@std@@QEAA@PEBD@Z@4HA 000000018004717c f   lodepng_util.obj
 0001:0004618c       ?dtor$3@?0???0_Locinfo@std@@QEAA@PEBD@Z@4HA 000000018004718c f   lodepng_util.obj
 0001:0004619c       ?dtor$4@?0???0_Locinfo@std@@QEAA@PEBD@Z@4HA 000000018004719c f   lodepng_util.obj
 0001:000461ac       ?dtor$5@?0???0_Locinfo@std@@QEAA@PEBD@Z@4HA 00000001800471ac f   lodepng_util.obj
 0001:000461bc       ?dtor$6@?0???0_Locinfo@std@@QEAA@PEBD@Z@4HA 00000001800471bc f   lodepng_util.obj
 0001:000461cc       ?dtor$7@?0???0_Locinfo@std@@QEAA@PEBD@Z@4HA 00000001800471cc f   lodepng_util.obj
 0001:000461e0       ?dtor$0@?0??_Getcat@?$ctype@D@std@@SA_KPEAPEBVfacet@locale@2@PEBV42@@Z@4HA 00000001800471e0 f   lodepng_util.obj
 0001:00046200       ?dtor$2@?0??_Getcat@?$ctype@D@std@@SA_KPEAPEBVfacet@locale@2@PEBV42@@Z@4HA 0000000180047200 f   lodepng_util.obj
 0001:0004620c       ?dtor$3@?0??_Getcat@?$ctype@D@std@@SA_KPEAPEBVfacet@locale@2@PEBV42@@Z@4HA 000000018004720c f   lodepng_util.obj
 0001:0004621c       ?dtor$4@?0??_Getcat@?$ctype@D@std@@SA_KPEAPEBVfacet@locale@2@PEBV42@@Z@4HA 000000018004721c f   lodepng_util.obj
 0001:0004622c       ?dtor$5@?0??_Getcat@?$ctype@D@std@@SA_KPEAPEBVfacet@locale@2@PEBV42@@Z@4HA 000000018004722c f   lodepng_util.obj
 0001:0004623c       ?dtor$6@?0??_Getcat@?$ctype@D@std@@SA_KPEAPEBVfacet@locale@2@PEBV42@@Z@4HA 000000018004723c f   lodepng_util.obj
 0001:0004624c       ?dtor$7@?0??_Getcat@?$ctype@D@std@@SA_KPEAPEBVfacet@locale@2@PEBV42@@Z@4HA 000000018004724c f   lodepng_util.obj
 0001:0004625c       ?dtor$8@?0??_Getcat@?$ctype@D@std@@SA_KPEAPEBVfacet@locale@2@PEBV42@@Z@4HA 000000018004725c f   lodepng_util.obj
 0001:0004626c       ?dtor$9@?0??_Getcat@?$ctype@D@std@@SA_KPEAPEBVfacet@locale@2@PEBV42@@Z@4HA 000000018004726c f   lodepng_util.obj
 0001:00046280       ?dtor$0@?0??_Makestr@_System_error@std@@CA?AV?$basic_string@DU?$char_traits@D@std@@V?$allocator@D@2@@2@Verror_code@2@V32@@Z@4HA 0000000180047280 f   lodepng_util.obj
 0001:0004628c       ?dtor$1@?0??_Makestr@_System_error@std@@CA?AV?$basic_string@DU?$char_traits@D@std@@V?$allocator@D@2@@2@Verror_code@2@V32@@Z@4HA 000000018004728c f   lodepng_util.obj
 0001:000462a0       ?dtor$4@?0??clear@ios_base@std@@QEAAXH_N@Z@4HA 00000001800472a0 f   lodepng_util.obj
 0001:000462ac       ?dtor$0@?0??clear@ios_base@std@@QEAAXH_N@Z@4HA 00000001800472ac f   lodepng_util.obj
 0001:000462b8       ?dtor$14@?0??clear@ios_base@std@@QEAAXH_N@Z@4HA 00000001800472b8 f   lodepng_util.obj
 0001:000462c4       ?dtor$1@?0??clear@ios_base@std@@QEAAXH_N@Z@4HA 00000001800472c4 f   lodepng_util.obj
 0001:000462d0       ?dtor$24@?0??clear@ios_base@std@@QEAAXH_N@Z@4HA 00000001800472d0 f   lodepng_util.obj
 0001:000462dc       ?dtor$2@?0??clear@ios_base@std@@QEAAXH_N@Z@4HA 00000001800472dc f   lodepng_util.obj
 0001:000462f0       ?dtor$0@?0??getChunks@lodepng@@YAIQEAV?$vector@V?$basic_string@DU?$char_traits@D@std@@V?$allocator@D@2@@std@@V?$allocator@V?$basic_string@DU?$char_traits@D@std@@V?$allocator@D@2@@std@@@2@@std@@QEAV?$vector@V?$vector@EV?$allocator@E@std@@@std@@V?$allocator@V?$vector@EV?$allocator@E@std@@@std@@@2@@3@AEBV?$vector@EV?$allocator@E@std@@@3@@Z@4HA 00000001800472f0 f   lodepng_util.obj
 0001:000462fc       ?dtor$1@?0??getChunks@lodepng@@YAIQEAV?$vector@V?$basic_string@DU?$char_traits@D@std@@V?$allocator@D@2@@std@@V?$allocator@V?$basic_string@DU?$char_traits@D@std@@V?$allocator@D@2@@std@@@2@@std@@QEAV?$vector@V?$vector@EV?$allocator@E@std@@@std@@V?$allocator@V?$vector@EV?$allocator@E@std@@@std@@@2@@3@AEBV?$vector@EV?$allocator@E@std@@@3@@Z@4HA 00000001800472fc f   lodepng_util.obj
 0001:00046310       ?dtor$1@?0??insertChunks@lodepng@@YAIAEAV?$vector@EV?$allocator@E@std@@@std@@QEBV?$vector@V?$vector@EV?$allocator@E@std@@@std@@V?$allocator@V?$vector@EV?$allocator@E@std@@@std@@@2@@3@@Z@4HA 0000000180047310 f   lodepng_util.obj
 0001:00046320       ?dtor$0@?0??getFilterTypesInterlaced@lodepng@@YAIAEAV?$vector@V?$vector@EV?$allocator@E@std@@@std@@V?$allocator@V?$vector@EV?$allocator@E@std@@@std@@@2@@std@@AEBV?$vector@EV?$allocator@E@std@@@3@@Z@4HA 0000000180047320 f   lodepng_util.obj
 0001:0004632c       ?dtor$1@?0??getFilterTypesInterlaced@lodepng@@YAIAEAV?$vector@V?$vector@EV?$allocator@E@std@@@std@@V?$allocator@V?$vector@EV?$allocator@E@std@@@std@@@2@@std@@AEBV?$vector@EV?$allocator@E@std@@@3@@Z@4HA 000000018004732c f   lodepng_util.obj
 0001:00046338       ?dtor$4@?0??getFilterTypesInterlaced@lodepng@@YAIAEAV?$vector@V?$vector@EV?$allocator@E@std@@@std@@V?$allocator@V?$vector@EV?$allocator@E@std@@@std@@@2@@std@@AEBV?$vector@EV?$allocator@E@std@@@3@@Z@4HA 0000000180047338 f   lodepng_util.obj
 0001:00046350       ?dtor$0@?0??getFilterTypes@lodepng@@YAIAEAV?$vector@EV?$allocator@E@std@@@std@@AEBV23@@Z@4HA 0000000180047350 f   lodepng_util.obj
 0001:0004635c       ?dtor$1@?0??getFilterTypes@lodepng@@YAIAEAV?$vector@EV?$allocator@E@std@@@std@@AEBV23@@Z@4HA 000000018004735c f   lodepng_util.obj
 0001:00046370       ?dtor$0@?0??push_back@?$vector@V?$basic_string@DU?$char_traits@D@std@@V?$allocator@D@2@@std@@V?$allocator@V?$basic_string@DU?$char_traits@D@std@@V?$allocator@D@2@@std@@@2@@std@@QEAAXAEBV?$basic_string@DU?$char_traits@D@std@@V?$allocator@D@2@@2@@Z@4HA 0000000180047370 f   lodepng_util.obj
 0001:0004638c       ?dtor$1@?0??push_back@?$vector@V?$basic_string@DU?$char_traits@D@std@@V?$allocator@D@2@@std@@V?$allocator@V?$basic_string@DU?$char_traits@D@std@@V?$allocator@D@2@@std@@@2@@std@@QEAAXAEBV?$basic_string@DU?$char_traits@D@std@@V?$allocator@D@2@@2@@Z@4HA 000000018004738c f   lodepng_util.obj
 0001:000463b0       ?dtor$0@?0???$use_facet@V?$ctype@D@std@@@std@@YAAEBV?$ctype@D@0@AEBVlocale@0@@Z@4HA 00000001800473b0 f   lodepng_util.obj
 0001:000463c0       ?dtor$0@?0??widen@?$basic_ios@DU?$char_traits@D@std@@@std@@QEBADD@Z@4HA 00000001800473c0 f   lodepng_util.obj
 0001:000463cc       ?dtor$0@?0???$use_facet@V?$codecvt@DDU_Mbstatet@@@std@@@std@@YAAEBV?$codecvt@DDU_Mbstatet@@@0@AEBVlocale@0@@Z@4HA 00000001800473cc f   libcpmt:cout.obj
 0001:000463d8       ?dtor$0@?0???0?$basic_ostream@DU?$char_traits@D@std@@@std@@QEAA@PEAV?$basic_streambuf@DU?$char_traits@D@std@@@1@_N@Z@4HA 00000001800473d8 f   libcpmt:cout.obj
 0001:00046402       ?dtor$0@?0??_Endwrite@?$basic_filebuf@DU?$char_traits@D@std@@@std@@IEAA_NXZ@4HA 0000000180047402 f   libcpmt:cout.obj
 0001:0004640e       ?dtor$0@?0??_Getcat@?$codecvt@DDU_Mbstatet@@@std@@SA_KPEAPEBVfacet@locale@2@PEBV42@@Z@4HA 000000018004740e f   libcpmt:cout.obj
 0001:0004642e       ?dtor$0@?0??overflow@?$basic_filebuf@DU?$char_traits@D@std@@@std@@MEAAHH@Z@4HA 000000018004742e f   libcpmt:cout.obj
 0001:0004642e       ?dtor$0@?0??uflow@?$basic_filebuf@DU?$char_traits@D@std@@@std@@MEAAHXZ@4HA 000000018004742e f   libcpmt:cout.obj
 0001:0004643a       ?dtor$0@?0??_Init@locale@std@@CAPEAV_Locimp@12@_N@Z@4HA 000000018004743a f   libcpmt:locale0.obj
 0001:0004643a       ?dtor$0@?0??_Locimp_dtor@_Locimp@locale@std@@CAXPEAV123@@Z@4HA 000000018004743a f   libcpmt:locale0.obj
 0001:00046446       ?fin$0@?0???_M@YAXPEAX_K1P6AX0@Z@Z@4HA 0000000180047446 f   LIBCMT:ehvecdtr.obj
 0001:00046472       ?filt$0@?0??__ArrayUnwind@@YAXPEAX_K1P6AX0@Z@Z@4HA 0000000180047472 f   LIBCMT:ehvecdtr.obj
 0001:000464b3       ?fin$0@?0???_L@YAXPEAX_K1P6AX0@Z2@Z@4HA 00000001800474b3 f   LIBCMT:ehvecctr.obj
 0001:000464df       __scrt_is_nonwritable_in_current_image$filt$0 00000001800474df f   LIBCMT:utility.obj
 0001:000464f7       ?fin$0@?0??dllmain_crt_process_attach@@YAHQEAUHINSTANCE__@@QEAX@Z@4HA 00000001800474f7 f   LIBCMT:dll_dllmain.obj
 0001:0004650e       ?fin$0@?0??dllmain_crt_process_detach@@YAH_N@Z@4HA 000000018004750e f   LIBCMT:dll_dllmain.obj
 0001:0004652a       ?filt$0@?0??dllmain_dispatch@@YAHQEAUHINSTANCE__@@KQEAX@Z@4HA 000000018004752a f   LIBCMT:dll_dllmain.obj
 0001:00046560       __CxxCallCatchBlock$filt$0 0000000180047560 f   libvcruntime:frame.obj
 0001:00046585       __CxxCallCatchBlock$fin$1  0000000180047585 f   libvcruntime:frame.obj
 0001:000465fd       __DestructExceptionObject$filt$0 00000001800475fd f   libvcruntime:frame.obj
 0001:00046615       __FrameUnwindToState$filt$0 0000000180047615 f   libvcruntime:frame.obj
 0001:0004662b       __FrameUnwindToState$fin$1 000000018004762b f   libvcruntime:frame.obj
 0001:0004664e       _CallSETranslator$filt$0   000000018004764e f   libvcruntime:trnsctrl.obj
 0001:0004669a       ?fin$0@?0???$?RV<lambda_5d4c3fee44080f75d5d9762853974fe0>@@AEAV<lambda_532e024f4337e6fc7ad266c2bef9f4ed>@@V<lambda_c87bdc10097eb2402edb8ba9bdf0697b>@@@?$__crt_seh_guarded_call@_K@@QEAA_K$$QEAV<lambda_5d4c3fee44080f75d5d9762853974fe0>@@AEAV<lambda_532e024f4337e6fc7ad266c2bef9f4ed>@@$$QEAV<lambda_c87bdc10097eb2402edb8ba9bdf0697b>@@@Z@4HA 000000018004769a f   libucrt:fwrite.obj
 0001:0004669a       ?fin$0@?0???$?RV<lambda_7a5ef57ff966f610505f1d28a3d40618>@@AEAV<lambda_b721fa326cdb32351d23dfa67958c160>@@V<lambda_5e0fb27672408a07956fe59e48ccb2aa>@@@?$__crt_seh_guarded_call@H@@QEAAH$$QEAV<lambda_7a5ef57ff966f610505f1d28a3d40618>@@AEAV<lambda_b721fa326cdb32351d23dfa67958c160>@@$$QEAV<lambda_5e0fb27672408a07956fe59e48ccb2aa>@@@Z@4HA 000000018004769a f   libucrt:setvbuf.obj
 0001:0004669a       ?fin$0@?0???$?RV<lambda_7b91131dde12e1c3dfc74ff76b3f2eac>@@AEAV<lambda_dd75445284c072d0bd3768540cc698fa>@@V<lambda_16bc4ecb55b4718497c16bceaea2ceaf>@@@?$__crt_seh_guarded_call@H@@QEAAH$$QEAV<lambda_7b91131dde12e1c3dfc74ff76b3f2eac>@@AEAV<lambda_dd75445284c072d0bd3768540cc698fa>@@$$QEAV<lambda_16bc4ecb55b4718497c16bceaea2ceaf>@@@Z@4HA 000000018004769a f   libucrt:output.obj
 0001:0004669a       ?fin$0@?0???$?RV<lambda_aa279a7bcb127014629d5b1d62c7325d>@@AEAV<lambda_0a64b6a4deda75c01876f29c44fc5eb3>@@V<lambda_3323e69fbefe9d1a11713e670d47cdfa>@@@?$__crt_seh_guarded_call@H@@QEAAH$$QEAV<lambda_aa279a7bcb127014629d5b1d62c7325d>@@AEAV<lambda_0a64b6a4deda75c01876f29c44fc5eb3>@@$$QEAV<lambda_3323e69fbefe9d1a11713e670d47cdfa>@@@Z@4HA 000000018004769a f   libucrt:output.obj
 0001:000466b5       ?filt$0@?0??common_exit@@YAXHW4_crt_exit_cleanup_mode@@W4_crt_exit_return_mode@@@Z@4HA 00000001800476b5 f   libucrt:exit.obj
 0001:000466d0       ?fin$1@?0??common_exit@@YAXHW4_crt_exit_cleanup_mode@@W4_crt_exit_return_mode@@@Z@4HA 00000001800476d0 f   libucrt:exit.obj
 0001:000466e9       ?fin$0@?0???$common_ftell@_J@@YA_JV__crt_stdio_stream@@@Z@4HA 00000001800476e9 f   libucrt:ftell.obj
 0001:000466e9       ?fin$0@?0???$common_ftell@J@@YAJV__crt_stdio_stream@@@Z@4HA 00000001800476e9 f   libucrt:ftell.obj
 0001:000466e9       ?fin$0@?0??common_fseek@@YAHV__crt_stdio_stream@@_JH@Z@4HA 00000001800476e9 f   libucrt:fseek.obj
 0001:00046703       ?fin$0@?0???$common_fsopen@D@@YAPEAU_iobuf@@QEBD0H@Z@4HA 0000000180047703 f   libucrt:fopen.obj
 0001:0004672e       fflush$fin$0               000000018004772e f   libucrt:fflush.obj
 0001:0004672e       fclose$fin$0               000000018004772e f   libucrt:fclose.obj
 0001:00046746       fread_s$fin$0              0000000180047746 f   libucrt:fread.obj
 0001:0004675e       common_flush_all$fin$0     000000018004775e f   libucrt:fflush.obj
 0001:00046778       common_flush_all$fin$1     0000000180047778 f   libucrt:fflush.obj
 0001:00046791       fgetc$fin$0                0000000180047791 f   libucrt:fgetc.obj
 0001:000467ab       fputc$fin$0                00000001800477ab f   libucrt:fputc.obj
 0001:000467c5       ungetc$fin$0               00000001800477c5 f   libucrt:ungetc.obj
 0001:000467dd       setlocale$fin$0            00000001800477dd f   libucrt:setlocale.obj
 0001:000467f8       _query_new_handler$fin$0   00000001800477f8 f   libucrt:new_handler.obj
 0001:0004680e       ?fin$0@?0???$?RV<lambda_e24bbb7b643b32fcea6fa61b31d4c984>@@AEAV<lambda_275893d493268fdec8709772e3fcec0e>@@V<lambda_9d71df4d7cf3f480f8d633942495c3b0>@@@?$__crt_seh_guarded_call@H@@QEAAH$$QEAV<lambda_e24bbb7b643b32fcea6fa61b31d4c984>@@AEAV<lambda_275893d493268fdec8709772e3fcec0e>@@$$QEAV<lambda_9d71df4d7cf3f480f8d633942495c3b0>@@@Z@4HA 000000018004780e f   libucrt:onexit.obj
 0001:0004682b       ?fin$0@?0???$?RV<lambda_99476a1ad63dd22509b5d3e65b0ffc95>@@AEAV<lambda_ad1ced32f4ac17aa236e5ef05d6b3b7c>@@V<lambda_f7424dd8d45958661754dc4f2697e9c3>@@@?$__crt_seh_guarded_call@X@@QEAAX$$QEAV<lambda_99476a1ad63dd22509b5d3e65b0ffc95>@@AEAV<lambda_ad1ced32f4ac17aa236e5ef05d6b3b7c>@@$$QEAV<lambda_f7424dd8d45958661754dc4f2697e9c3>@@@Z@4HA 000000018004782b f   libucrt:mbctype.obj
 0001:0004682b       ?fin$0@?0???$?RV<lambda_fb3a7dec4e47f37f22dae91bb15c9095>@@AEAV<lambda_698284760c8add0bfb0756c19673e34b>@@V<lambda_dfb8eca1e75fef3034a8fb18dd509707>@@@?$__crt_seh_guarded_call@X@@QEAAX$$QEAV<lambda_fb3a7dec4e47f37f22dae91bb15c9095>@@AEAV<lambda_698284760c8add0bfb0756c19673e34b>@@$$QEAV<lambda_dfb8eca1e75fef3034a8fb18dd509707>@@@Z@4HA 000000018004782b f   libucrt:per_thread_data.obj
 0001:0004682b       ?fin$0@?0???$?RV<lambda_c36588078e9f5dfd39652860aa6b3aaf>@@AEAV<lambda_ec61778202f4f5fc7e7711acc23c3bca>@@V<lambda_dc9d2797ccde5d239b4a0efae8ebd7db>@@@?$__crt_seh_guarded_call@P6AXH@Z@@QEAAP6AXH@Z$$QEAV<lambda_c36588078e9f5dfd39652860aa6b3aaf>@@AEAV<lambda_ec61778202f4f5fc7e7711acc23c3bca>@@$$QEAV<lambda_dc9d2797ccde5d239b4a0efae8ebd7db>@@@Z@4HA 000000018004782b f   libucrt:signal.obj
 0001:0004682b       ?fin$0@?0???$?RV<lambda_630b2aca97f6d20d5b5ea6529ea6b6af>@@AEAV<lambda_af91936f1d075d609f72d9d8cba980af>@@V<lambda_e82fa975f615b5c7c7b0e4d178fdae67>@@@?$__crt_seh_guarded_call@H@@QEAAH$$QEAV<lambda_630b2aca97f6d20d5b5ea6529ea6b6af>@@AEAV<lambda_af91936f1d075d609f72d9d8cba980af>@@$$QEAV<lambda_e82fa975f615b5c7c7b0e4d178fdae67>@@@Z@4HA 000000018004782b f   libucrt:winapi_thunks.obj
 0001:0004682b       ?fin$0@?0???$?RV<lambda_5e887d1dcbef67a5eb4283622ba103bf>@@AEAV<lambda_4466841279450cc726390878d4a41900>@@V<lambda_341c25c0346d94847f1f3c463c57e077>@@@?$__crt_seh_guarded_call@X@@QEAAX$$QEAV<lambda_5e887d1dcbef67a5eb4283622ba103bf>@@AEAV<lambda_4466841279450cc726390878d4a41900>@@$$QEAV<lambda_341c25c0346d94847f1f3c463c57e077>@@@Z@4HA 000000018004782b f   libucrt:per_thread_data.obj
 0001:0004682b       ?fin$0@?0???$?RV<lambda_d67e8342c384adda8f857579ab50b2ae>@@AEAV<lambda_30712929f77e709619002f448b6a9510>@@V<lambda_4525336fd7e478d965fb7ca7a337cad8>@@@?$__crt_seh_guarded_call@X@@QEAAX$$QEAV<lambda_d67e8342c384adda8f857579ab50b2ae>@@AEAV<lambda_30712929f77e709619002f448b6a9510>@@$$QEAV<lambda_4525336fd7e478d965fb7ca7a337cad8>@@@Z@4HA 000000018004782b f   libucrt:wsetlocale.obj
 0001:0004682b       ?fin$0@?0???$?RV<lambda_b8c45f8f788dd370798f47cfe8ac3a86>@@AEAV<lambda_4e60a939b0d047cfe11ddc22648dfba9>@@V<lambda_332c3edc96d0294ec56c57d38c1cdfd5>@@@?$__crt_seh_guarded_call@H@@QEAAH$$QEAV<lambda_b8c45f8f788dd370798f47cfe8ac3a86>@@AEAV<lambda_4e60a939b0d047cfe11ddc22648dfba9>@@$$QEAV<lambda_332c3edc96d0294ec56c57d38c1cdfd5>@@@Z@4HA 000000018004782b f   libucrt:onexit.obj
 0001:0004682b       ?fin$0@?0???$?RV<lambda_72d1df2b273a38828b1ce30cbf4cdab5>@@AEAV<lambda_876a65b173b8412d3a47c70a915b0cf4>@@V<lambda_41932305e351933ebe8f8be3ed8bb5dc>@@@?$__crt_seh_guarded_call@X@@QEAAX$$QEAV<lambda_72d1df2b273a38828b1ce30cbf4cdab5>@@AEAV<lambda_876a65b173b8412d3a47c70a915b0cf4>@@$$QEAV<lambda_41932305e351933ebe8f8be3ed8bb5dc>@@@Z@4HA 000000018004782b f   libucrt:per_thread_data.obj
 0001:0004682b       ?fin$0@?0???$?RV<lambda_46352004c1216016012b18bd6f87e700>@@AEAV<lambda_3bd07e1a1191394380780325891bf33f>@@V<lambda_334532d3f185bcaa59b5be82d7d22bff>@@@?$__crt_seh_guarded_call@X@@QEAAX$$QEAV<lambda_46352004c1216016012b18bd6f87e700>@@AEAV<lambda_3bd07e1a1191394380780325891bf33f>@@$$QEAV<lambda_334532d3f185bcaa59b5be82d7d22bff>@@@Z@4HA 000000018004782b f   libucrt:per_thread_data.obj
 0001:00046845       raise$fin$0                0000000180047845 f   libucrt:signal.obj
 0001:00046869       __acrt_lowio_ensure_fh_exists$fin$0 0000000180047869 f   libucrt:osfinfo.obj
 0001:00046869       _alloc_osfhnd$fin$0        0000000180047869 f   libucrt:osfinfo.obj
 0001:00046869       __acrt_initialize_lowio$fin$0 0000000180047869 f   libucrt:ioinit.obj
 0001:00046882       ?fin$0@?0???$?RV<lambda_5df02c53a8f32f81fd64e5bbb78039f1>@@AEAV<lambda_2af78c5f5901b1372d98f9ab3177dfa6>@@AEAV<lambda_f51fe5fd7c79a33db34fc9310f277369>@@@?$__crt_seh_guarded_call@X@@QEAAX$$QEAV<lambda_5df02c53a8f32f81fd64e5bbb78039f1>@@AEAV<lambda_2af78c5f5901b1372d98f9ab3177dfa6>@@AEAV<lambda_f51fe5fd7c79a33db34fc9310f277369>@@@Z@4HA 0000000180047882 f   libucrt:wsetlocale.obj
 0001:000468a3       ?fin$0@?0??__acrt_stdio_allocate_stream@@YA?AV__crt_stdio_stream@@XZ@4HA 00000001800478a3 f   libucrt:stream.obj
 0001:000468a3       _fcloseall$fin$0           00000001800478a3 f   libucrt:closeall.obj
 0001:000468bc       ?fin$0@?0???$?RV<lambda_b521505b218e5242e90febf6bfebc422>@@AEAV<lambda_6978c1fb23f02e42e1d9e99668cc68aa>@@V<lambda_314360699dd331753a4119843814e9a7>@@@?$__crt_seh_guarded_call@H@@QEAAH$$QEAV<lambda_b521505b218e5242e90febf6bfebc422>@@AEAV<lambda_6978c1fb23f02e42e1d9e99668cc68aa>@@$$QEAV<lambda_314360699dd331753a4119843814e9a7>@@@Z@4HA 00000001800478bc f   libucrt:commit.obj
 0001:000468bc       ?fin$0@?0???$?RV<lambda_bfedae4ebbf01fab1bb6dcc6a9e276e0>@@AEAV<lambda_2fe9b910cf3cbf4a0ab98a02ba45b3ec>@@V<lambda_237c231691f317818eb88cc1d5d642d6>@@@?$__crt_seh_guarded_call@H@@QEAAH$$QEAV<lambda_bfedae4ebbf01fab1bb6dcc6a9e276e0>@@AEAV<lambda_2fe9b910cf3cbf4a0ab98a02ba45b3ec>@@$$QEAV<lambda_237c231691f317818eb88cc1d5d642d6>@@@Z@4HA 00000001800478bc f   libucrt:close.obj
 0001:000468d6       _write$fin$0               00000001800478d6 f   libucrt:write.obj
 0001:000468d6       _read$fin$0                00000001800478d6 f   libucrt:read.obj
 0001:000468d6       ?fin$0@?0???$common_lseek@_J@@YA_JH_JH@Z@4HA 00000001800478d6 f   libucrt:lseek.obj
 0001:000468ed       __acrt_update_thread_multibyte_data$fin$0 00000001800478ed f   libucrt:mbctype.obj
 0001:00046906       __acrt_uninitialize_locale$fin$0 0000000180047906 f   libucrt:wsetlocale.obj
 0001:00046906       __acrt_update_thread_locale_data$fin$0 0000000180047906 f   libucrt:locale_refcounting.obj
 0001:0004691f       ?fin$0@?0???$common_sopen_dispatch@D@@YAHQEBDHHHQEAHH@Z@4HA 000000018004791f f   libucrt:open.obj
 0001:00046972       _ctrlfp$filt$0             0000000180047972 f   libucrt:fpctrl.obj
 0001:00046972       common_control87$filt$0    0000000180047972 f   libucrt:ieee.obj
 0001:000469a0       _IsNonwritableInCurrentImage$filt$0 00000001800479a0 f   LIBCMT:pesect.obj
 0001:000469c4       ??__Finitlocks@std@@YAXXZ  00000001800479c4 f   libcpmt:xlock.obj
 0001:000469d0       ??__Fcout@std@@YAXXZ       00000001800479d0 f   libcpmt:cout.obj
 0001:00046a30       ??__Ffout@std@@YAXXZ       0000000180047a30 f   libcpmt:cout.obj
 0001:00046a3c       ??__Finitlocks@@YAXXZ      0000000180047a3c f   libcpmt:cout.obj
 0001:00046a48       ??__F_Fac_tidy_reg@std@@YAXXZ 0000000180047a48 f   libcpmt:locale0.obj
 0001:00046a74       ??__Fclassic_locale@std@@YAXXZ 0000000180047a74 f   libcpmt:locale0.obj
 0001:00046ad4       ??__Finit_atexit@@YAXXZ    0000000180047ad4 f   libcpmt:iosptrs.obj
 0001:00046b28       ??__Finitlocks@std@@YAXXZ  0000000180047b28 f   libcpmt:iosptrs.obj
 0002:000002e0       ?initlocks$initializer$@std@@3P6AXXZEA 00000001800482e0     libcpmt:xlock.obj
 0002:000002e8       ?initlocks$initializer$@@3P6AXXZEA 00000001800482e8     libcpmt:cout.obj
 0002:000002f0       ?fout$initializer$@std@@3P6AXXZEA 00000001800482f0     libcpmt:cout.obj
 0002:000002f8       ?cout$initializer$@std@@3P6AXXZEA 00000001800482f8     libcpmt:cout.obj
 0002:00000300       ?init_cout$initializer$@std@@3P6AXXZEA 0000000180048300     libcpmt:cout.obj
 0002:00000308       ?initlocks$initializer$@std@@3P6AXXZEA 0000000180048308     libcpmt:iosptrs.obj
 0002:00000310       ?init_atexit$initializer$@@3P6AXXZEA 0000000180048310     libcpmt:iosptrs.obj
 0002:00000318       ?_Fac_tidy_reg$initializer$@std@@3P6AXXZEA 0000000180048318     libcpmt:locale0.obj
 0002:00000320       ?classic_locale$initializer$@std@@3P6AXXZEA 0000000180048320     libcpmt:locale0.obj
 0002:00000340       ?pinit@@3P6AHXZEA          0000000180048340     libcpmt:winapisupp.obj
 0002:00000348       ?__scrt_initialize_tss_var@@3P6AHXZEA 0000000180048348     LIBCMT:thread_safe_statics.obj
 0002:00000488       $cppxdata$??_Glocale@std@@QEAAPEAXI@Z 0000000180048488     libcpmt:cout.obj
 0002:000004b0       $cppxdata$?_Init@ios_base@std@@IEAAXXZ 00000001800484b0     libcpmt:cout.obj
 0002:000004d8       $cppxdata$??_Gios_base@std@@UEAAPEAXI@Z 00000001800484d8     libcpmt:cout.obj
 0002:00000500       $cppxdata$??0?$basic_streambuf@DU?$char_traits@D@std@@@std@@IEAA@XZ 0000000180048500     libcpmt:cout.obj
 0002:00000528       $cppxdata$??1?$basic_filebuf@DU?$char_traits@D@std@@@std@@UEAA@XZ 0000000180048528     libcpmt:cout.obj
 0002:00000550       $cppxdata$?overflow@?$basic_filebuf@DU?$char_traits@D@std@@@std@@MEAAHH@Z 0000000180048550     libcpmt:cout.obj
 0002:00000578       $cppxdata$?uflow@?$basic_filebuf@DU?$char_traits@D@std@@@std@@MEAAHXZ 0000000180048578     libcpmt:cout.obj
 0002:000005a0       $cppxdata$?_Endwrite@?$basic_filebuf@DU?$char_traits@D@std@@@std@@IEAA_NXZ 00000001800485a0     libcpmt:cout.obj
 0002:000005c8       $cppxdata$??1?$basic_ios@DU?$char_traits@D@std@@@std@@UEAA@XZ 00000001800485c8     libcpmt:cout.obj
 0002:000005f0       $cppxdata$??_G?$basic_ios@DU?$char_traits@D@std@@@std@@UEAAPEAXI@Z 00000001800485f0     libcpmt:cout.obj
 0002:00000618       $cppxdata$??0?$basic_ostream@DU?$char_traits@D@std@@@std@@QEAA@PEAV?$basic_streambuf@DU?$char_traits@D@std@@@1@_N@Z 0000000180048618     libcpmt:cout.obj
 0002:00000640       $cppxdata$??_G?$basic_ostream@DU?$char_traits@D@std@@@std@@UEAAPEAXI@Z 0000000180048640     libcpmt:cout.obj
 0002:00000668       $cppxdata$??__Fcout@std@@YAXXZ 0000000180048668     libcpmt:cout.obj
 0002:00000690       $cppxdata$??$use_facet@V?$codecvt@DDU_Mbstatet@@@std@@@std@@YAAEBV?$codecvt@DDU_Mbstatet@@@0@AEBVlocale@0@@Z 0000000180048690     libcpmt:cout.obj
 0002:000006b8       $cppxdata$?_Getcat@?$codecvt@DDU_Mbstatet@@@std@@SA_KPEAPEBVfacet@locale@2@PEBV42@@Z 00000001800486b8     libcpmt:cout.obj
 0002:000009b8       $cppxdata$??_G_Fac_node@std@@QEAAPEAXI@Z 00000001800489b8     libcpmt:locale0.obj
 0002:000009e0       $cppxdata$?_Locimp_dtor@_Locimp@locale@std@@CAXPEAV123@@Z 00000001800489e0     libcpmt:locale0.obj
 0002:00000a08       $cppxdata$??_G_Locimp@locale@std@@MEAAPEAXI@Z 0000000180048a08     libcpmt:locale0.obj
 0002:00000a30       $cppxdata$?_Init@locale@std@@CAPEAV_Locimp@12@_N@Z 0000000180048a30     libcpmt:locale0.obj
 0002:00000a58       $cppxdata$??__Fclassic_locale@std@@YAXXZ 0000000180048a58     libcpmt:locale0.obj
 0002:00000ab0       ?_Win_errtab@std@@3QBU_Win_errtab_t@1@B 0000000180048ab0     libcpmt:syserror.obj
 0002:00000d00       ?_Sys_errtab@std@@3QBU_Sys_errtab_t@1@B 0000000180048d00     libcpmt:syserror.obj
 0002:000018a8       $cppxdata$??__Finit_atexit@@YAXXZ 00000001800498a8     libcpmt:iosptrs.obj
 0002:00001cd0       digits                     0000000180049cd0     libcpmt:xstoul.obj
 0002:00001cf8       ndigs                      0000000180049cf8     libcpmt:xstoul.obj
 0002:00001d20       digits                     0000000180049d20     libcpmt:xstoull.obj
 0002:00001d48       ndigs                      0000000180049d48     libcpmt:xstoull.obj
 0002:000023a0       ?LcidToLocaleNameTable@@3QBULcidToLocaleName@@B 000000018004a3a0     libcpmt:winapinls.obj
 0002:000031e0       ?LocaleNameToIndexTable@@3QBULocaleNameIndex@@B 000000018004b1e0     libcpmt:winapinls.obj
 0002:000050c8       GS_ExceptionPointers       000000018004d0c8     LIBCMT:gs_report.obj
 0002:00005140       ?ExceptionTemplate@?1??_CxxThrowException@@9@4UEHExceptionRecord@@B 000000018004d140     libvcruntime:throw.obj
 0002:00005180       ?ExceptionTemplate@?1??_UnwindNestedFrames@@9@4U_EXCEPTION_RECORD@@B 000000018004d180     libvcruntime:trnsctrl.obj
 0002:00005218       ?module_names@?A0x679b24ab@@3QBQEB_WB 000000018004d218     libvcruntime:winapi_downlevel.obj
 0002:000052e8       ?candidate_modules@?1??try_get_FlsAlloc@@YAP6AKP6AXPEAX@Z@ZXZ@4QBW4module_id@?A0x679b24ab@@B 000000018004d2e8     libvcruntime:winapi_downlevel.obj
 0002:000052f0       ?candidate_modules@?1??try_get_FlsFree@@YAP6AHK@ZXZ@4QBW4module_id@?A0x679b24ab@@B 000000018004d2f0     libvcruntime:winapi_downlevel.obj
 0002:000052f8       ?candidate_modules@?1??try_get_FlsGetValue@@YAP6APEAXK@ZXZ@4QBW4module_id@?A0x679b24ab@@B 000000018004d2f8     libvcruntime:winapi_downlevel.obj
 0002:00005300       ?candidate_modules@?1??try_get_FlsSetValue@@YAP6AHKPEAX@ZXZ@4QBW4module_id@?A0x679b24ab@@B 000000018004d300     libvcruntime:winapi_downlevel.obj
 0002:00005308       ?candidate_modules@?1??try_get_InitializeCriticalSectionEx@@YAP6AHPEAU_RTL_CRITICAL_SECTION@@KK@ZXZ@4QBW4module_id@?A0x679b24ab@@B 000000018004d308     libvcruntime:winapi_downlevel.obj
 0002:00005310       ?tokenTable@@3QBQEBDB      000000018004d310     libvcruntime:undname.obj
 0002:00005380       ?nameTable@@3QBQEBDB       000000018004d380     libvcruntime:undname.obj
 0002:00005608       ?rttiTable@@3QBQEBDB       000000018004d608     libvcruntime:undname.obj
 0002:00006000       errtable                   000000018004e000     libucrt:errno.obj
 0002:00007350       __flag_x_one_y_snan        000000018004f350     libucrt:pow.obj
 0002:00007354       __flag_x_zero_z_inf        000000018004f354     libucrt:pow.obj
 0002:00007358       __flag_x_nan               000000018004f358     libucrt:pow.obj
 0002:0000735c       __flag_y_nan               000000018004f35c     libucrt:pow.obj
 0002:00007360       __flag_x_nan_y_nan         000000018004f360     libucrt:pow.obj
 0002:00007364       __flag_x_neg_y_notint      000000018004f364     libucrt:pow.obj
 0002:00007368       __flag_z_zero              000000018004f368     libucrt:pow.obj
 0002:0000736c       __flag_z_denormal          000000018004f36c     libucrt:pow.obj
 0002:00007370       __flag_z_inf               000000018004f370     libucrt:pow.obj
 0002:00007380       __ay_max_bound             000000018004f380     libucrt:pow.obj
 0002:00007388       __ay_min_bound             000000018004f388     libucrt:pow.obj
 0002:00007390       __sign_mask                000000018004f390     libucrt:pow.obj
 0002:00007398       __sign_and_exp_mask        000000018004f398     libucrt:pow.obj
 0002:000073a0       __exp_mask                 000000018004f3a0     libucrt:pow.obj
 0002:000073a8       __neg_inf                  000000018004f3a8     libucrt:pow.obj
 0002:000073b0       __pos_inf                  000000018004f3b0     libucrt:pow.obj
 0002:000073b8       __pos_one                  000000018004f3b8     libucrt:pow.obj
 0002:000073c0       __pos_zero                 000000018004f3c0     libucrt:pow.obj
 0002:000073c8       __exp_mant_mask            000000018004f3c8     libucrt:pow.obj
 0002:000073d0       __mant_mask                000000018004f3d0     libucrt:pow.obj
 0002:000073d8       __ind_pattern              000000018004f3d8     libucrt:pow.obj
 0002:000073e0       __neg_qnan                 000000018004f3e0     libucrt:pow.obj
 0002:000073e8       __qnan                     000000018004f3e8     libucrt:pow.obj
 0002:000073f0       __qnan_set                 000000018004f3f0     libucrt:pow.obj
 0002:000073f8       __neg_one                  000000018004f3f8     libucrt:pow.obj
 0002:00007400       __neg_zero                 000000018004f400     libucrt:pow.obj
 0002:00007408       __exp_shift                000000018004f408     libucrt:pow.obj
 0002:00007410       __exp_bias                 000000018004f410     libucrt:pow.obj
 0002:00007418       __exp_bias_m1              000000018004f418     libucrt:pow.obj
 0002:00007420       __yexp_53                  000000018004f420     libucrt:pow.obj
 0002:00007428       __mant_full                000000018004f428     libucrt:pow.obj
 0002:00007430       __1_before_mant            000000018004f430     libucrt:pow.obj
 0002:00007438       __mask_mant_all8           000000018004f438     libucrt:pow.obj
 0002:00007440       __mask_mant9               000000018004f440     libucrt:pow.obj
 0002:00007450       __real_fffffffff8000000    000000018004f450     libucrt:pow.obj
 0002:00007460       __mask_8000000000000000    000000018004f460     libucrt:pow.obj
 0002:00007470       __real_4090040000000000    000000018004f470     libucrt:pow.obj
 0002:00007480       __real_C090C80000000000    000000018004f480     libucrt:pow.obj
 0002:00007490       __real_ninf                000000018004f490     libucrt:pow.obj
 0002:000074a0       __real_inf                 000000018004f4a0     libucrt:pow.obj
 0002:000074b0       __real_nan                 000000018004f4b0     libucrt:pow.obj
 0002:000074c0       __real_mant                000000018004f4c0     libucrt:pow.obj
 0002:000074d0       __mask_1023                000000018004f4d0     libucrt:pow.obj
 0002:000074e0       __mask_001                 000000018004f4e0     libucrt:pow.obj
 0002:000074f0       __real_log2_lead           000000018004f4f0     libucrt:pow.obj
 0002:00007500       __real_log2_tail           000000018004f500     libucrt:pow.obj
 0002:00007510       __real_two                 000000018004f510     libucrt:pow.obj
 0002:00007520       __real_one                 000000018004f520     libucrt:pow.obj
 0002:00007530       __real_half                000000018004f530     libucrt:pow.obj
 0002:00007540       __mask_100                 000000018004f540     libucrt:pow.obj
 0002:00007550       __real_1_over_2            000000018004f550     libucrt:pow.obj
 0002:00007560       __real_1_over_3            000000018004f560     libucrt:pow.obj
 0002:00007570       __real_1_over_4            000000018004f570     libucrt:pow.obj
 0002:00007580       __real_1_over_5            000000018004f580     libucrt:pow.obj
 0002:00007590       __real_1_over_6            000000018004f590     libucrt:pow.obj
 0002:000075a0       __real_1_over_7            000000018004f5a0     libucrt:pow.obj
 0002:000075b0       __mask_1023_f              000000018004f5b0     libucrt:pow.obj
 0002:000075c0       __mask_2045                000000018004f5c0     libucrt:pow.obj
 0002:000075d0       __real_threshold           000000018004f5d0     libucrt:pow.obj
 0002:000075e0       __real_notsign             000000018004f5e0     libucrt:pow.obj
 0002:000075f0       __log_F_inv_head           000000018004f5f0     libucrt:pow.obj
 0002:00007e00       __log_F_inv_tail           000000018004fe00     libucrt:pow.obj
 0002:00008610       __denormal_threshold       0000000180050610     libucrt:pow.obj
 0002:00008620       __enable_almost_inf        0000000180050620     libucrt:pow.obj
 0002:00008630       __real_zero                0000000180050630     libucrt:pow.obj
 0002:00008640       __real_smallest_denormal   0000000180050640     libucrt:pow.obj
 0002:00008650       __denormal_tiny_threshold  0000000180050650     libucrt:pow.obj
 0002:00008660       __real_p65536              0000000180050660     libucrt:pow.obj
 0002:00008670       __real_m68800              0000000180050670     libucrt:pow.obj
 0002:00008680       __real_64_by_log2          0000000180050680     libucrt:pow.obj
 0002:00008690       __real_log2_by_64_head     0000000180050690     libucrt:pow.obj
 0002:000086a0       __real_log2_by_64_tail     00000001800506a0     libucrt:pow.obj
 0002:000086b0       __real_1_by_720            00000001800506b0     libucrt:pow.obj
 0002:000086c0       __real_1_by_120            00000001800506c0     libucrt:pow.obj
 0002:000086d0       __real_1_by_24             00000001800506d0     libucrt:pow.obj
 0002:000086e0       __real_1_by_6              00000001800506e0     libucrt:pow.obj
 0002:000086f0       __real_1_by_2              00000001800506f0     libucrt:pow.obj
 0002:00008700       __flag_x_one_y_snan        0000000180050700     libucrt:powf.obj
 0002:00008704       __flag_x_zero_z_inf        0000000180050704     libucrt:powf.obj
 0002:00008708       __flag_x_nan               0000000180050708     libucrt:powf.obj
 0002:0000870c       __flag_y_nan               000000018005070c     libucrt:powf.obj
 0002:00008710       __flag_x_nan_y_nan         0000000180050710     libucrt:powf.obj
 0002:00008714       __flag_x_neg_y_notint      0000000180050714     libucrt:powf.obj
 0002:00008718       __flag_z_zero              0000000180050718     libucrt:powf.obj
 0002:0000871c       __flag_z_denormal          000000018005071c     libucrt:powf.obj
 0002:00008720       __flag_z_inf               0000000180050720     libucrt:powf.obj
 0002:00008724       L__1_by_3                  0000000180050724     libucrt:powf.obj
 0002:0000872c       L__log2                    000000018005072c     libucrt:powf.obj
 0002:00008734       L__max_exp_arg             0000000180050734     libucrt:powf.obj
 0002:0000873c       L__min_exp_arg             000000018005073c     libucrt:powf.obj
 0002:00008744       L__real_log2_by_64         0000000180050744     libucrt:powf.obj
 0002:0000874c       L__1_by_6                  000000018005074c     libucrt:powf.obj
 0002:00008754       L__real_threshold          0000000180050754     libucrt:powf.obj
 0002:0000875c       L__real_one                000000018005075c     libucrt:powf.obj
 0002:00008764       L__real_two                0000000180050764     libucrt:powf.obj
 0002:0000876c       L__neg_zero                000000018005076c     libucrt:powf.obj
 0002:00008780       L__real_ca42               0000000180050780     libucrt:powf.obj
 0002:00008788       L__real_ca4                0000000180050788     libucrt:powf.obj
 0002:00008790       L__real_ca31               0000000180050790     libucrt:powf.obj
 0002:00008798       L__real_ca3                0000000180050798     libucrt:powf.obj
 0002:000087a0       L__clear_sign              00000001800507a0     libucrt:powf.obj
 0002:000087b0       L__real_64_by_log2         00000001800507b0     libucrt:powf.obj
 0002:000087c0       L__1_by_2                  00000001800507c0     libucrt:powf.obj
 0002:000087d0       L__1023                    00000001800507d0     libucrt:powf.obj
 0002:000087e0       L__xexp_bits_xmantissa_bits 00000001800507e0     libucrt:powf.obj
 0002:000090e0       __acrt_initializers        00000001800510e0     libucrt:initialization.obj
 0002:000091d0       module_names               00000001800511d0     libucrt:winapi_thunks.obj
 0002:00009700       ?candidate_modules@?1??try_get_AreFileApisANSI@@YAP6AHXZXZ@4QBW4module_id@?A0x63058377@@B 0000000180051700     libucrt:winapi_thunks.obj
 0002:00009718       ?candidate_modules@?1??try_get_CompareStringEx@@YAP6AHPEB_WK0H0HPEAU_nlsversioninfo@@PEAX_J@ZXZ@4QBW4module_id@?A0x63058377@@B 0000000180051718     libucrt:winapi_thunks.obj
 0002:00009720       ?candidate_modules@?1??try_get_EnumSystemLocalesEx@@YAP6AHP6AHPEA_WK_J@ZK1PEAX@ZXZ@4QBW4module_id@?A0x63058377@@B 0000000180051720     libucrt:winapi_thunks.obj
 0002:00009740       ?candidate_modules@?1??try_get_FlsAlloc@@YAP6AKP6AXPEAX@Z@ZXZ@4QBW4module_id@?A0x63058377@@B 0000000180051740     libucrt:winapi_thunks.obj
 0002:00009748       ?candidate_modules@?1??try_get_FlsFree@@YAP6AHK@ZXZ@4QBW4module_id@?A0x63058377@@B 0000000180051748     libucrt:winapi_thunks.obj
 0002:00009750       ?candidate_modules@?1??try_get_FlsGetValue@@YAP6APEAXK@ZXZ@4QBW4module_id@?A0x63058377@@B 0000000180051750     libucrt:winapi_thunks.obj
 0002:00009758       ?candidate_modules@?1??try_get_FlsSetValue@@YAP6AHKPEAX@ZXZ@4QBW4module_id@?A0x63058377@@B 0000000180051758     libucrt:winapi_thunks.obj
 0002:00009760       ?candidate_modules@?1??try_get_GetActiveWindow@@YAP6APEAUHWND__@@XZXZ@4QBW4module_id@?A0x63058377@@B 0000000180051760     libucrt:winapi_thunks.obj
 0002:00009778       ?candidate_modules@?1??try_get_GetCurrentPackageId@@YAP6AJPEAIPEAE@ZXZ@4QBW4module_id@?A0x63058377@@B 0000000180051778     libucrt:winapi_thunks.obj
 0002:00009780       ?candidate_modules@?1??try_get_GetLastActivePopup@@YAP6APEAUHWND__@@PEAU2@@ZXZ@4QBW4module_id@?A0x63058377@@B 0000000180051780     libucrt:winapi_thunks.obj
 0002:000097a0       ?candidate_modules@?1??try_get_GetLocaleInfoEx@@YAP6AHPEB_WKPEA_WH@ZXZ@4QBW4module_id@?A0x63058377@@B 00000001800517a0     libucrt:winapi_thunks.obj
 0002:000097a8       ?candidate_modules@?1??try_get_GetProcessWindowStation@@YAP6APEAUHWINSTA__@@XZXZ@4QBW4module_id@?A0x63058377@@B 00000001800517a8     libucrt:winapi_thunks.obj
 0002:000097c8       ?candidate_modules@?1??try_get_GetUserDefaultLocaleName@@YAP6AHPEA_WH@ZXZ@4QBW4module_id@?A0x63058377@@B 00000001800517c8     libucrt:winapi_thunks.obj
 0002:000097f0       ?candidate_modules@?1??try_get_GetUserObjectInformationW@@YAP6AHPEAXH0KPEAK@ZXZ@4QBW4module_id@?A0x63058377@@B 00000001800517f0     libucrt:winapi_thunks.obj
 0002:00009818       ?candidate_modules@?1??try_get_InitializeCriticalSectionEx@@YAP6AHPEAU_RTL_CRITICAL_SECTION@@KK@ZXZ@4QBW4module_id@?A0x63058377@@B 0000000180051818     libucrt:winapi_thunks.obj
 0002:00009820       ?candidate_modules@?1??try_get_IsValidLocaleName@@YAP6AHPEB_W@ZXZ@4QBW4module_id@?A0x63058377@@B 0000000180051820     libucrt:winapi_thunks.obj
 0002:00009840       ?candidate_modules@?1??try_get_LCMapStringEx@@YAP6AHPEB_WK0HPEA_WHPEAU_nlsversioninfo@@PEAX_J@ZXZ@4QBW4module_id@?A0x63058377@@B 0000000180051840     libucrt:winapi_thunks.obj
 0002:00009848       ?candidate_modules@?1??try_get_LCIDToLocaleName@@YAP6AHKPEA_WHK@ZXZ@4QBW4module_id@?A0x63058377@@B 0000000180051848     libucrt:winapi_thunks.obj
 0002:00009868       ?candidate_modules@?1??try_get_LocaleNameToLCID@@YAP6AKPEB_WK@ZXZ@4QBW4module_id@?A0x63058377@@B 0000000180051868     libucrt:winapi_thunks.obj
 0002:00009888       ?candidate_modules@?1??try_get_MessageBoxA@@YAP6AHPEAUHWND__@@PEBD1I@ZXZ@4QBW4module_id@?A0x63058377@@B 0000000180051888     libucrt:winapi_thunks.obj
 0002:000098a0       ?candidate_modules@?1??try_get_MessageBoxW@@YAP6AHPEAUHWND__@@PEB_W1I@ZXZ@4QBW4module_id@?A0x63058377@@B 00000001800518a0     libucrt:winapi_thunks.obj
 0002:00009a20       _first_127char             0000000180051a20     libucrt:wsetlocale.obj
 0002:0000bfb0       _mb_locale_names           0000000180053fb0     libucrt:mbctype.obj
 0002:0000bfd0       LcidToLocaleNameTable      0000000180053fd0     libucrt:lcidtoname_downlevel.obj
 0002:0000ce10       LocaleNameToIndexTable     0000000180054e10     libucrt:lcidtoname_downlevel.obj
 0002:0000ec50       __real@433fffffffffffff    0000000180056c50     libucrt:fpsr.obj
 0002:0000ec58       __real@c33fffffffffffff    0000000180056c58     libucrt:fpsr.obj
 0002:0000ec60       __real_ninf                0000000180056c60     libucrt:log10.obj
 0002:0000ec70       __real_inf                 0000000180056c70     libucrt:log10.obj
 0002:0000ec80       __real_neg_qnan            0000000180056c80     libucrt:log10.obj
 0002:0000ec90       __real_qnanbit             0000000180056c90     libucrt:log10.obj
 0002:0000eca0       __int_1023                 0000000180056ca0     libucrt:log10.obj
 0002:0000ecb0       __mask_001                 0000000180056cb0     libucrt:log10.obj
 0002:0000ecc0       __mask_mant                0000000180056cc0     libucrt:log10.obj
 0002:0000ecd0       __mask_mant_top8           0000000180056cd0     libucrt:log10.obj
 0002:0000ece0       __mask_mant9               0000000180056ce0     libucrt:log10.obj
 0002:0000ecf0       __real_log10_e             0000000180056cf0     libucrt:log10.obj
 0002:0000ed00       __real_log10_e_lead        0000000180056d00     libucrt:log10.obj
 0002:0000ed10       __real_log10_e_tail        0000000180056d10     libucrt:log10.obj
 0002:0000ed20       __real_log10_2_lead        0000000180056d20     libucrt:log10.obj
 0002:0000ed30       __real_log10_2_tail        0000000180056d30     libucrt:log10.obj
 0002:0000ed40       __real_two                 0000000180056d40     libucrt:log10.obj
 0002:0000ed50       __real_one                 0000000180056d50     libucrt:log10.obj
 0002:0000ed60       __real_half                0000000180056d60     libucrt:log10.obj
 0002:0000ed70       __mask_100                 0000000180056d70     libucrt:log10.obj
 0002:0000ed80       __real_1_over_512          0000000180056d80     libucrt:log10.obj
 0002:0000ed90       __real_1_over_2            0000000180056d90     libucrt:log10.obj
 0002:0000eda0       __real_1_over_3            0000000180056da0     libucrt:log10.obj
 0002:0000edb0       __real_1_over_4            0000000180056db0     libucrt:log10.obj
 0002:0000edc0       __real_1_over_5            0000000180056dc0     libucrt:log10.obj
 0002:0000edd0       __real_1_over_6            0000000180056dd0     libucrt:log10.obj
 0002:0000ede0       __real_neg_1023            0000000180056de0     libucrt:log10.obj
 0002:0000edf0       __mask_2045                0000000180056df0     libucrt:log10.obj
 0002:0000ee00       __real_threshold           0000000180056e00     libucrt:log10.obj
 0002:0000ee10       __real_near_one_lt         0000000180056e10     libucrt:log10.obj
 0002:0000ee20       __real_near_one_gt         0000000180056e20     libucrt:log10.obj
 0002:0000ee30       __real_min_norm            0000000180056e30     libucrt:log10.obj
 0002:0000ee40       __real_notsign             0000000180056e40     libucrt:log10.obj
 0002:0000ee50       __real_ca1                 0000000180056e50     libucrt:log10.obj
 0002:0000ee60       __real_ca2                 0000000180056e60     libucrt:log10.obj
 0002:0000ee70       __real_ca3                 0000000180056e70     libucrt:log10.obj
 0002:0000ee80       __real_ca4                 0000000180056e80     libucrt:log10.obj
 0002:0000ee90       __mask_lower               0000000180056e90     libucrt:log10.obj
 0002:0000eea0       __flag_x_zero              0000000180056ea0     libucrt:log10.obj
 0002:0000eea4       __flag_x_neg               0000000180056ea4     libucrt:log10.obj
 0002:0000eea8       __flag_x_nan               0000000180056ea8     libucrt:log10.obj
 0002:00010ab0       ?table@?1??ZopfliGetLengthSymbol@@9@9 0000000180058ab0     deflate.obj
 0002:00010ebc       ?sums_overflow@?1??adler32@@9@9 0000000180058ebc     zlib_container.obj
 0002:00010ec0       ?table@?1??ZopfliGetLengthExtraBitsValue@@9@9 0000000180058ec0     deflate.obj
 0002:000112d0       ?order@?1??EncodeTree@@9@9 00000001800592d0     deflate.obj
 0002:00011320       ?table@?1??ZopfliGetLengthSymbolExtraBits@@9@9 0000000180059320     deflate.obj
 0002:00011398       ?kInvLog2@?1??ZopfliCalculateEntropy@@9@9 0000000180059398     tree.obj
 0002:000113a0       ?table@?1??ZopfliGetLengthExtraBits@@9@9 00000001800593a0     deflate.obj
 0002:000117b0       ?table@?1??ZopfliGetDistSymbolExtraBits@@9@9 00000001800597b0     deflate.obj
 0002:00011830       crc32_table                0000000180059830     gzip_container.obj
 0002:00011c30       ?table@?1??ZopfliGetLengthSymbol@@9@9 0000000180059c30     lz77.obj
 0002:00012040       ?dsymbols@?1??GetCostModelMinCost@@9@9 000000018005a040     squeeze.obj
 0002:000120c0       ?table@?1??ZopfliGetLengthSymbol@@9@9 000000018005a0c0     squeeze.obj
 0002:000124d0       ?table@?1??ZopfliGetLengthExtraBits@@9@9 000000018005a4d0     squeeze.obj
 0002:000128e0       ?ADAM7_DX@@3QBIB           000000018005a8e0     lodepng.obj
 0002:00012900       ?lodepng_crc32_table@@3PAIA 000000018005a900     lodepng.obj
 0002:00012d00       ?ADAM7_DY@@3QBIB           000000018005ad00     lodepng.obj
 0002:00012d20       ?ADAM7_IY@@3QBIB           000000018005ad20     lodepng.obj
 0002:00012d40       ?DISTANCEBASE@@3QBIB       000000018005ad40     lodepng.obj
 0002:00012dc0       ?LENGTHEXTRA@@3QBIB        000000018005adc0     lodepng.obj
 0002:00012e40       ?CLCL_ORDER@@3QBIB         000000018005ae40     lodepng.obj
 0002:00012eb0       ?DISTANCEEXTRA@@3QBIB      000000018005aeb0     lodepng.obj
 0002:00012f30       ?ADAM7_IX@@3QBIB           000000018005af30     lodepng.obj
 0002:00012f50       ?LENGTHBASE@@3QBIB         000000018005af50     lodepng.obj
 0002:00012fd0       ?LENEXTRA@lodepng@@3QBKB   000000018005afd0     lodepng_util.obj
 0002:00013050       ?DISTBASE@lodepng@@3QBKB   000000018005b050     lodepng_util.obj
 0002:000130d0       ?DISTEXTRA@lodepng@@3QBKB  000000018005b0d0     lodepng_util.obj
 0002:00013150       ?LENBASE@lodepng@@3QBKB    000000018005b150     lodepng_util.obj
 0002:000131d0       ?CLCL@lodepng@@3QBKB       000000018005b1d0     lodepng_util.obj
 0002:00014b90       ?ADAM7_IY@?BL@??getFilterTypesInterlaced@lodepng@@YAIAEAV?$vector@V?$vector@EV?$allocator@E@std@@@std@@V?$allocator@V?$vector@EV?$allocator@E@std@@@std@@@2@@std@@AEBV?$vector@EV?$allocator@E@std@@@4@@Z@4QBIB 000000018005cb90     lodepng_util.obj
 0002:00014bd0       ?ADAM7_IX@?BL@??getFilterTypesInterlaced@lodepng@@YAIAEAV?$vector@V?$vector@EV?$allocator@E@std@@@std@@V?$allocator@V?$vector@EV?$allocator@E@std@@@std@@@2@@std@@AEBV?$vector@EV?$allocator@E@std@@@4@@Z@4QBIB 000000018005cbd0     lodepng_util.obj
 0002:00014bf0       ?ADAM7_DX@?BL@??getFilterTypesInterlaced@lodepng@@YAIAEAV?$vector@V?$vector@EV?$allocator@E@std@@@std@@V?$allocator@V?$vector@EV?$allocator@E@std@@@std@@@2@@std@@AEBV?$vector@EV?$allocator@E@std@@@4@@Z@4QBIB 000000018005cbf0     lodepng_util.obj
 0002:00014c10       ?ADAM7_DY@?BL@??getFilterTypesInterlaced@lodepng@@YAIAEAV?$vector@V?$vector@EV?$allocator@E@std@@@std@@V?$allocator@V?$vector@EV?$allocator@E@std@@@std@@@2@@std@@AEBV?$vector@EV?$allocator@E@std@@@4@@Z@4QBIB 000000018005cc10     lodepng_util.obj
 0002:00014c50       $cppxdata$??$SetMethod@VObject@v8@@VLocal@2@@Nan@@YAXV?$Local@VObject@v8@@@v8@@PEBDP6AXAEBV?$FunctionCallbackInfo@VValue@v8@@@0@@Z@Z 000000018005cc50     zopfli-binding.obj
 0002:00014c78       $cppxdata$?Async@CompressBinding@nodezopfli@@SAXAEBV?$FunctionCallbackInfo@VValue@v8@@@Nan@@@Z 000000018005cc78     zopfli-binding.obj
 0002:00014ca0       $cppxdata$??0CompressWorker@nodezopfli@@QEAA@PEAVCallback@Nan@@AEAW4ZopfliFormat@@AEAUZopfliOptions@@V?$Local@VObject@v8@@@v8@@@Z 000000018005cca0     zopfli-binding.obj
 0002:00014cc8       $cppxdata$?ParseArgs@nodezopfli@@YAXAEBV?$FunctionCallbackInfo@VValue@v8@@@Nan@@AEAW4ZopfliFormat@@AEAUZopfliOptions@@@Z 000000018005ccc8     zopfli-binding.obj
 0002:00014cf0       $cppxdata$??1?$Persistent@VObject@v8@@V?$NonCopyablePersistentTraits@VObject@v8@@@2@@Nan@@QEAA@XZ 000000018005ccf0     zopfli-binding.obj
 0002:00014d18       $cppxdata$?HandleErrorCallback@AsyncWorker@Nan@@MEAAXXZ 000000018005cd18     zopfli-binding.obj
 0002:00014d40       $cppxdata$?HandleOKCallback@AsyncWorker@Nan@@MEAAXXZ 000000018005cd40     zopfli-binding.obj
 0002:00014d68       $cppxdata$?WorkComplete@AsyncWorker@Nan@@UEAAXXZ 000000018005cd68     zopfli-binding.obj
 0002:00014d90       $cppxdata$??1AsyncWorker@Nan@@UEAA@XZ 000000018005cd90     zopfli-binding.obj
 0002:00014db8       $cppxdata$??0AsyncWorker@Nan@@QEAA@PEAVCallback@1@PEBD@Z 000000018005cdb8     zopfli-binding.obj
 0002:00014de0       $cppxdata$?Call_@Callback@Nan@@AEBA?AV?$Local@VValue@v8@@@v8@@PEAVIsolate@4@V?$Local@VObject@v8@@@4@HQEAV34@@Z 000000018005cde0     zopfli-binding.obj
 0002:00014e08       $cppxdata$?Call@Callback@Nan@@QEBA?AV?$MaybeLocal@VValue@v8@@@v8@@HQEAV?$Local@VValue@v8@@@4@PEAVAsyncResource@2@@Z 000000018005ce08     zopfli-binding.obj
 0002:00014e30       $cppxdata$?Call@Callback@Nan@@QEBA?AV?$Local@VValue@v8@@@v8@@HQEAV34@@Z 000000018005ce30     zopfli-binding.obj
 0002:00014e58       $cppxdata$??0Utf8String@Nan@@QEAA@V?$Local@VValue@v8@@@v8@@@Z 000000018005ce58     zopfli-binding.obj
 0002:00014e80       $cppxdata$?ThrowTypeError@Nan@@YAXPEBD@Z 000000018005ce80     zopfli-binding.obj
 0002:00014ea8       $cppxdata$?New@?$Factory@VFunctionTemplate@v8@@@imp@Nan@@SA?AV?$Local@VFunctionTemplate@v8@@@v8@@P6AXAEBV?$FunctionCallbackInfo@VValue@v8@@@3@@ZV?$Local@VValue@v8@@@5@V?$Local@VSignature@v8@@@5@@Z 000000018005cea8     zopfli-binding.obj
 0002:00014ed0       $cppxdata$?convert@?$ToFactory@VUint32@v8@@@imp@Nan@@SA?AV?$MaybeLocal@VUint32@v8@@@v8@@V?$Local@VValue@v8@@@5@@Z 000000018005ced0     zopfli-binding.obj
 0002:00014ef8       $cppxdata$?Has@Nan@@YA?AV?$Maybe@_N@v8@@V?$Local@VObject@v8@@@3@V?$Local@VString@v8@@@3@@Z 000000018005cef8     zopfli-binding.obj
 0002:00014f20       $cppxdata$?Get@Nan@@YA?AV?$MaybeLocal@VValue@v8@@@v8@@V?$Local@VObject@v8@@@3@V?$Local@VValue@v8@@@3@@Z 000000018005cf20     zopfli-binding.obj
 0002:00014f48       $cppxdata$?GetFunction@Nan@@YA?AV?$MaybeLocal@VFunction@v8@@@v8@@V?$Local@VFunctionTemplate@v8@@@3@@Z 000000018005cf48     zopfli-binding.obj
 0002:00014f70       $cppxdata$?NewInstance@Nan@@YA?AV?$MaybeLocal@VObject@v8@@@v8@@V?$Local@VObjectTemplate@v8@@@3@@Z 000000018005cf70     zopfli-binding.obj
 0002:00015070       $cppxdata$?parseOptions@@YAXAEBV?$Local@VObject@v8@@@v8@@AEAUZopfliPNGOptions@@@Z 000000018005d070     zopflipng.obj
 0002:00015098       $cppxdata$?convert@?$ToFactory@VInteger@v8@@@imp@Nan@@SA?AV?$MaybeLocal@VInteger@v8@@@v8@@V?$Local@VValue@v8@@@5@@Z 000000018005d098     zopflipng.obj
 0002:000150c0       $cppxdata$?PNGDeflate@@YAXAEBV?$FunctionCallbackInfo@VValue@v8@@@Nan@@@Z 000000018005d0c0     zopflipng.obj
 0002:000150e8       $cppxdata$??$_Insert_at@AEBV?$basic_string@DU?$char_traits@D@std@@V?$allocator@D@2@@std@@U_Nil@2@@?$_Tree@V?$_Tset_traits@V?$basic_string@DU?$char_traits@D@std@@V?$allocator@D@2@@std@@U?$less@V?$basic_string@DU?$char_traits@D@std@@V?$allocator@D@2@@std@@@2@V?$allocator@V?$basic_string@DU?$char_traits@D@std@@V?$allocator@D@2@@std@@@2@$0A@@std@@@std@@IEAA?AV?$_Tree_const_iterator@V?$_Tree_val@U?$_Tree_simple_types@V?$basic_string@DU?$char_traits@D@std@@V?$allocator@D@2@@std@@@std@@@std@@@1@_NPEAU?$_Tree_node@V?$basic_string@DU?$char_traits@D@std@@V?$allocator@D@2@@std@@PEAX@1@AEBV?$basic_string@DU?$char_traits@D@std@@V?$allocator@D@2@@1@U_Nil@1@@Z 000000018005d0e8     zopflipng_lib.obj
 0002:00015110       $cppxdata$?KeepChunks@@YAXAEBV?$vector@EV?$allocator@E@std@@@std@@AEBV?$vector@V?$basic_string@DU?$char_traits@D@std@@V?$allocator@D@2@@std@@V?$allocator@V?$basic_string@DU?$char_traits@D@std@@V?$allocator@D@2@@std@@@2@@2@PEAV12@@Z 000000018005d110     zopflipng_lib.obj
 0002:00015138       $cppxdata$?ChunksToKeep@@YAXAEBV?$vector@EV?$allocator@E@std@@@std@@AEBV?$vector@V?$basic_string@DU?$char_traits@D@std@@V?$allocator@D@2@@std@@V?$allocator@V?$basic_string@DU?$char_traits@D@std@@V?$allocator@D@2@@std@@@2@@2@PEAV?$set@V?$basic_string@DU?$char_traits@D@std@@V?$allocator@D@2@@std@@U?$less@V?$basic_string@DU?$char_traits@D@std@@V?$allocator@D@2@@std@@@2@V?$allocator@V?$basic_string@DU?$char_traits@D@std@@V?$allocator@D@2@@std@@@2@@2@@Z 000000018005d138     zopflipng_lib.obj
 0002:00015160       $cppxdata$?AutoChooseFilterStrategy@@YAIAEBV?$vector@EV?$allocator@E@std@@@std@@IIAEBVState@lodepng@@_N20HPEAW4ZopfliPNGFilterStrategy@@PEA_N@Z 000000018005d160     zopflipng_lib.obj
 0002:00015188       $cppxdata$?TryOptimize@@YAIAEBV?$vector@EV?$allocator@E@std@@@std@@IIAEBVState@lodepng@@_N20W4ZopfliPNGFilterStrategy@@2HPEBUZopfliPNGOptions@@PEAV12@@Z 000000018005d188     zopflipng_lib.obj
 0002:000151b0       $cppxdata$?LossyOptimizeTransparent@@YAXPEAVState@lodepng@@PEAEII@Z 000000018005d1b0     zopflipng_lib.obj
 0002:000151d8       $cppxdata$?ZopfliPNGOptimize@@YAHAEBV?$vector@EV?$allocator@E@std@@@std@@AEBUZopfliPNGOptions@@_NPEAV12@@Z 000000018005d1d8     zopflipng_lib.obj
 0002:00015200       $cppxdata$?decode@lodepng@@YAIAEAV?$vector@EV?$allocator@E@std@@@std@@AEAI1PEBE_KW4LodePNGColorType@@I@Z 000000018005d200     lodepng.obj
 0002:00015228       $cppxdata$?lodepng_decode_memory@@YAIPEAPEAEPEAI1PEBE_KW4LodePNGColorType@@I@Z 000000018005d228     lodepng.obj
 0002:00015250       $cppxdata$?widen@?$basic_ios@DU?$char_traits@D@std@@@std@@QEBADD@Z 000000018005d250     lodepng_util.obj
 0002:00015278       $cppxdata$??$use_facet@V?$ctype@D@std@@@std@@YAAEBV?$ctype@D@0@AEBVlocale@0@@Z 000000018005d278     lodepng_util.obj
 0002:000152a0       $cppxdata$?push_back@?$vector@V?$basic_string@DU?$char_traits@D@std@@V?$allocator@D@2@@std@@V?$allocator@V?$basic_string@DU?$char_traits@D@std@@V?$allocator@D@2@@std@@@2@@std@@QEAAXAEBV?$basic_string@DU?$char_traits@D@std@@V?$allocator@D@2@@2@@Z 000000018005d2a0     lodepng_util.obj
 0002:000152c8       $cppxdata$?getFilterTypesInterlaced@lodepng@@YAIAEAV?$vector@V?$vector@EV?$allocator@E@std@@@std@@V?$allocator@V?$vector@EV?$allocator@E@std@@@std@@@2@@std@@AEBV?$vector@EV?$allocator@E@std@@@3@@Z 000000018005d2c8     lodepng_util.obj
 0002:000152f0       $cppxdata$?clear@ios_base@std@@QEAAXH_N@Z 000000018005d2f0     lodepng_util.obj
 0002:00015318       $cppxdata$?_Makestr@_System_error@std@@CA?AV?$basic_string@DU?$char_traits@D@std@@V?$allocator@D@2@@2@Verror_code@2@V32@@Z 000000018005d318     lodepng_util.obj
 0002:00015340       $cppxdata$?_Getcat@?$ctype@D@std@@SA_KPEAPEBVfacet@locale@2@PEBV42@@Z 000000018005d340     lodepng_util.obj
 0002:00015368       $cppxdata$??0_Locinfo@std@@QEAA@PEBD@Z 000000018005d368     lodepng_util.obj
 0002:00015390       $cppxdata$?insertChunks@lodepng@@YAIAEAV?$vector@EV?$allocator@E@std@@@std@@QEBV?$vector@V?$vector@EV?$allocator@E@std@@@std@@V?$allocator@V?$vector@EV?$allocator@E@std@@@std@@@2@@3@@Z 000000018005d390     lodepng_util.obj
 0002:000153b8       $cppxdata$?getFilterTypes@lodepng@@YAIAEAV?$vector@EV?$allocator@E@std@@@std@@AEBV23@@Z 000000018005d3b8     lodepng_util.obj
 0002:000153e0       $cppxdata$?getChunks@lodepng@@YAIQEAV?$vector@V?$basic_string@DU?$char_traits@D@std@@V?$allocator@D@2@@std@@V?$allocator@V?$basic_string@DU?$char_traits@D@std@@V?$allocator@D@2@@std@@@2@@std@@QEAV?$vector@V?$vector@EV?$allocator@E@std@@@std@@V?$allocator@V?$vector@EV?$allocator@E@std@@@std@@@2@@3@AEBV?$vector@EV?$allocator@E@std@@@3@@Z 000000018005d3e0     lodepng_util.obj
 0002:00015410       __real_ninf                000000018005d410     libucrt:log.obj
 0002:00015420       __real_inf                 000000018005d420     libucrt:log.obj
 0002:00015430       __real_neg_qnan            000000018005d430     libucrt:log.obj
 0002:00015440       __real_qnanbit             000000018005d440     libucrt:log.obj
 0002:00015450       __real_min_norm            000000018005d450     libucrt:log.obj
 0002:00015460       __real_mant                000000018005d460     libucrt:log.obj
 0002:00015470       __mask_1023                000000018005d470     libucrt:log.obj
 0002:00015480       __mask_001                 000000018005d480     libucrt:log.obj
 0002:00015490       __mask_mant_all8           000000018005d490     libucrt:log.obj
 0002:000154a0       __mask_mant9               000000018005d4a0     libucrt:log.obj
 0002:000154b0       __real_two                 000000018005d4b0     libucrt:log.obj
 0002:000154c0       __real_one                 000000018005d4c0     libucrt:log.obj
 0002:000154d0       __real_near_one_lt         000000018005d4d0     libucrt:log.obj
 0002:000154e0       __real_near_one_gt         000000018005d4e0     libucrt:log.obj
 0002:000154f0       __real_half                000000018005d4f0     libucrt:log.obj
 0002:00015500       __mask_100                 000000018005d500     libucrt:log.obj
 0002:00015510       __real_1_over_512          000000018005d510     libucrt:log.obj
 0002:00015520       __real_1_over_2            000000018005d520     libucrt:log.obj
 0002:00015530       __real_1_over_3            000000018005d530     libucrt:log.obj
 0002:00015540       __real_1_over_4            000000018005d540     libucrt:log.obj
 0002:00015550       __real_1_over_5            000000018005d550     libucrt:log.obj
 0002:00015560       __real_1_over_6            000000018005d560     libucrt:log.obj
 0002:00015570       __mask_1023_f              000000018005d570     libucrt:log.obj
 0002:00015580       __mask_2045                000000018005d580     libucrt:log.obj
 0002:00015590       __real_threshold           000000018005d590     libucrt:log.obj
 0002:000155a0       __real_notsign             000000018005d5a0     libucrt:log.obj
 0002:000155b0       __real_ca1                 000000018005d5b0     libucrt:log.obj
 0002:000155c0       __real_ca2                 000000018005d5c0     libucrt:log.obj
 0002:000155d0       __real_ca3                 000000018005d5d0     libucrt:log.obj
 0002:000155e0       __real_ca4                 000000018005d5e0     libucrt:log.obj
 0002:000155f0       __real_log2_lead           000000018005d5f0     libucrt:log.obj
 0002:00015600       __real_log2_tail           000000018005d600     libucrt:log.obj
 0002:00015610       __flag_x_zero              000000018005d610     libucrt:log.obj
 0002:00015614       __flag_x_neg               000000018005d614     libucrt:log.obj
 0002:00015618       __flag_x_nan               000000018005d618     libucrt:log.obj
 0002:00016aa0       $unwind$initialize_c       000000018005eaa0     libucrt:initialization.obj
 0002:00016aa0       $unwind$uninitialize_environment 000000018005eaa0     libucrt:initialization.obj
 0002:00016aa0       $unwind$?_Reserve@?$vector@W4ZopfliPNGFilterStrategy@@V?$allocator@W4ZopfliPNGFilterStrategy@@@std@@@std@@IEAAX_K@Z 000000018005eaa0     zopflipng.obj
 0002:00016aa0       $unwind$?initialize_multibyte@@YAHXZ 000000018005eaa0     libucrt:multibyte_initializer.obj
 0002:00016aa0       $unwind$__vcrt_freefls     000000018005eaa0     libvcruntime:per_thread_data.obj
 0002:00016aa0       $unwind$?deallocate@?$_Wrap_alloc@V?$allocator@E@std@@@std@@QEAAXPEAE_K@Z 000000018005eaa0     zopflipng.obj
 0002:00016aa0       $unwind$?deallocate@?$_Wrap_alloc@V?$allocator@V?$basic_string@DU?$char_traits@D@std@@V?$allocator@D@2@@std@@@std@@@std@@QEAAXPEAV?$basic_string@DU?$char_traits@D@std@@V?$allocator@D@2@@2@_K@Z 000000018005eaa0     zopflipng.obj
 0002:00016aa0       $unwind$?deallocate@?$_Wrap_alloc@V?$allocator@W4ZopfliPNGFilterStrategy@@@std@@@std@@QEAAXPEAW4ZopfliPNGFilterStrategy@@_K@Z 000000018005eaa0     zopflipng.obj
 0002:00016aa0       $unwind$_msize             000000018005eaa0     libucrt:msize.obj
 0002:00016aa0       $unwind$__acrt_initialize_heap 000000018005eaa0     libucrt:heap_handle.obj
 0002:00016aa0       $unwind$?_Deallocate@std@@YAXPEAX_K1@Z 000000018005eaa0     zopfli-binding.obj
 0002:00016aa0       $unwind$__std_terminate    000000018005eaa0     libvcruntime:frame.obj
 0002:00016aa0       $unwind$__scrt_dllmain_crt_thread_detach 000000018005eaa0     LIBCMT:utility.obj
 0002:00016aa0       $unwind$__scrt_dllmain_crt_thread_attach 000000018005eaa0     LIBCMT:utility.obj
 0002:00016aa0       $unwind$_get_stream_buffer_pointers 000000018005eaa0     libucrt:_file.obj
 0002:00016aa0       $unwind$??$_Immortalize@V_Iostream_error_category@std@@@std@@YAAEAV_Iostream_error_category@0@XZ 000000018005eaa0     lodepng_util.obj
 0002:00016aa0       $unwind$_get_osfhandle     000000018005eaa0     libucrt:osfinfo.obj
 0002:00016aa0       $unwind$__scrt_dllmain_uninitialize_critical 000000018005eaa0     LIBCMT:utility.obj
 0002:00016aa0       $unwind$__scrt_dllmain_uninitialize_c 000000018005eaa0     LIBCMT:utility.obj
 0002:00016aa0       $unwind$__acrt_can_use_vista_locale_apis 000000018005eaa0     libucrt:winapi_thunks.obj
 0002:00016aa0       $unwind$fsetpos            000000018005eaa0     libucrt:fsetpos.obj
 0002:00016aa0       $unwind$__scrt_dllmain_after_initialize_c 000000018005eaa0     LIBCMT:utility.obj
 0002:00016aa0       $unwind$__scrt_dllmain_before_initialize_c 000000018005eaa0     LIBCMT:utility.obj
 0002:00016aa0       $unwind$__scrt_acquire_startup_lock 000000018005eaa0     LIBCMT:utility.obj
 0002:00016aa0       $unwind$atexit             000000018005eaa0     LIBCMT:utility.obj
 0002:00016aa0       $unwind$?dllmain_crt_dispatch@@YAHQEAUHINSTANCE__@@KQEAX@Z 000000018005eaa0     LIBCMT:dll_dllmain.obj
 0002:00016aa0       $unwind$__pctype_func      000000018005eaa0     libucrt:ctype.obj
 0002:00016aa0       $unwind$GetCostStat        000000018005eaa0     squeeze.obj
 0002:00016aa0       $unwind$GetCostFixed       000000018005eaa0     squeeze.obj
 0002:00016aa0       $unwind$_stricmp           000000018005eaa0     libucrt:stricmp.obj
 0002:00016aa0       $unwind$?__scrt_uninitialize_thread_safe_statics@@YAXXZ 000000018005eaa0     LIBCMT:thread_safe_statics.obj
 0002:00016aa0       $unwind$tolower            000000018005eaa0     libucrt:tolower_toupper.obj
 0002:00016aa0       $unwind$__dcrt_uninitialize_environments_nolock 000000018005eaa0     libucrt:environment_initialization.obj
 0002:00016aa0       $unwind$_fileno            000000018005eaa0     libucrt:fileno.obj
 0002:00016aa0       $unwind$?validate_stream_is_ansi_if_required@?$__acrt_stdio_char_traits@D@@SA_NQEAU_iobuf@@@Z 000000018005eaa0     libucrt:output.obj
 0002:00016aa0       $unwind$?_Atexit@@YAXP6AXXZ@Z 000000018005eaa0     libcpmt:iosptrs.obj
 0002:00016aa0       $unwind$?_Unlock@?$basic_filebuf@DU?$char_traits@D@std@@@std@@UEAAXXZ 000000018005eaa0     libcpmt:cout.obj
 0002:00016aa0       $unwind$?_Lock@?$basic_filebuf@DU?$char_traits@D@std@@@std@@UEAAXXZ 000000018005eaa0     libcpmt:cout.obj
 0002:00016aa0       $unwind$__vcrt_initialize_ptd 000000018005eaa0     libvcruntime:per_thread_data.obj
 0002:00016aa0       $unwind$__acrt_thread_detach 000000018005eaa0     libucrt:initialization.obj
 0002:00016aa0       $unwind$_fgetc_nolock      000000018005eaa0     libucrt:fgetc.obj
 0002:00016aa0       $unwind$__acrt_initialize_multibyte 000000018005eaa0     libucrt:mbctype.obj
 0002:00016aa0       $unwind$?__GetCurrentState@@YAHPEA_KPEAU_xDISPATCHER_CONTEXT@@PEBU_s_FuncInfo@@@Z 000000018005eaa0     libvcruntime:ehstate.obj
 0002:00016aa0       $unwind$___lc_codepage_func 000000018005eaa0     libucrt:initctype.obj
 0002:00016aa0       $unwind$___lc_locale_name_func 000000018005eaa0     libucrt:initctype.obj
 0002:00016aa0       $unwind$_GetImageBase      000000018005eaa0     libvcruntime:trnsctrl.obj
 0002:00016aa0       $unwind$__acrt_initialize_command_line 000000018005eaa0     libucrt:argv_data.obj
 0002:00016aa0       $unwind$_GetThrowImageBase 000000018005eaa0     libvcruntime:trnsctrl.obj
 0002:00016aa0       $unwind$__scrt_initialize_default_local_stdio_options 000000018005eaa0     LIBCMT:default_local_stdio_options.obj
 0002:00016aa0       $unwind$?allocate@?$_Wrap_alloc@V?$allocator@E@std@@@std@@QEAAPEAE_K@Z 000000018005eaa0     zopflipng_lib.obj
 0002:00016aa0       $unwind$?state_case_size@?$output_processor@DV?$stream_output_adapter@D@__crt_stdio_output@@V?$standard_base@DV?$stream_output_adapter@D@__crt_stdio_output@@@2@@__crt_stdio_output@@AEAA_NXZ 000000018005eaa0     libucrt:output.obj
 0002:00016aa0       $unwind$__report_rangecheckfailure 000000018005eaa0     LIBCMT:gs_report.obj
 0002:00016aa0       $unwind$??__Einitlocks@@YAXXZ 000000018005eaa0     libcpmt:cout.obj
 0002:00016aa0       $unwind$?state_case_size@?$output_processor@_WV?$string_output_adapter@_W@__crt_stdio_output@@V?$standard_base@_WV?$string_output_adapter@_W@__crt_stdio_output@@@2@@__crt_stdio_output@@AEAA_NXZ 000000018005eaa0     libucrt:output.obj
 0002:00016aa0       $unwind$_getfpstatusword   000000018005eaa0     libucrt:_fenvutils.obj
 0002:00016aa0       $unwind$_getfpcontrolword  000000018005eaa0     libucrt:_fenvutils.obj
 0002:00016aa0       $unwind$abort              000000018005eaa0     libucrt:abort.obj
 0002:00016aa0       $unwind$_wcsicmp           000000018005eaa0     libucrt:wcsicmp.obj
 0002:00016aa0       $unwind$__acrt_DownlevelLocaleNameToLCID 000000018005eaa0     libucrt:lcidtoname_downlevel.obj
 0002:00016aa0       $unwind$__dcrt_terminate_console_output 000000018005eaa0     libucrt:initcon.obj
 0002:00016aa0       $unwind$__GSHandlerCheck   000000018005eaa0     LIBCMT:_gshandler_.obj
 0002:00016aa0       $unwind$??__F_Fac_tidy_reg@std@@YAXXZ 000000018005eaa0     libcpmt:locale0.obj
 0002:00016aa0       $unwind$_isatty            000000018005eaa0     libucrt:isatty.obj
 0002:00016aa0       $unwind$_get_fmode         000000018005eaa0     libucrt:setmode.obj
 0002:00016aa0       $unwind$??__Ecout@std@@YAXXZ 000000018005eaa0     libcpmt:cout.obj
 0002:00016aa0       $unwind$__FrameUnwindFilter 000000018005eaa0     libvcruntime:frame.obj
 0002:00016aa0       $unwind$?_Locinfo_dtor@_Locinfo@std@@SAXPEAV12@@Z 000000018005eaa0     libcpmt:locale0.obj
 0002:00016aa0       $unwind$__vcrt_thread_detach 000000018005eaa0     libvcruntime:initialization.obj
 0002:00016aa0       $unwind$_wcsnicmp          000000018005eaa0     libucrt:wcsnicmp.obj
 0002:00016aa0       $unwind$?deallocate@?$_Wrap_alloc@V?$allocator@V?$vector@EV?$allocator@E@std@@@std@@@std@@@std@@QEAAXPEAV?$vector@EV?$allocator@E@std@@@2@_K@Z 000000018005eaa0     zopflipng_lib.obj
 0002:00016aa0       $unwind$__acrt_thread_attach 000000018005eaa0     libucrt:initialization.obj
 0002:00016aa0       $unwind$?_Reserve@?$vector@V?$basic_string@DU?$char_traits@D@std@@V?$allocator@D@2@@std@@V?$allocator@V?$basic_string@DU?$char_traits@D@std@@V?$allocator@D@2@@std@@@2@@std@@IEAAX_K@Z 000000018005eaa0     zopflipng_lib.obj
 0002:00016aa0       $unwind$__acrt_release_locale_ref 000000018005eaa0     libucrt:locale_refcounting.obj
 0002:00016aa0       $unwind$??$uninitialize_environment_internal@D@@YAXAEAPEAPEAD@Z 000000018005eaa0     libucrt:environment_initialization.obj
 0002:00016aa0       $unwind$?_Reserve@?$vector@EV?$allocator@E@std@@@std@@IEAAX_K@Z 000000018005eaa0     zopflipng_lib.obj
 0002:00016aa0       $unwind$__doserrno         000000018005eaa0     libucrt:errno.obj
 0002:00016aa0       $unwind$__acrt_uninitialize_ptd 000000018005eaa0     libucrt:per_thread_data.obj
 0002:00016aa0       $unwind$_errno             000000018005eaa0     libucrt:errno.obj
 0002:00016aa0       $unwind$__vcrt_getptd      000000018005eaa0     libvcruntime:per_thread_data.obj
 0002:00016aa0       $unwind$__vcrt_uninitialize_ptd 000000018005eaa0     libvcruntime:per_thread_data.obj
 0002:00016aa0       $unwind$??1locale@std@@QEAA@XZ 000000018005eaa0     lodepng_util.obj
 0002:00016aa0       $unwind$tidy_global        000000018005eaa0     libcpmt:locale0.obj
 0002:00016aa0       $unwind$__vcrt_thread_attach 000000018005eaa0     libvcruntime:initialization.obj
 0002:00016aa0       $unwind$_set_errno_from_matherr 000000018005eaa0     libucrt:fpexcept.obj
 0002:00016aa0       $unwind$__acrt_uninitialize_critical 000000018005eaa0     libucrt:initialization.obj
 0002:00016aa0       $unwind$_copytlocinfo_nolock 000000018005eaa0     libucrt:wsetlocale.obj
 0002:00016aa0       $unwind$__vcrt_uninitialize_critical 000000018005eaa0     libvcruntime:initialization.obj
 0002:00016aa0       $unwind$_strnicmp          000000018005eaa0     libucrt:strnicmp.obj
 0002:00016aa0       $unwind$__vcrt_uninitialize 000000018005eaa0     libvcruntime:initialization.obj
 0002:00016aa0       $unwind$_statfp            000000018005eaa0     libucrt:fpctrl.obj
 0002:00016aa0       $unwind$__crtDownlevelLocaleNameToLCID 000000018005eaa0     libcpmt:winapinls.obj
 0002:00016aa0       $unwind$_invoke_watson     000000018005eaa0     libucrt:invalid_parameter.obj
 0002:00016aa0       $unwind$??__Einitlocks@std@@YAXXZ 000000018005eaa0     libcpmt:iosptrs.obj
 0002:00016aa0       $unwind$?state_case_size@?$output_processor@_WV?$stream_output_adapter@_W@__crt_stdio_output@@V?$standard_base@_WV?$stream_output_adapter@_W@__crt_stdio_output@@@2@@__crt_stdio_output@@AEAA_NXZ 000000018005eaa0     libucrt:output.obj
 0002:00016aa0       $unwind$__vcrt_initialize  000000018005eaa0     libvcruntime:initialization.obj
 0002:00016aa0       $unwind$??__Einitlocks@std@@YAXXZ 000000018005eaa0     libcpmt:xlock.obj
 0002:00016aa0       $unwind$??$uninitialize_environment_internal@_W@@YAXAEAPEAPEA_W@Z 000000018005eaa0     libucrt:environment_initialization.obj
 0002:00016aa0       $unwind$_set_error_mode    000000018005eaa0     libucrt:set_error_mode.obj
 0002:00016aa0       $unwind$??1_Lockit@std@@QEAA@XZ 000000018005eaa0     libcpmt:xlock.obj
 0002:00016aa0       $unwind$__acrt_initialize_ptd 000000018005eaa0     libucrt:per_thread_data.obj
 0002:00016aa8       $unwind$?FunctionCallbackWrapper@imp@Nan@@YAXAEBV?$FunctionCallbackInfo@VValue@v8@@@v8@@@Z 000000018005eaa8     zopfli-binding.obj
 0002:00016ab8       $unwind$?NewInstance@Nan@@YA?AV?$MaybeLocal@VObject@v8@@@v8@@V?$Local@VObjectTemplate@v8@@@3@@Z 000000018005eab8     zopfli-binding.obj
 0002:00016acc       $stateUnwindMap$?GetFunction@Nan@@YA?AV?$MaybeLocal@VFunction@v8@@@v8@@V?$Local@VFunctionTemplate@v8@@@3@@Z 000000018005eacc     zopfli-binding.obj
 0002:00016acc       $stateUnwindMap$?NewInstance@Nan@@YA?AV?$MaybeLocal@VObject@v8@@@v8@@V?$Local@VObjectTemplate@v8@@@3@@Z 000000018005eacc     zopfli-binding.obj
 0002:00016acc       $stateUnwindMap$?Get@Nan@@YA?AV?$MaybeLocal@VValue@v8@@@v8@@V?$Local@VObject@v8@@@3@V?$Local@VValue@v8@@@3@@Z 000000018005eacc     zopfli-binding.obj
 0002:00016acc       $stateUnwindMap$?convert@?$ToFactory@VUint32@v8@@@imp@Nan@@SA?AV?$MaybeLocal@VUint32@v8@@@v8@@V?$Local@VValue@v8@@@5@@Z 000000018005eacc     zopfli-binding.obj
 0002:00016acc       $stateUnwindMap$?convert@?$ToFactory@VInteger@v8@@@imp@Nan@@SA?AV?$MaybeLocal@VInteger@v8@@@v8@@V?$Local@VValue@v8@@@5@@Z 000000018005eacc     zopflipng.obj
 0002:00016ad8       $ip2state$?NewInstance@Nan@@YA?AV?$MaybeLocal@VObject@v8@@@v8@@V?$Local@VObjectTemplate@v8@@@3@@Z 000000018005ead8     zopfli-binding.obj
 0002:00016af0       $unwind$?GetFunction@Nan@@YA?AV?$MaybeLocal@VFunction@v8@@@v8@@V?$Local@VFunctionTemplate@v8@@@3@@Z 000000018005eaf0     zopfli-binding.obj
 0002:00016b08       $ip2state$?GetFunction@Nan@@YA?AV?$MaybeLocal@VFunction@v8@@@v8@@V?$Local@VFunctionTemplate@v8@@@3@@Z 000000018005eb08     zopfli-binding.obj
 0002:00016b20       $unwind$?Get@Nan@@YA?AV?$MaybeLocal@VValue@v8@@@v8@@V?$Local@VObject@v8@@@3@V?$Local@VValue@v8@@@3@@Z 000000018005eb20     zopfli-binding.obj
 0002:00016b38       $ip2state$?Get@Nan@@YA?AV?$MaybeLocal@VValue@v8@@@v8@@V?$Local@VObject@v8@@@3@V?$Local@VValue@v8@@@3@@Z 000000018005eb38     zopfli-binding.obj
 0002:00016b50       $unwind$?Has@Nan@@YA?AV?$Maybe@_N@v8@@V?$Local@VObject@v8@@@3@V?$Local@VString@v8@@@3@@Z 000000018005eb50     zopfli-binding.obj
 0002:00016b68       $stateUnwindMap$?Has@Nan@@YA?AV?$Maybe@_N@v8@@V?$Local@VObject@v8@@@3@V?$Local@VString@v8@@@3@@Z 000000018005eb68     zopfli-binding.obj
 0002:00016b70       $ip2state$?Has@Nan@@YA?AV?$Maybe@_N@v8@@V?$Local@VObject@v8@@@3@V?$Local@VString@v8@@@3@@Z 000000018005eb70     zopfli-binding.obj
 0002:00016b88       $unwind$?convert@?$ToFactory@VUint32@v8@@@imp@Nan@@SA?AV?$MaybeLocal@VUint32@v8@@@v8@@V?$Local@VValue@v8@@@5@@Z 000000018005eb88     zopfli-binding.obj
 0002:00016ba0       $ip2state$?convert@?$ToFactory@VUint32@v8@@@imp@Nan@@SA?AV?$MaybeLocal@VUint32@v8@@@v8@@V?$Local@VValue@v8@@@5@@Z 000000018005eba0     zopfli-binding.obj
 0002:00016bb8       $unwind$?New@?$Factory@VFunctionTemplate@v8@@@imp@Nan@@SA?AV?$Local@VFunctionTemplate@v8@@@v8@@P6AXAEBV?$FunctionCallbackInfo@VValue@v8@@@3@@ZV?$Local@VValue@v8@@@5@V?$Local@VSignature@v8@@@5@@Z 000000018005ebb8     zopfli-binding.obj
 0002:00016bd0       $stateUnwindMap$?New@?$Factory@VFunctionTemplate@v8@@@imp@Nan@@SA?AV?$Local@VFunctionTemplate@v8@@@v8@@P6AXAEBV?$FunctionCallbackInfo@VValue@v8@@@3@@ZV?$Local@VValue@v8@@@5@V?$Local@VSignature@v8@@@5@@Z 000000018005ebd0     zopfli-binding.obj
 0002:00016bd8       $ip2state$?New@?$Factory@VFunctionTemplate@v8@@@imp@Nan@@SA?AV?$Local@VFunctionTemplate@v8@@@v8@@P6AXAEBV?$FunctionCallbackInfo@VValue@v8@@@3@@ZV?$Local@VValue@v8@@@5@V?$Local@VSignature@v8@@@5@@Z 000000018005ebd8     zopfli-binding.obj
 0002:00016bf0       $unwind$?ThrowTypeError@Nan@@YAXPEBD@Z 000000018005ebf0     zopfli-binding.obj
 0002:00016c00       $stateUnwindMap$??0Utf8String@Nan@@QEAA@V?$Local@VValue@v8@@@v8@@@Z 000000018005ec00     zopfli-binding.obj
 0002:00016c00       $stateUnwindMap$?HandleOKCallback@AsyncWorker@Nan@@MEAAXXZ 000000018005ec00     zopfli-binding.obj
 0002:00016c00       $stateUnwindMap$?ThrowTypeError@Nan@@YAXPEBD@Z 000000018005ec00     zopfli-binding.obj
 0002:00016c00       $stateUnwindMap$?Call_@Callback@Nan@@AEBA?AV?$Local@VValue@v8@@@v8@@PEAVIsolate@4@V?$Local@VObject@v8@@@4@HQEAV34@@Z 000000018005ec00     zopfli-binding.obj
 0002:00016c00       $stateUnwindMap$?HandleErrorCallback@AsyncWorker@Nan@@MEAAXXZ 000000018005ec00     zopfli-binding.obj
 0002:00016c08       $ip2state$?ThrowTypeError@Nan@@YAXPEBD@Z 000000018005ec08     zopfli-binding.obj
 0002:00016c20       $unwind$??0Utf8String@Nan@@QEAA@V?$Local@VValue@v8@@@v8@@@Z 000000018005ec20     zopfli-binding.obj
 0002:00016c38       $ip2state$??0Utf8String@Nan@@QEAA@V?$Local@VValue@v8@@@v8@@@Z 000000018005ec38     zopfli-binding.obj
 0002:00016c50       $unwind$?Call@Callback@Nan@@QEBA?AV?$Local@VValue@v8@@@v8@@HQEAV34@@Z 000000018005ec50     zopfli-binding.obj
 0002:00016c6c       $stateUnwindMap$?Call@Callback@Nan@@QEBA?AV?$Local@VValue@v8@@@v8@@HQEAV34@@Z 000000018005ec6c     zopfli-binding.obj
 0002:00016c78       $ip2state$?Call@Callback@Nan@@QEBA?AV?$Local@VValue@v8@@@v8@@HQEAV34@@Z 000000018005ec78     zopfli-binding.obj
 0002:00016c90       $unwind$?Call@Callback@Nan@@QEBA?AV?$MaybeLocal@VValue@v8@@@v8@@HQEAV?$Local@VValue@v8@@@4@PEAVAsyncResource@2@@Z 000000018005ec90     zopfli-binding.obj
 0002:00016cac       $stateUnwindMap$?Call@Callback@Nan@@QEBA?AV?$MaybeLocal@VValue@v8@@@v8@@HQEAV?$Local@VValue@v8@@@4@PEAVAsyncResource@2@@Z 000000018005ecac     zopfli-binding.obj
 0002:00016cb8       $ip2state$?Call@Callback@Nan@@QEBA?AV?$MaybeLocal@VValue@v8@@@v8@@HQEAV?$Local@VValue@v8@@@4@PEAVAsyncResource@2@@Z 000000018005ecb8     zopfli-binding.obj
 0002:00016cd0       $unwind$?Call_@Callback@Nan@@AEBA?AV?$Local@VValue@v8@@@v8@@PEAVIsolate@4@V?$Local@VObject@v8@@@4@HQEAV34@@Z 000000018005ecd0     zopfli-binding.obj
 0002:00016ce8       $ip2state$?Call_@Callback@Nan@@AEBA?AV?$Local@VValue@v8@@@v8@@PEAVIsolate@4@V?$Local@VObject@v8@@@4@HQEAV34@@Z 000000018005ece8     zopfli-binding.obj
 0002:00016d00       $unwind$??0AsyncWorker@Nan@@QEAA@PEAVCallback@1@PEBD@Z 000000018005ed00     zopfli-binding.obj
 0002:00016d14       $stateUnwindMap$??0AsyncWorker@Nan@@QEAA@PEAVCallback@1@PEBD@Z 000000018005ed14     zopfli-binding.obj
 0002:00016d28       $ip2state$??0AsyncWorker@Nan@@QEAA@PEAVCallback@1@PEBD@Z 000000018005ed28     zopfli-binding.obj
 0002:00016d50       $unwind$??1AsyncWorker@Nan@@UEAA@XZ 000000018005ed50     zopfli-binding.obj
 0002:00016d64       $stateUnwindMap$??1AsyncWorker@Nan@@UEAA@XZ 000000018005ed64     zopfli-binding.obj
 0002:00016d78       $ip2state$??1AsyncWorker@Nan@@UEAA@XZ 000000018005ed78     zopfli-binding.obj
 0002:00016d90       $unwind$?WorkComplete@AsyncWorker@Nan@@UEAAXXZ 000000018005ed90     zopfli-binding.obj
 0002:00016da4       $stateUnwindMap$?WorkComplete@AsyncWorker@Nan@@UEAAXXZ 000000018005eda4     zopfli-binding.obj
 0002:00016dc0       $ip2state$?WorkComplete@AsyncWorker@Nan@@UEAAXXZ 000000018005edc0     zopfli-binding.obj
 0002:00016de8       $unwind$?HandleOKCallback@AsyncWorker@Nan@@MEAAXXZ 000000018005ede8     zopfli-binding.obj
 0002:00016df8       $ip2state$?HandleOKCallback@AsyncWorker@Nan@@MEAAXXZ 000000018005edf8     zopfli-binding.obj
 0002:00016e10       $unwind$?HandleErrorCallback@AsyncWorker@Nan@@MEAAXXZ 000000018005ee10     zopfli-binding.obj
 0002:00016e28       $ip2state$?HandleErrorCallback@AsyncWorker@Nan@@MEAAXXZ 000000018005ee28     zopfli-binding.obj
 0002:00016e40       $unwind$__acrt_stdio_begin_temporary_buffering_nolock 000000018005ee40     libucrt:_sftbuf.obj
 0002:00016e40       $unwind$__vcrt_FlsFree     000000018005ee40     libvcruntime:winapi_downlevel.obj
 0002:00016e40       $unwind$?lodepng_state_cleanup@@YAXPEAULodePNGState@@@Z 000000018005ee40     lodepng.obj
 0002:00016e40       $unwind$_callnewh          000000018005ee40     libucrt:new_handler.obj
 0002:00016e40       $unwind$_realloc_base      000000018005ee40     libucrt:realloc_base.obj
 0002:00016e40       $unwind$??1ZopfliPNGOptions@@QEAA@XZ 000000018005ee40     zopflipng.obj
 0002:00016e40       $unwind$?_Assign_rv@?$basic_string@DU?$char_traits@D@std@@V?$allocator@D@2@@std@@QEAAX$$QEAV12@@Z 000000018005ee40     zopfli-binding.obj
 0002:00016e40       $unwind$__vcrt_FlsGetValue 000000018005ee40     libvcruntime:winapi_downlevel.obj
 0002:00016e40       $unwind$_FindAndUnlinkFrame 000000018005ee40     libvcruntime:trnsctrl.obj
 0002:00016e40       $unwind$?erase@?$basic_string@DU?$char_traits@D@std@@V?$allocator@D@2@@std@@QEAAAEAV12@_K0@Z 000000018005ee40     zopfli-binding.obj
 0002:00016e40       $unwind$_ungetc_nolock     000000018005ee40     libucrt:ungetc.obj
 0002:00016e40       $unwind$??_G?$basic_filebuf@DU?$char_traits@D@std@@@std@@UEAAPEAXI@Z 000000018005ee40     libcpmt:cout.obj
 0002:00016e40       $unwind$??0_LocaleUpdate@@QEAA@QEAU__crt_locale_pointers@@@Z 000000018005ee40     libucrt:output.obj
 0002:00016e40       $unwind$?pbackfail@?$basic_filebuf@DU?$char_traits@D@std@@@std@@MEAAHH@Z 000000018005ee40     libcpmt:cout.obj
 0002:00016e40       $unwind$??$common_initialize_environment_nolock@D@@YAHXZ 000000018005ee40     libucrt:environment_initialization.obj
 0002:00016e40       $unwind$??4?$basic_string@DU?$char_traits@D@std@@V?$allocator@D@2@@std@@QEAAAEAV01@$$QEAV01@@Z 000000018005ee40     zopfli-binding.obj
 0002:00016e40       $unwind$?replace_current_thread_locale_nolock@@YAXQEAU__acrt_ptd@@QEAU__crt_locale_data@@@Z 000000018005ee40     libucrt:per_thread_data.obj
 0002:00016e40       $unwind$?ExFilterRethrow@@YAHPEAU_EXCEPTION_POINTERS@@PEAUEHExceptionRecord@@PEAH@Z 000000018005ee40     libvcruntime:frame.obj
 0002:00016e40       $unwind$__acrt_getptd      000000018005ee40     libucrt:per_thread_data.obj
 0002:00016e40       $unwind$?force_decimal_point@__crt_stdio_output@@YAXPEADQEAU__crt_locale_pointers@@@Z 000000018005ee40     libucrt:output.obj
 0002:00016e40       $unwind$wcsncat_s          000000018005ee40     libucrt:wcsncat_s.obj
 0002:00016e40       $unwind$?try_cor_exit_process@@YAXI@Z 000000018005ee40     libucrt:exit.obj
 0002:00016e40       $unwind$wcsncpy_s          000000018005ee40     libucrt:wcsncpy_s.obj
 0002:00016e40       $unwind$?_Locinfo_ctor@_Locinfo@std@@SAXPEAV12@PEBD@Z 000000018005ee40     libcpmt:locale0.obj
 0002:00016e40       $unwind$??_G?$basic_streambuf@DU?$char_traits@D@std@@@std@@UEAAPEAXI@Z 000000018005ee40     libcpmt:cout.obj
 0002:00016e40       $unwind$?_New_Locimp@_Locimp@locale@std@@CAPEAV123@_N@Z 000000018005ee40     libcpmt:locale0.obj
 0002:00016e40       $unwind$??_Gbad_exception@std@@UEAAPEAXI@Z 000000018005ee40     libvcruntime:frame.obj
 0002:00016e40       $unwind$__acrt_uninitialize_lowio 000000018005ee40     libucrt:ioinit.obj
 0002:00016e40       $unwind$??1_Locinfo@std@@QEAA@XZ 000000018005ee40     lodepng_util.obj
 0002:00016e40       $unwind$?uflow@?$basic_streambuf@DU?$char_traits@D@std@@@std@@MEAAHXZ 000000018005ee40     libcpmt:cout.obj
 0002:00016e40       $unwind$?<helper_func_cdecl>@<lambda_e2bb8337c48846e80c921ea5ddadc92d>@@CAHPEA_W@Z 000000018005ee40     libucrt:winapi_thunks.obj
 0002:00016e40       $unwind$__acrt_get_parent_window 000000018005ee40     libucrt:winapi_thunks.obj
 0002:00016e40       $unwind$__acrt_IsValidLocaleName 000000018005ee40     libucrt:winapi_thunks.obj
 0002:00016e40       $unwind$_Deletegloballocale 000000018005ee40     libcpmt:locale0.obj
 0002:00016e40       $unwind$__acrt_FlsGetValue 000000018005ee40     libucrt:winapi_thunks.obj
 0002:00016e40       $unwind$_close_nolock      000000018005ee40     libucrt:close.obj
 0002:00016e40       $unwind$__acrt_FlsAlloc    000000018005ee40     libucrt:winapi_thunks.obj
 0002:00016e40       $unwind$?type_case_c_tchar@?$output_processor@DV?$stream_output_adapter@D@__crt_stdio_output@@V?$standard_base@DV?$stream_output_adapter@D@__crt_stdio_output@@@2@@__crt_stdio_output@@AEAA_ND@Z 000000018005ee40     libucrt:output.obj
 0002:00016e40       $unwind$??_GState@lodepng@@UEAAPEAXI@Z 000000018005ee40     lodepng.obj
 0002:00016e40       $unwind$??$common_xtox@K_W@@YAHKQEA_W_KI_N@Z 000000018005ee40     libucrt:xtoa.obj
 0002:00016e40       $unwind$?resize@?$vector@EV?$allocator@E@std@@@std@@QEAAX_K@Z 000000018005ee40     lodepng.obj
 0002:00016e40       $unwind$GetLcidFromLanguage 000000018005ee40     libucrt:getqloc_downlevel.obj
 0002:00016e40       $unwind$__acrt_invoke_user_matherr 000000018005ee40     libucrt:matherr.obj
 0002:00016e40       $unwind$GetLcidFromLangCountry 000000018005ee40     libucrt:getqloc_downlevel.obj
 0002:00016e40       $unwind$??_G?$ctype@D@std@@MEAAPEAXI@Z 000000018005ee40     lodepng_util.obj
 0002:00016e40       $unwind$??_Gbad_array_new_length@std@@UEAAPEAXI@Z 000000018005ee40     LIBCMT:throw_bad_alloc.obj
 0002:00016e40       $unwind$??1_Init_locks@std@@QEAA@XZ 000000018005ee40     libcpmt:xlock.obj
 0002:00016e40       $unwind$?push_back@?$vector@V?$vector@EV?$allocator@E@std@@@std@@V?$allocator@V?$vector@EV?$allocator@E@std@@@std@@@2@@std@@QEAAX$$QEAV?$vector@EV?$allocator@E@std@@@2@@Z 000000018005ee40     lodepng_util.obj
 0002:00016e40       $unwind$GetLocaleNameFromLanguage 000000018005ee40     libucrt:get_qualified_locale.obj
 0002:00016e40       $unwind$??_Gexception@std@@UEAAPEAXI@Z 000000018005ee40     libcpmt:xthrow.obj
 0002:00016e40       $unwind$fgetpos            000000018005ee40     libucrt:fgetpos.obj
 0002:00016e40       $unwind$GetLocaleNameFromLangCountry 000000018005ee40     libucrt:get_qualified_locale.obj
 0002:00016e40       $unwind$?_Buy@?$vector@EV?$allocator@E@std@@@std@@IEAA_N_K@Z 000000018005ee40     zopflipng_lib.obj
 0002:00016e40       $unwind$??_Gbad_alloc@std@@UEAAPEAXI@Z 000000018005ee40     libcpmt:xthrow.obj
 0002:00016e40       $unwind$?DloadAcquireSectionWriteAccess@@YAXXZ 000000018005ee40     DelayImp:delayhlp.obj
 0002:00016e40       $unwind$??_Gbad_cast@std@@UEAAPEAXI@Z 000000018005ee40     libcpmt:cout.obj
 0002:00016e40       $unwind$?color_tree_cleanup@@YAXPEAUColorTree@@@Z 000000018005ee40     lodepng.obj
 0002:00016e40       $unwind$?__SetUnwindTryBlock@@YAXPEA_KPEAU_xDISPATCHER_CONTEXT@@PEBU_s_FuncInfo@@H@Z 000000018005ee40     libvcruntime:ehstate.obj
 0002:00016e40       $unwind$__acrt_errno_map_os_error 000000018005ee40     libucrt:errno.obj
 0002:00016e40       $unwind$__vcrt_FlsAlloc    000000018005ee40     libvcruntime:winapi_downlevel.obj
 0002:00016e40       $unwind$?DloadGetSRWLockFunctionPointers@@YAEXZ 000000018005ee40     DelayImp:delayhlp.obj
 0002:00016e40       $unwind$??_Glogic_error@std@@UEAAPEAXI@Z 000000018005ee40     libcpmt:xthrow.obj
 0002:00016e40       $unwind$?ucvector_push_back@@YAIPEAUucvector@@E@Z 000000018005ee40     lodepng.obj
 0002:00016e40       $unwind$??_GCompressWorker@nodezopfli@@UEAAPEAXI@Z 000000018005ee40     zopfli-binding.obj
 0002:00016e40       $unwind$?lodepng_info_cleanup@@YAXPEAULodePNGInfo@@@Z 000000018005ee40     lodepng.obj
 0002:00016e40       $unwind$_fclose_nolock     000000018005ee40     libucrt:fclose.obj
 0002:00016e40       $unwind$__acrt_locale_initialize_time 000000018005ee40     libucrt:inittime.obj
 0002:00016e40       $unwind$_updatetlocinfoEx_nolock 000000018005ee40     libucrt:locale_refcounting.obj
 0002:00016e40       $unwind$strncpy_s          000000018005ee40     libucrt:strncpy_s.obj
 0002:00016e40       $unwind$??_Glength_error@std@@UEAAPEAXI@Z 000000018005ee40     libcpmt:xthrow.obj
 0002:00016e40       $unwind$?internal_isupper_l@@YA_NHQEAU__crt_locale_pointers@@@Z 000000018005ee40     libucrt:tolower_toupper.obj
 0002:00016e40       $unwind$?compare@?$basic_string@DU?$char_traits@D@std@@V?$allocator@D@2@@std@@QEBAHAEBV12@@Z 000000018005ee40     zopflipng_lib.obj
 0002:00016e40       $unwind$?push_back@?$vector@EV?$allocator@E@std@@@std@@QEAAXAEBE@Z 000000018005ee40     zopflipng_lib.obj
 0002:00016e40       $unwind$??_Gout_of_range@std@@UEAAPEAXI@Z 000000018005ee40     libcpmt:xthrow.obj
 0002:00016e40       $unwind$??_GAsyncWorker@Nan@@UEAAPEAXI@Z 000000018005ee40     zopfli-binding.obj
 0002:00016e40       $unwind$__acrt_FlsFree     000000018005ee40     libucrt:winapi_thunks.obj
 0002:00016e4c       $unwind$??1?$Persistent@VObject@v8@@V?$NonCopyablePersistentTraits@VObject@v8@@@2@@Nan@@QEAA@XZ 000000018005ee4c     zopfli-binding.obj
 0002:00016e5c       $stateUnwindMap$??__Finit_atexit@@YAXXZ 000000018005ee5c     libcpmt:iosptrs.obj
 0002:00016e5c       $stateUnwindMap$??_Glocale@std@@QEAAPEAXI@Z 000000018005ee5c     libcpmt:cout.obj
 0002:00016e5c       $stateUnwindMap$??1?$Persistent@VObject@v8@@V?$NonCopyablePersistentTraits@VObject@v8@@@2@@Nan@@QEAA@XZ 000000018005ee5c     zopfli-binding.obj
 0002:00016e5c       $stateUnwindMap$?_Init@ios_base@std@@IEAAXXZ 000000018005ee5c     libcpmt:cout.obj
 0002:00016e5c       $stateUnwindMap$??_G_Fac_node@std@@QEAAPEAXI@Z 000000018005ee5c     libcpmt:locale0.obj
 0002:00016e5c       $stateUnwindMap$??_G_Locimp@locale@std@@MEAAPEAXI@Z 000000018005ee5c     libcpmt:locale0.obj
 0002:00016e5c       $stateUnwindMap$??__Fcout@std@@YAXXZ 000000018005ee5c     libcpmt:cout.obj
 0002:00016e5c       $stateUnwindMap$??_Gios_base@std@@UEAAPEAXI@Z 000000018005ee5c     libcpmt:cout.obj
 0002:00016e5c       $stateUnwindMap$??0?$basic_streambuf@DU?$char_traits@D@std@@@std@@IEAA@XZ 000000018005ee5c     libcpmt:cout.obj
 0002:00016e5c       $stateUnwindMap$??_G?$basic_ostream@DU?$char_traits@D@std@@@std@@UEAAPEAXI@Z 000000018005ee5c     libcpmt:cout.obj
 0002:00016e5c       $stateUnwindMap$??_G?$basic_ios@DU?$char_traits@D@std@@@std@@UEAAPEAXI@Z 000000018005ee5c     libcpmt:cout.obj
 0002:00016e5c       $stateUnwindMap$??1?$basic_ios@DU?$char_traits@D@std@@@std@@UEAA@XZ 000000018005ee5c     libcpmt:cout.obj
 0002:00016e5c       $stateUnwindMap$??__Fclassic_locale@std@@YAXXZ 000000018005ee5c     libcpmt:locale0.obj
 0002:00016e68       $ip2state$??1?$Persistent@VObject@v8@@V?$NonCopyablePersistentTraits@VObject@v8@@@2@@Nan@@QEAA@XZ 000000018005ee68     zopfli-binding.obj
 0002:00016e70       $unwind$?AsyncExecute@Nan@@YAXPEAUuv_work_s@@@Z 000000018005ee70     zopfli-binding.obj
 0002:00016e70       $unwind$_wtol              000000018005ee70     libucrt:atox.obj
 0002:00016e70       $unwind$fread              000000018005ee70     libucrt:fread.obj
 0002:00016e70       $unwind$_sopen_s           000000018005ee70     libucrt:open.obj
 0002:00016e70       $unwind$mbstowcs_s         000000018005ee70     libucrt:mbstowcs.obj
 0002:00016e70       $unwind$?Execute@CompressWorker@nodezopfli@@UEAAXXZ 000000018005ee70     zopfli-binding.obj
 0002:00016e70       $unwind$_itow_s            000000018005ee70     libucrt:xtoa.obj
 0002:00016e70       $unwind$_invalid_parameter_noinfo 000000018005ee70     libucrt:invalid_parameter.obj
 0002:00016e70       $unwind$wctomb_s           000000018005ee70     libucrt:wctomb.obj
 0002:00016e70       $unwind$_log10_special     000000018005ee70     libucrt:log_special.obj
 0002:00016e70       $unwind$_invalid_parameter_noinfo_noreturn 000000018005ee70     libucrt:invalid_parameter.obj
 0002:00016e70       $unwind$_log_special       000000018005ee70     libucrt:log_special.obj
 0002:00016e78       $unwind$??1?$set@IU?$less@I@std@@V?$allocator@I@2@@std@@QEAA@XZ 000000018005ee78     zopflipng_lib.obj
 0002:00016e78       $unwind$??2@YAPEAX_K@Z     000000018005ee78     LIBCMT:new_scalar.obj
 0002:00016e78       $unwind$??0bad_array_new_length@std@@QEAA@AEBV01@@Z 000000018005ee78     LIBCMT:throw_bad_alloc.obj
 0002:00016e78       $unwind$??0exception@std@@QEAA@AEBV01@@Z 000000018005ee78     libcpmt:xthrow.obj
 0002:00016e78       $unwind$_clearfp           000000018005ee78     libucrt:ieee.obj
 0002:00016e78       $unwind$??_Gerror_category@std@@UEAAPEAXI@Z 000000018005ee78     lodepng_util.obj
 0002:00016e78       $unwind$_Init_thread_header 000000018005ee78     LIBCMT:thread_safe_statics.obj
 0002:00016e78       $unwind$_Init_thread_footer 000000018005ee78     LIBCMT:thread_safe_statics.obj
 0002:00016e78       $unwind$_Init_thread_notify 000000018005ee78     LIBCMT:thread_safe_statics.obj
 0002:00016e78       $unwind$??1State@lodepng@@UEAA@XZ 000000018005ee78     lodepng.obj
 0002:00016e78       $unwind$?__GetUnwindTryBlock@@YAHPEA_KPEAU_xDISPATCHER_CONTEXT@@PEBU_s_FuncInfo@@@Z 000000018005ee78     libvcruntime:ehstate.obj
 0002:00016e78       $unwind$??0_Lockit@std@@QEAA@H@Z 000000018005ee78     libcpmt:xlock.obj
 0002:00016e78       $unwind$?do_narrow@?$ctype@D@std@@MEBAPEBDPEBD0DPEAD@Z 000000018005ee78     lodepng_util.obj
 0002:00016e78       $unwind$?__StateFromIp@@YAHPEBU_s_FuncInfo@@PEAU_xDISPATCHER_CONTEXT@@_J@Z 000000018005ee78     libvcruntime:ehstate.obj
 0002:00016e78       $unwind$?do_widen@?$ctype@D@std@@MEBAPEBDPEBD0PEAD@Z 000000018005ee78     lodepng_util.obj
 0002:00016e78       $unwind$??0bad_alloc@std@@QEAA@AEBV01@@Z 000000018005ee78     libcpmt:xthrow.obj
 0002:00016e78       $unwind$?type_case_integer@?$output_processor@_WV?$string_output_adapter@_W@__crt_stdio_output@@V?$standard_base@_WV?$string_output_adapter@_W@__crt_stdio_output@@@2@@__crt_stdio_output@@AEAA_NI_N@Z 000000018005ee78     libucrt:output.obj
 0002:00016e78       $unwind$_SetImageBase      000000018005ee78     libvcruntime:trnsctrl.obj
 0002:00016e78       $unwind$__acrt_uninitialize_winapi_thunks 000000018005ee78     libucrt:winapi_thunks.obj
 0002:00016e78       $unwind$__acrt_AreFileApisANSI 000000018005ee78     libucrt:winapi_thunks.obj
 0002:00016e78       $unwind$_onexit            000000018005ee78     LIBCMT:utility.obj
 0002:00016e78       $unwind$__scrt_release_startup_lock 000000018005ee78     LIBCMT:utility.obj
 0002:00016e78       $unwind$?_Setgloballocale@locale@std@@CAXPEAX@Z 000000018005ee78     libcpmt:locale0.obj
 0002:00016e78       $unwind$__scrt_initialize_crt 000000018005ee78     LIBCMT:utility.obj
 0002:00016e78       $unwind$__scrt_uninitialize_crt 000000018005ee78     LIBCMT:utility.obj
 0002:00016e78       $unwind$__acrt_can_show_message_box 000000018005ee78     libucrt:winapi_thunks.obj
 0002:00016e78       $unwind$fesetenv           000000018005ee78     libucrt:fesetenv.obj
 0002:00016e78       $unwind$feholdexcept       000000018005ee78     libucrt:feholdexcept.obj
 0002:00016e78       $unwind$??_Gtype_info@@UEAAPEAXI@Z 000000018005ee78     LIBCMT:std_type_info_static.obj
 0002:00016e78       $unwind$ZopfliAllocHash    000000018005ee78     hash.obj
 0002:00016e78       $unwind$??_GLodePNGState@@UEAAPEAXI@Z 000000018005ee78     lodepng.obj
 0002:00016e78       $unwind$fegetenv           000000018005ee78     libucrt:fegetenv.obj
 0002:00016e78       $unwind$??0bad_exception@std@@QEAA@AEBV01@@Z 000000018005ee78     libvcruntime:frame.obj
 0002:00016e78       $unwind$_SetThrowImageBase 000000018005ee78     libvcruntime:trnsctrl.obj
 0002:00016e78       $unwind$_clrfp             000000018005ee78     libucrt:fpctrl.obj
 0002:00016e78       $unwind$?exit_or_terminate_process@@YAXI@Z 000000018005ee78     libucrt:exit.obj
 0002:00016e78       $unwind$?DloadReleaseSectionWriteAccess@@YAXXZ 000000018005ee78     DelayImp:delayhlp.obj
 0002:00016e78       $unwind$??0logic_error@std@@QEAA@AEBV01@@Z 000000018005ee78     libcpmt:xthrow.obj
 0002:00016e78       $unwind$??1?$basic_string@DU?$char_traits@D@std@@V?$allocator@D@2@@std@@QEAA@XZ 000000018005ee78     zopfli-binding.obj
 0002:00016e78       $unwind$?_Facet_Register@std@@YAXPEAV_Facet_base@1@@Z 000000018005ee78     libcpmt:locale0.obj
 0002:00016e78       $unwind$_CreateFrameInfo   000000018005ee78     libvcruntime:trnsctrl.obj
 0002:00016e78       $unwind$wcscpy_s           000000018005ee78     libucrt:wcscpy_s.obj
 0002:00016e78       $unwind$__std_exception_destroy 000000018005ee78     libvcruntime:std_exception.obj
 0002:00016e78       $unwind$wcscat_s           000000018005ee78     libucrt:wcscat_s.obj
 0002:00016e78       $unwind$__std_type_info_destroy_list 000000018005ee78     libvcruntime:std_type_info.obj
 0002:00016e78       $unwind$_set_statfp        000000018005ee78     libucrt:fpctrl.obj
 0002:00016e78       $unwind$?type_case_integer@?$output_processor@_WV?$stream_output_adapter@_W@__crt_stdio_output@@V?$standard_base@_WV?$stream_output_adapter@_W@__crt_stdio_output@@@2@@__crt_stdio_output@@AEAA_NI_N@Z 000000018005ee78     libucrt:output.obj
 0002:00016e78       $unwind$__acrt_initialize_locks 000000018005ee78     libucrt:locks.obj
 0002:00016e78       $unwind$__acrt_uninitialize_locks 000000018005ee78     libucrt:locks.obj
 0002:00016e78       $unwind$?load_exe_hook@@YAP6A_JXZIPEAUDelayLoadInfo@@@Z 000000018005ee78     win_delay_load_hook.obj
 0002:00016e78       $unwind$__vcrt_initialize_locks 000000018005ee78     libvcruntime:locks.obj
 0002:00016e78       $unwind$__vcrt_uninitialize_locks 000000018005ee78     libvcruntime:locks.obj
 0002:00016e78       $unwind$?_Ios_base_dtor@ios_base@std@@CAXPEAV12@@Z 000000018005ee78     libcpmt:ios.obj
 0002:00016e78       $unwind$strcpy_s           000000018005ee78     libucrt:strcpy_s.obj
 0002:00016e78       $unwind$??1?$vector@V?$basic_string@DU?$char_traits@D@std@@V?$allocator@D@2@@std@@V?$allocator@V?$basic_string@DU?$char_traits@D@std@@V?$allocator@D@2@@std@@@2@@std@@QEAA@XZ 000000018005ee78     zopflipng.obj
 0002:00016e78       $unwind$initialize_pointers 000000018005ee78     libucrt:initialization.obj
 0002:00016e78       $unwind$?_Tidy@?$vector@EV?$allocator@E@std@@@std@@IEAAXXZ 000000018005ee78     zopflipng.obj
 0002:00016e78       $unwind$uninitialize_allocated_memory 000000018005ee78     libucrt:initialization.obj
 0002:00016e78       $unwind$__vcrt_freeptd     000000018005ee78     libvcruntime:per_thread_data.obj
 0002:00016e78       $unwind$??0length_error@std@@QEAA@AEBV01@@Z 000000018005ee78     libcpmt:xthrow.obj
 0002:00016e78       $unwind$?_Addstd@ios_base@std@@SAXPEAV12@@Z 000000018005ee78     libcpmt:ios.obj
 0002:00016e78       $unwind$?writeSignature@@YAXPEAUucvector@@@Z 000000018005ee78     lodepng.obj
 0002:00016e78       $unwind$_IsExceptionObjectToBeDestroyed 000000018005ee78     libvcruntime:trnsctrl.obj
 0002:00016e78       $unwind$__acrt_stdio_allocate_buffer_nolock 000000018005ee78     libucrt:_getbuf.obj
 0002:00016e78       $unwind$_malloc_base       000000018005ee78     libucrt:malloc_base.obj
 0002:00016e78       $unwind$__acrt_stdio_free_buffer_nolock 000000018005ee78     libucrt:_freebuf.obj
 0002:00016e78       $unwind$__acrt_uninitialize_stdio 000000018005ee78     libucrt:_file.obj
 0002:00016e78       $unwind$??1?$_Yarn@_W@std@@QEAA@XZ 000000018005ee78     lodepng_util.obj
 0002:00016e78       $unwind$_calloc_base       000000018005ee78     libucrt:calloc_base.obj
 0002:00016e78       $unwind$__acrt_fp_strflt_to_string 000000018005ee78     libucrt:_fptostr.obj
 0002:00016e78       $unwind$??_G?$codecvt@DDU_Mbstatet@@@std@@MEAAPEAXI@Z 000000018005ee78     libcpmt:cout.obj
 0002:00016e78       $unwind$??0?$output_processor@_WV?$string_output_adapter@_W@__crt_stdio_output@@V?$standard_base@_WV?$string_output_adapter@_W@__crt_stdio_output@@@2@@__crt_stdio_output@@QEAA@AEBV?$string_output_adapter@_W@1@_KQEB_WQEAU__crt_locale_pointers@@QEAD@Z 000000018005ee78     libucrt:output.obj
 0002:00016e78       $unwind$?string_init@@YAXPEAPEAD@Z 000000018005ee78     lodepng.obj
 0002:00016e78       $unwind$_purecall          000000018005ee78     libvcruntime:purevirt.obj
 0002:00016e78       $unwind$__raise_securityfailure 000000018005ee78     LIBCMT:gs_report.obj
 0002:00016e78       $unwind$??_G_System_error@std@@UEAAPEAXI@Z 000000018005ee78     lodepng_util.obj
 0002:00016e78       $unwind$??_Gexception@stdext@@UEAAPEAXI@Z 000000018005ee78     lodepng_util.obj
 0002:00016e78       $unwind$??_G_Iostream_error_category@std@@UEAAPEAXI@Z 000000018005ee78     lodepng_util.obj
 0002:00016e78       $unwind$??_Gruntime_error@std@@UEAAPEAXI@Z 000000018005ee78     lodepng_util.obj
 0002:00016e78       $unwind$??__Efout@std@@YAXXZ 000000018005ee78     libcpmt:cout.obj
 0002:00016e78       $unwind$_setfpstatusword   000000018005ee78     libucrt:_fenvutils.obj
 0002:00016e78       $unwind$?imbue@?$basic_filebuf@DU?$char_traits@D@std@@@std@@MEAAXAEBVlocale@2@@Z 000000018005ee78     libcpmt:cout.obj
 0002:00016e78       $unwind$?initialize_pointers@@YAHXZ 000000018005ee78     libcpmt:winapisupp.obj
 0002:00016e78       $unwind$?setbuf@?$basic_filebuf@DU?$char_traits@D@std@@@std@@MEAAPEAV?$basic_streambuf@DU?$char_traits@D@std@@@2@PEAD_J@Z 000000018005ee78     libcpmt:cout.obj
 0002:00016e78       $unwind$??0?$output_processor@DV?$stream_output_adapter@D@__crt_stdio_output@@V?$standard_base@DV?$stream_output_adapter@D@__crt_stdio_output@@@2@@__crt_stdio_output@@QEAA@AEBV?$stream_output_adapter@D@1@_KQEBDQEAU__crt_locale_pointers@@QEAD@Z 000000018005ee78     libucrt:output.obj
 0002:00016e78       $unwind$?AsyncExecuteComplete@Nan@@YAXPEAUuv_work_s@@@Z 000000018005ee78     zopfli-binding.obj
 0002:00016e78       $unwind$?state_case_normal@?$output_processor@DV?$stream_output_adapter@D@__crt_stdio_output@@V?$standard_base@DV?$stream_output_adapter@D@__crt_stdio_output@@@2@@__crt_stdio_output@@AEAA_NXZ 000000018005ee78     libucrt:output.obj
 0002:00016e78       $unwind$__acrt_allocate_buffer_for_argv 000000018005ee78     libucrt:argv_parsing.obj
 0002:00016e78       $unwind$?state_case_normal_tchar@?$output_processor@DV?$stream_output_adapter@D@__crt_stdio_output@@V?$standard_base@DV?$stream_output_adapter@D@__crt_stdio_output@@@2@@__crt_stdio_output@@AEAA_ND@Z 000000018005ee78     libucrt:output.obj
 0002:00016e78       $unwind$__acrt_update_multibyte_info 000000018005ee78     libucrt:locale_update.obj
 0002:00016e78       $unwind$__acrt_update_locale_info 000000018005ee78     libucrt:locale_update.obj
 0002:00016e78       $unwind$_fflush_nolock     000000018005ee78     libucrt:fflush.obj
 0002:00016e78       $unwind$??1?$vector@V?$vector@EV?$allocator@E@std@@@std@@V?$allocator@V?$vector@EV?$allocator@E@std@@@std@@@2@@std@@QEAA@XZ 000000018005ee78     zopflipng_lib.obj
 0002:00016e78       $unwind$?type_case_integer@?$output_processor@DV?$stream_output_adapter@D@__crt_stdio_output@@V?$standard_base@DV?$stream_output_adapter@D@__crt_stdio_output@@@2@@__crt_stdio_output@@AEAA_NI_N@Z 000000018005ee78     libucrt:output.obj
 0002:00016e78       $unwind$??$message_box_wait_thread@_W@@YAKQEAX@Z 000000018005ee78     libucrt:crtmbox.obj
 0002:00016e78       $unwind$??1?$_Yarn@D@std@@QEAA@XZ 000000018005ee78     lodepng_util.obj
 0002:00016e78       $unwind$??0bad_cast@std@@QEAA@AEBV01@@Z 000000018005ee78     libcpmt:cout.obj
 0002:00016e78       $unwind$_Getctype          000000018005ee78     libcpmt:_tolower.obj
 0002:00016e78       $unwind$??1?$set@V?$basic_string@DU?$char_traits@D@std@@V?$allocator@D@2@@std@@U?$less@V?$basic_string@DU?$char_traits@D@std@@V?$allocator@D@2@@std@@@2@V?$allocator@V?$basic_string@DU?$char_traits@D@std@@V?$allocator@D@2@@std@@@2@@std@@QEAA@XZ 000000018005ee78     zopflipng_lib.obj
 0002:00016e78       $unwind$??_Gfailure@ios_base@std@@UEAAPEAXI@Z 000000018005ee78     lodepng_util.obj
 0002:00016e78       $unwind$??_G_Facet_base@std@@UEAAPEAXI@Z 000000018005ee78     lodepng_util.obj
 0002:00016e78       $unwind$__acrt_freeptd     000000018005ee78     libucrt:per_thread_data.obj
 0002:00016e78       $unwind$??0?$output_processor@_WV?$stream_output_adapter@_W@__crt_stdio_output@@V?$standard_base@_WV?$stream_output_adapter@_W@__crt_stdio_output@@@2@@__crt_stdio_output@@QEAA@AEBV?$stream_output_adapter@_W@1@_KQEB_WQEAU__crt_locale_pointers@@QEAD@Z 000000018005ee78     libucrt:output.obj
 0002:00016e78       $unwind$??0out_of_range@std@@QEAA@AEBV01@@Z 000000018005ee78     libcpmt:xthrow.obj
 0002:00016e80       $unwind$?ParseArgs@nodezopfli@@YAXAEBV?$FunctionCallbackInfo@VValue@v8@@@Nan@@AEAW4ZopfliFormat@@AEAUZopfliOptions@@@Z 000000018005ee80     zopfli-binding.obj
 0002:00016ea8       $stateUnwindMap$?ParseArgs@nodezopfli@@YAXAEBV?$FunctionCallbackInfo@VValue@v8@@@Nan@@AEAW4ZopfliFormat@@AEAUZopfliOptions@@@Z 000000018005eea8     zopfli-binding.obj
 0002:00016ec0       $ip2state$?ParseArgs@nodezopfli@@YAXAEBV?$FunctionCallbackInfo@VValue@v8@@@Nan@@AEAW4ZopfliFormat@@AEAUZopfliOptions@@@Z 000000018005eec0     zopfli-binding.obj
 0002:00016ee0       $unwind$??0CompressWorker@nodezopfli@@QEAA@PEAVCallback@Nan@@AEAW4ZopfliFormat@@AEAUZopfliOptions@@V?$Local@VObject@v8@@@v8@@@Z 000000018005eee0     zopfli-binding.obj
 0002:00016f00       $stateUnwindMap$??0CompressWorker@nodezopfli@@QEAA@PEAVCallback@Nan@@AEAW4ZopfliFormat@@AEAUZopfliOptions@@V?$Local@VObject@v8@@@v8@@@Z 000000018005ef00     zopfli-binding.obj
 0002:00016f20       $ip2state$??0CompressWorker@nodezopfli@@QEAA@PEAVCallback@Nan@@AEAW4ZopfliFormat@@AEAUZopfliOptions@@V?$Local@VObject@v8@@@v8@@@Z 000000018005ef20     zopfli-binding.obj
 0002:00016f60       $unwind$?HandleOKCallback@CompressWorker@nodezopfli@@UEAAXXZ 000000018005ef60     zopfli-binding.obj
 0002:00016f70       $unwind$?Async@CompressBinding@nodezopfli@@SAXAEBV?$FunctionCallbackInfo@VValue@v8@@@Nan@@@Z 000000018005ef70     zopfli-binding.obj
 0002:00016f8c       $stateUnwindMap$?Async@CompressBinding@nodezopfli@@SAXAEBV?$FunctionCallbackInfo@VValue@v8@@@Nan@@@Z 000000018005ef8c     zopfli-binding.obj
 0002:00016fa0       $ip2state$?Async@CompressBinding@nodezopfli@@SAXAEBV?$FunctionCallbackInfo@VValue@v8@@@Nan@@@Z 000000018005efa0     zopfli-binding.obj
 0002:00016fc8       $unwind$__FrameUnwindToState$fin$1 000000018005efc8     libvcruntime:frame.obj
 0002:00016fc8       $unwind$__FrameUnwindToState$filt$0 000000018005efc8     libvcruntime:frame.obj
 0002:00016fc8       $unwind$__CxxCallCatchBlock$filt$0 000000018005efc8     libvcruntime:frame.obj
 0002:00016fc8       $unwind$?fin$0@?0???$?RV<lambda_630b2aca97f6d20d5b5ea6529ea6b6af>@@AEAV<lambda_af91936f1d075d609f72d9d8cba980af>@@V<lambda_e82fa975f615b5c7c7b0e4d178fdae67>@@@?$__crt_seh_guarded_call@H@@QEAAH$$QEAV<lambda_630b2aca97f6d20d5b5ea6529ea6b6af>@@AEAV<lambda_af91936f1d075d609f72d9d8cba980af>@@$$QEAV<lambda_e82fa975f615b5c7c7b0e4d178fdae67>@@@Z@4HA 000000018005efc8     libucrt:winapi_thunks.obj
 0002:00016fc8       $unwind$?fin$0@?0??dllmain_crt_process_detach@@YAH_N@Z@4HA 000000018005efc8     LIBCMT:dll_dllmain.obj
 0002:00016fc8       $unwind$?dtor$0@?0??push_back@?$vector@V?$basic_string@DU?$char_traits@D@std@@V?$allocator@D@2@@std@@V?$allocator@V?$basic_string@DU?$char_traits@D@std@@V?$allocator@D@2@@std@@@2@@std@@QEAAXAEBV?$basic_string@DU?$char_traits@D@std@@V?$allocator@D@2@@2@@Z@4HA 000000018005efc8     lodepng_util.obj
 0002:00016fc8       $unwind$?fin$0@?0??dllmain_crt_process_attach@@YAHQEAUHINSTANCE__@@QEAX@Z@4HA 000000018005efc8     LIBCMT:dll_dllmain.obj
 0002:00016fc8       $unwind$?dtor$1@?0??push_back@?$vector@V?$basic_string@DU?$char_traits@D@std@@V?$allocator@D@2@@std@@V?$allocator@V?$basic_string@DU?$char_traits@D@std@@V?$allocator@D@2@@std@@@2@@std@@QEAAXAEBV?$basic_string@DU?$char_traits@D@std@@V?$allocator@D@2@@2@@Z@4HA 000000018005efc8     lodepng_util.obj
 0002:00016fc8       $unwind$?fin$0@?0???$?RV<lambda_5d4c3fee44080f75d5d9762853974fe0>@@AEAV<lambda_532e024f4337e6fc7ad266c2bef9f4ed>@@V<lambda_c87bdc10097eb2402edb8ba9bdf0697b>@@@?$__crt_seh_guarded_call@_K@@QEAA_K$$QEAV<lambda_5d4c3fee44080f75d5d9762853974fe0>@@AEAV<lambda_532e024f4337e6fc7ad266c2bef9f4ed>@@$$QEAV<lambda_c87bdc10097eb2402edb8ba9bdf0697b>@@@Z@4HA 000000018005efc8     libucrt:fwrite.obj
 0002:00016fc8       $unwind$?fin$0@?0???$common_fsopen@D@@YAPEAU_iobuf@@QEBD0H@Z@4HA 000000018005efc8     libucrt:fopen.obj
 0002:00016fc8       $unwind$?filt$0@?0??__ArrayUnwind@@YAXPEAX_K1P6AX0@Z@Z@4HA 000000018005efc8     LIBCMT:ehvecdtr.obj
 0002:00016fc8       $unwind$fgetc$fin$0        000000018005efc8     libucrt:fgetc.obj
 0002:00016fc8       $unwind$?dtor$0@?0???$_Insert_at@AEBV?$basic_string@DU?$char_traits@D@std@@V?$allocator@D@2@@std@@U_Nil@2@@?$_Tree@V?$_Tset_traits@V?$basic_string@DU?$char_traits@D@std@@V?$allocator@D@2@@std@@U?$less@V?$basic_string@DU?$char_traits@D@std@@V?$allocator@D@2@@std@@@2@V?$allocator@V?$basic_string@DU?$char_traits@D@std@@V?$allocator@D@2@@std@@@2@$0A@@std@@@std@@IEAA?AV?$_Tree_const_iterator@V?$_Tree_val@U?$_Tree_simple_types@V?$basic_string@DU?$char_traits@D@std@@V?$allocator@D@2@@std@@@std@@@std@@@1@_NPEAU?$_Tree_node@V?$basic_string@DU?$char_traits@D@std@@V?$allocator@D@2@@std@@PEAX@1@AEBV?$basic_string@DU?$char_traits@D@std@@V?$allocator@D@2@@1@U_Nil@1@@Z@4HA 000000018005efc8     zopflipng_lib.obj
 0002:00016fc8       $unwind$?fin$0@?0???_M@YAXPEAX_K1P6AX0@Z@Z@4HA 000000018005efc8     LIBCMT:ehvecdtr.obj
 0002:00016fc8       $unwind$?fin$0@?0???_L@YAXPEAX_K1P6AX0@Z2@Z@4HA 000000018005efc8     LIBCMT:ehvecctr.obj
 0002:00016fc8       $unwind$_IsNonwritableInCurrentImage$filt$0 000000018005efc8     LIBCMT:pesect.obj
 0002:00016fc8       $unwind$__acrt_update_thread_locale_data$fin$0 000000018005efc8     libucrt:locale_refcounting.obj
 0002:00016fc8       $unwind$fflush$fin$0       000000018005efc8     libucrt:fflush.obj
 0002:00016fc8       $unwind$?fin$0@?0???$?RV<lambda_5e887d1dcbef67a5eb4283622ba103bf>@@AEAV<lambda_4466841279450cc726390878d4a41900>@@V<lambda_341c25c0346d94847f1f3c463c57e077>@@@?$__crt_seh_guarded_call@X@@QEAAX$$QEAV<lambda_5e887d1dcbef67a5eb4283622ba103bf>@@AEAV<lambda_4466841279450cc726390878d4a41900>@@$$QEAV<lambda_341c25c0346d94847f1f3c463c57e077>@@@Z@4HA 000000018005efc8     libucrt:per_thread_data.obj
 0002:00016fc8       $unwind$common_flush_all$fin$0 000000018005efc8     libucrt:fflush.obj
 0002:00016fc8       $unwind$__DestructExceptionObject$filt$0 000000018005efc8     libvcruntime:frame.obj
 0002:00016fc8       $unwind$?dtor$0@?0??KeepChunks@@YAXAEBV?$vector@EV?$allocator@E@std@@@std@@AEBV?$vector@V?$basic_string@DU?$char_traits@D@std@@V?$allocator@D@2@@std@@V?$allocator@V?$basic_string@DU?$char_traits@D@std@@V?$allocator@D@2@@std@@@2@@2@PEAV12@@Z@4HA 000000018005efc8     zopflipng_lib.obj
 0002:00016fc8       $unwind$?fin$0@?0???$?RV<lambda_5df02c53a8f32f81fd64e5bbb78039f1>@@AEAV<lambda_2af78c5f5901b1372d98f9ab3177dfa6>@@AEAV<lambda_f51fe5fd7c79a33db34fc9310f277369>@@@?$__crt_seh_guarded_call@X@@QEAAX$$QEAV<lambda_5df02c53a8f32f81fd64e5bbb78039f1>@@AEAV<lambda_2af78c5f5901b1372d98f9ab3177dfa6>@@AEAV<lambda_f51fe5fd7c79a33db34fc9310f277369>@@@Z@4HA 000000018005efc8     libucrt:wsetlocale.obj
 0002:00016fc8       $unwind$?dtor$1@?0??KeepChunks@@YAXAEBV?$vector@EV?$allocator@E@std@@@std@@AEBV?$vector@V?$basic_string@DU?$char_traits@D@std@@V?$allocator@D@2@@std@@V?$allocator@V?$basic_string@DU?$char_traits@D@std@@V?$allocator@D@2@@std@@@2@@2@PEAV12@@Z@4HA 000000018005efc8     zopflipng_lib.obj
 0002:00016fc8       $unwind$?dtor$2@?0??KeepChunks@@YAXAEBV?$vector@EV?$allocator@E@std@@@std@@AEBV?$vector@V?$basic_string@DU?$char_traits@D@std@@V?$allocator@D@2@@std@@V?$allocator@V?$basic_string@DU?$char_traits@D@std@@V?$allocator@D@2@@std@@@2@@2@PEAV12@@Z@4HA 000000018005efc8     zopflipng_lib.obj
 0002:00016fc8       $unwind$?fin$0@?0???$?RV<lambda_46352004c1216016012b18bd6f87e700>@@AEAV<lambda_3bd07e1a1191394380780325891bf33f>@@V<lambda_334532d3f185bcaa59b5be82d7d22bff>@@@?$__crt_seh_guarded_call@X@@QEAAX$$QEAV<lambda_46352004c1216016012b18bd6f87e700>@@AEAV<lambda_3bd07e1a1191394380780325891bf33f>@@$$QEAV<lambda_334532d3f185bcaa59b5be82d7d22bff>@@@Z@4HA 000000018005efc8     libucrt:per_thread_data.obj
 0002:00016fc8       $unwind$?fin$0@?0???$?RV<lambda_fb3a7dec4e47f37f22dae91bb15c9095>@@AEAV<lambda_698284760c8add0bfb0756c19673e34b>@@V<lambda_dfb8eca1e75fef3034a8fb18dd509707>@@@?$__crt_seh_guarded_call@X@@QEAAX$$QEAV<lambda_fb3a7dec4e47f37f22dae91bb15c9095>@@AEAV<lambda_698284760c8add0bfb0756c19673e34b>@@$$QEAV<lambda_dfb8eca1e75fef3034a8fb18dd509707>@@@Z@4HA 000000018005efc8     libucrt:per_thread_data.obj
 0002:00016fc8       $unwind$fclose$fin$0       000000018005efc8     libucrt:fclose.obj
 0002:00016fc8       $unwind$fputc$fin$0        000000018005efc8     libucrt:fputc.obj
 0002:00016fc8       $unwind$_query_new_handler$fin$0 000000018005efc8     libucrt:new_handler.obj
 0002:00016fc8       $unwind$?fin$0@?0???$common_ftell@J@@YAJV__crt_stdio_stream@@@Z@4HA 000000018005efc8     libucrt:ftell.obj
 0002:00016fc8       $unwind$?fin$0@?0??common_fseek@@YAHV__crt_stdio_stream@@_JH@Z@4HA 000000018005efc8     libucrt:fseek.obj
 0002:00016fc8       $unwind$?fin$0@?0???$?RV<lambda_7b91131dde12e1c3dfc74ff76b3f2eac>@@AEAV<lambda_dd75445284c072d0bd3768540cc698fa>@@V<lambda_16bc4ecb55b4718497c16bceaea2ceaf>@@@?$__crt_seh_guarded_call@H@@QEAAH$$QEAV<lambda_7b91131dde12e1c3dfc74ff76b3f2eac>@@AEAV<lambda_dd75445284c072d0bd3768540cc698fa>@@$$QEAV<lambda_16bc4ecb55b4718497c16bceaea2ceaf>@@@Z@4HA 000000018005efc8     libucrt:output.obj
 0002:00016fc8       $unwind$?dtor$3@?0??KeepChunks@@YAXAEBV?$vector@EV?$allocator@E@std@@@std@@AEBV?$vector@V?$basic_string@DU?$char_traits@D@std@@V?$allocator@D@2@@std@@V?$allocator@V?$basic_string@DU?$char_traits@D@std@@V?$allocator@D@2@@std@@@2@@2@PEAV12@@Z@4HA 000000018005efc8     zopflipng_lib.obj
 0002:00016fc8       $unwind$__acrt_uninitialize_locale$fin$0 000000018005efc8     libucrt:wsetlocale.obj
 0002:00016fc8       $unwind$?fin$0@?0???$common_ftell@_J@@YA_JV__crt_stdio_stream@@@Z@4HA 000000018005efc8     libucrt:ftell.obj
 0002:00016fc8       $unwind$?fin$0@?0???$?RV<lambda_aa279a7bcb127014629d5b1d62c7325d>@@AEAV<lambda_0a64b6a4deda75c01876f29c44fc5eb3>@@V<lambda_3323e69fbefe9d1a11713e670d47cdfa>@@@?$__crt_seh_guarded_call@H@@QEAAH$$QEAV<lambda_aa279a7bcb127014629d5b1d62c7325d>@@AEAV<lambda_0a64b6a4deda75c01876f29c44fc5eb3>@@$$QEAV<lambda_3323e69fbefe9d1a11713e670d47cdfa>@@@Z@4HA 000000018005efc8     libucrt:output.obj
 0002:00016fc8       $unwind$?dtor$4@?0??KeepChunks@@YAXAEBV?$vector@EV?$allocator@E@std@@@std@@AEBV?$vector@V?$basic_string@DU?$char_traits@D@std@@V?$allocator@D@2@@std@@V?$allocator@V?$basic_string@DU?$char_traits@D@std@@V?$allocator@D@2@@std@@@2@@2@PEAV12@@Z@4HA 000000018005efc8     zopflipng_lib.obj
 0002:00016fc8       $unwind$?dtor$1@?0??Async@CompressBinding@nodezopfli@@SAXAEBV?$FunctionCallbackInfo@VValue@v8@@@Nan@@@Z@4HA 000000018005efc8     zopfli-binding.obj
 0002:00016fc8       $unwind$?dtor$0@?0??ChunksToKeep@@YAXAEBV?$vector@EV?$allocator@E@std@@@std@@AEBV?$vector@V?$basic_string@DU?$char_traits@D@std@@V?$allocator@D@2@@std@@V?$allocator@V?$basic_string@DU?$char_traits@D@std@@V?$allocator@D@2@@std@@@2@@2@PEAV?$set@V?$basic_string@DU?$char_traits@D@std@@V?$allocator@D@2@@std@@U?$less@V?$basic_string@DU?$char_traits@D@std@@V?$allocator@D@2@@std@@@2@V?$allocator@V?$basic_string@DU?$char_traits@D@std@@V?$allocator@D@2@@std@@@2@@2@@Z@4HA 000000018005efc8     zopflipng_lib.obj
 0002:00016fc8       $unwind$?dtor$0@?0??Async@CompressBinding@nodezopfli@@SAXAEBV?$FunctionCallbackInfo@VValue@v8@@@Nan@@@Z@4HA 000000018005efc8     zopfli-binding.obj
 0002:00016fc8       $unwind$common_flush_all$fin$1 000000018005efc8     libucrt:fflush.obj
 0002:00016fc8       $unwind$?fin$0@?0???$?RV<lambda_72d1df2b273a38828b1ce30cbf4cdab5>@@AEAV<lambda_876a65b173b8412d3a47c70a915b0cf4>@@V<lambda_41932305e351933ebe8f8be3ed8bb5dc>@@@?$__crt_seh_guarded_call@X@@QEAAX$$QEAV<lambda_72d1df2b273a38828b1ce30cbf4cdab5>@@AEAV<lambda_876a65b173b8412d3a47c70a915b0cf4>@@$$QEAV<lambda_41932305e351933ebe8f8be3ed8bb5dc>@@@Z@4HA 000000018005efc8     libucrt:per_thread_data.obj
 0002:00016fc8       $unwind$?dtor$1@?0??ChunksToKeep@@YAXAEBV?$vector@EV?$allocator@E@std@@@std@@AEBV?$vector@V?$basic_string@DU?$char_traits@D@std@@V?$allocator@D@2@@std@@V?$allocator@V?$basic_string@DU?$char_traits@D@std@@V?$allocator@D@2@@std@@@2@@2@PEAV?$set@V?$basic_string@DU?$char_traits@D@std@@V?$allocator@D@2@@std@@U?$less@V?$basic_string@DU?$char_traits@D@std@@V?$allocator@D@2@@std@@@2@V?$allocator@V?$basic_string@DU?$char_traits@D@std@@V?$allocator@D@2@@std@@@2@@2@@Z@4HA 000000018005efc8     zopflipng_lib.obj
 0002:00016fc8       $unwind$?dtor$9@?0??ZopfliPNGOptimize@@YAHAEBV?$vector@EV?$allocator@E@std@@@std@@AEBUZopfliPNGOptions@@_NPEAV12@@Z@4HA 000000018005efc8     zopflipng_lib.obj
 0002:00016fc8       $unwind$?fin$0@?0???$?RV<lambda_d67e8342c384adda8f857579ab50b2ae>@@AEAV<lambda_30712929f77e709619002f448b6a9510>@@V<lambda_4525336fd7e478d965fb7ca7a337cad8>@@@?$__crt_seh_guarded_call@X@@QEAAX$$QEAV<lambda_d67e8342c384adda8f857579ab50b2ae>@@AEAV<lambda_30712929f77e709619002f448b6a9510>@@$$QEAV<lambda_4525336fd7e478d965fb7ca7a337cad8>@@@Z@4HA 000000018005efc8     libucrt:wsetlocale.obj
 0002:00016fc8       $unwind$?dtor$13@?0??ZopfliPNGOptimize@@YAHAEBV?$vector@EV?$allocator@E@std@@@std@@AEBUZopfliPNGOptions@@_NPEAV12@@Z@4HA 000000018005efc8     zopflipng_lib.obj
 0002:00016fc8       $unwind$?fin$0@?0???$?RV<lambda_b8c45f8f788dd370798f47cfe8ac3a86>@@AEAV<lambda_4e60a939b0d047cfe11ddc22648dfba9>@@V<lambda_332c3edc96d0294ec56c57d38c1cdfd5>@@@?$__crt_seh_guarded_call@H@@QEAAH$$QEAV<lambda_b8c45f8f788dd370798f47cfe8ac3a86>@@AEAV<lambda_4e60a939b0d047cfe11ddc22648dfba9>@@$$QEAV<lambda_332c3edc96d0294ec56c57d38c1cdfd5>@@@Z@4HA 000000018005efc8     libucrt:onexit.obj
 0002:00016fc8       $unwind$common_control87$filt$0 000000018005efc8     libucrt:ieee.obj
 0002:00016fc8       $unwind$?fin$0@?0???$?RV<lambda_e24bbb7b643b32fcea6fa61b31d4c984>@@AEAV<lambda_275893d493268fdec8709772e3fcec0e>@@V<lambda_9d71df4d7cf3f480f8d633942495c3b0>@@@?$__crt_seh_guarded_call@H@@QEAAH$$QEAV<lambda_e24bbb7b643b32fcea6fa61b31d4c984>@@AEAV<lambda_275893d493268fdec8709772e3fcec0e>@@$$QEAV<lambda_9d71df4d7cf3f480f8d633942495c3b0>@@@Z@4HA 000000018005efc8     libucrt:onexit.obj
 0002:00016fc8       $unwind$?fin$0@?0???$?RV<lambda_bfedae4ebbf01fab1bb6dcc6a9e276e0>@@AEAV<lambda_2fe9b910cf3cbf4a0ab98a02ba45b3ec>@@V<lambda_237c231691f317818eb88cc1d5d642d6>@@@?$__crt_seh_guarded_call@H@@QEAAH$$QEAV<lambda_bfedae4ebbf01fab1bb6dcc6a9e276e0>@@AEAV<lambda_2fe9b910cf3cbf4a0ab98a02ba45b3ec>@@$$QEAV<lambda_237c231691f317818eb88cc1d5d642d6>@@@Z@4HA 000000018005efc8     libucrt:close.obj
 0002:00016fc8       $unwind$?fin$0@?0???$?RV<lambda_b521505b218e5242e90febf6bfebc422>@@AEAV<lambda_6978c1fb23f02e42e1d9e99668cc68aa>@@V<lambda_314360699dd331753a4119843814e9a7>@@@?$__crt_seh_guarded_call@H@@QEAAH$$QEAV<lambda_b521505b218e5242e90febf6bfebc422>@@AEAV<lambda_6978c1fb23f02e42e1d9e99668cc68aa>@@$$QEAV<lambda_314360699dd331753a4119843814e9a7>@@@Z@4HA 000000018005efc8     libucrt:commit.obj
 0002:00016fc8       $unwind$__acrt_initialize_lowio$fin$0 000000018005efc8     libucrt:ioinit.obj
 0002:00016fc8       $unwind$?fin$0@?0???$common_lseek@_J@@YA_JH_JH@Z@4HA 000000018005efc8     libucrt:lseek.obj
 0002:00016fc8       $unwind$?filt$0@?0??common_exit@@YAXHW4_crt_exit_cleanup_mode@@W4_crt_exit_return_mode@@@Z@4HA 000000018005efc8     libucrt:exit.obj
 0002:00016fc8       $unwind$?fin$1@?0??common_exit@@YAXHW4_crt_exit_cleanup_mode@@W4_crt_exit_return_mode@@@Z@4HA 000000018005efc8     libucrt:exit.obj
 0002:00016fc8       $unwind$__acrt_lowio_ensure_fh_exists$fin$0 000000018005efc8     libucrt:osfinfo.obj
 0002:00016fc8       $unwind$_alloc_osfhnd$fin$0 000000018005efc8     libucrt:osfinfo.obj
 0002:00016fc8       $unwind$_ctrlfp$filt$0     000000018005efc8     libucrt:fpctrl.obj
 0002:00016fc8       $unwind$?dtor$0@?0??_Getcat@?$codecvt@DDU_Mbstatet@@@std@@SA_KPEAPEBVfacet@locale@2@PEBV42@@Z@4HA 000000018005efc8     libcpmt:cout.obj
 0002:00016fc8       $unwind$_read$fin$0        000000018005efc8     libucrt:read.obj
 0002:00016fc8       $unwind$ungetc$fin$0       000000018005efc8     libucrt:ungetc.obj
 0002:00016fc8       $unwind$?dtor$0@?0???0?$basic_ostream@DU?$char_traits@D@std@@@std@@QEAA@PEAV?$basic_streambuf@DU?$char_traits@D@std@@@1@_N@Z@4HA 000000018005efc8     libcpmt:cout.obj
 0002:00016fc8       $unwind$?fin$0@?0??__acrt_stdio_allocate_stream@@YA?AV__crt_stdio_stream@@XZ@4HA 000000018005efc8     libucrt:stream.obj
 0002:00016fc8       $unwind$_write$fin$0       000000018005efc8     libucrt:write.obj
 0002:00016fc8       $unwind$?fin$0@?0???$?RV<lambda_7a5ef57ff966f610505f1d28a3d40618>@@AEAV<lambda_b721fa326cdb32351d23dfa67958c160>@@V<lambda_5e0fb27672408a07956fe59e48ccb2aa>@@@?$__crt_seh_guarded_call@H@@QEAAH$$QEAV<lambda_7a5ef57ff966f610505f1d28a3d40618>@@AEAV<lambda_b721fa326cdb32351d23dfa67958c160>@@$$QEAV<lambda_5e0fb27672408a07956fe59e48ccb2aa>@@@Z@4HA 000000018005efc8     libucrt:setvbuf.obj
 0002:00016fc8       $unwind$?fin$0@?0???$?RV<lambda_99476a1ad63dd22509b5d3e65b0ffc95>@@AEAV<lambda_ad1ced32f4ac17aa236e5ef05d6b3b7c>@@V<lambda_f7424dd8d45958661754dc4f2697e9c3>@@@?$__crt_seh_guarded_call@X@@QEAAX$$QEAV<lambda_99476a1ad63dd22509b5d3e65b0ffc95>@@AEAV<lambda_ad1ced32f4ac17aa236e5ef05d6b3b7c>@@$$QEAV<lambda_f7424dd8d45958661754dc4f2697e9c3>@@@Z@4HA 000000018005efc8     libucrt:mbctype.obj
 0002:00016fc8       $unwind$__acrt_update_thread_multibyte_data$fin$0 000000018005efc8     libucrt:mbctype.obj
 0002:00016fc8       $unwind$raise$fin$0        000000018005efc8     libucrt:signal.obj
 0002:00016fc8       $unwind$?dtor$0@?0??_Getcat@?$ctype@D@std@@SA_KPEAPEBVfacet@locale@2@PEBV42@@Z@4HA 000000018005efc8     lodepng_util.obj
 0002:00016fc8       $unwind$?fin$0@?0???$?RV<lambda_c36588078e9f5dfd39652860aa6b3aaf>@@AEAV<lambda_ec61778202f4f5fc7e7711acc23c3bca>@@V<lambda_dc9d2797ccde5d239b4a0efae8ebd7db>@@@?$__crt_seh_guarded_call@P6AXH@Z@@QEAAP6AXH@Z$$QEAV<lambda_c36588078e9f5dfd39652860aa6b3aaf>@@AEAV<lambda_ec61778202f4f5fc7e7711acc23c3bca>@@$$QEAV<lambda_dc9d2797ccde5d239b4a0efae8ebd7db>@@@Z@4HA 000000018005efc8     libucrt:signal.obj
 0002:00016fc8       $unwind$_fcloseall$fin$0   000000018005efc8     libucrt:closeall.obj
 0002:00016fd0       $unwind$?Sync@CompressBinding@nodezopfli@@SAXAEBV?$FunctionCallbackInfo@VValue@v8@@@Nan@@@Z 000000018005efd0     zopfli-binding.obj
 0002:00016fe4       $chain$4$?Sync@CompressBinding@nodezopfli@@SAXAEBV?$FunctionCallbackInfo@VValue@v8@@@Nan@@@Z 000000018005efe4     zopfli-binding.obj
 0002:00017008       $chain$5$?Sync@CompressBinding@nodezopfli@@SAXAEBV?$FunctionCallbackInfo@VValue@v8@@@Nan@@@Z 000000018005f008     zopfli-binding.obj
 0002:0001701c       $chain$6$?Sync@CompressBinding@nodezopfli@@SAXAEBV?$FunctionCallbackInfo@VValue@v8@@@Nan@@@Z 000000018005f01c     zopfli-binding.obj
 0002:0001702c       $chain$7$?Sync@CompressBinding@nodezopfli@@SAXAEBV?$FunctionCallbackInfo@VValue@v8@@@Nan@@@Z 000000018005f02c     zopfli-binding.obj
 0002:00017040       $chain$8$?Sync@CompressBinding@nodezopfli@@SAXAEBV?$FunctionCallbackInfo@VValue@v8@@@Nan@@@Z 000000018005f040     zopfli-binding.obj
 0002:00017050       $unwind$?Adler32@nodezopfli@@YAXAEBV?$FunctionCallbackInfo@VValue@v8@@@Nan@@@Z 000000018005f050     zopfli-binding.obj
 0002:00017058       $chain$1$?Adler32@nodezopfli@@YAXAEBV?$FunctionCallbackInfo@VValue@v8@@@Nan@@@Z 000000018005f058     zopfli-binding.obj
 0002:00017070       $chain$2$?Adler32@nodezopfli@@YAXAEBV?$FunctionCallbackInfo@VValue@v8@@@Nan@@@Z 000000018005f070     zopfli-binding.obj
 0002:00017084       $chain$3$?Adler32@nodezopfli@@YAXAEBV?$FunctionCallbackInfo@VValue@v8@@@Nan@@@Z 000000018005f084     zopfli-binding.obj
 0002:00017094       $chain$5$?Adler32@nodezopfli@@YAXAEBV?$FunctionCallbackInfo@VValue@v8@@@Nan@@@Z 000000018005f094     zopfli-binding.obj
 0002:000170ac       $chain$6$?Adler32@nodezopfli@@YAXAEBV?$FunctionCallbackInfo@VValue@v8@@@Nan@@@Z 000000018005f0ac     zopfli-binding.obj
 0002:000170c0       $unwind$?Init@nodezopfli@@YAXV?$Local@VObject@v8@@@v8@@@Z 000000018005f0c0     zopfli-binding.obj
 0002:000170c8       $unwind$_Init_thread_wait  000000018005f0c8     LIBCMT:thread_safe_statics.obj
 0002:000170c8       $unwind$__vcrt_getptd_noexit 000000018005f0c8     libvcruntime:per_thread_data.obj
 0002:000170c8       $unwind$__vcrt_FlsSetValue 000000018005f0c8     libvcruntime:winapi_downlevel.obj
 0002:000170c8       $unwind$?ucvector_resize@@YAIPEAUucvector@@_K@Z 000000018005f0c8     lodepng.obj
 0002:000170c8       $unwind$_initterm_e        000000018005f0c8     libucrt:initterm.obj
 0002:000170c8       $unwind$?type_case_n@?$output_processor@_WV?$stream_output_adapter@_W@__crt_stdio_output@@V?$standard_base@_WV?$stream_output_adapter@_W@__crt_stdio_output@@@2@@__crt_stdio_output@@AEAA_NXZ 000000018005f0c8     libucrt:output.obj
 0002:000170c8       $unwind$__acrt_GetUserDefaultLocaleName 000000018005f0c8     libucrt:winapi_thunks.obj
 0002:000170c8       $unwind$?generateFixedLitLenTree@@YAIPEAUHuffmanTree@@@Z 000000018005f0c8     lodepng.obj
 0002:000170c8       $unwind$?string_set@@YAXPEAPEADPEBD@Z 000000018005f0c8     lodepng.obj
 0002:000170c8       $unwind$__acrt_execute_uninitializers 000000018005f0c8     libucrt:shared_initialization.obj
 0002:000170c8       $unwind$AddSorted          000000018005f0c8     blocksplitter.obj
 0002:000170c8       $unwind$_exception_enabled 000000018005f0c8     libucrt:libm_error.obj
 0002:000170c8       $unwind$?generateFixedDistanceTree@@YAIPEAUHuffmanTree@@@Z 000000018005f0c8     lodepng.obj
 0002:000170c8       $unwind$?free_crt_array_internal@@YAXQEAPEBX_K@Z 000000018005f0c8     libucrt:inittime.obj
 0002:000170c8       $unwind$?_Initcvt@?$basic_filebuf@DU?$char_traits@D@std@@@std@@IEAAXPEBV?$codecvt@DDU_Mbstatet@@@2@@Z 000000018005f0c8     libcpmt:cout.obj
 0002:000170c8       $unwind$??$common_lseek_nolock@_J@@YA_JH_JH@Z 000000018005f0c8     libucrt:lseek.obj
 0002:000170c8       $unwind$__acrt_stdio_flush_and_write_wide_nolock 000000018005f0c8     libucrt:_flsbuf.obj
 0002:000170c8       $unwind$?sync@?$basic_filebuf@DU?$char_traits@D@std@@@std@@MEAAHXZ 000000018005f0c8     libcpmt:cout.obj
 0002:000170c8       $unwind$?_Tidy@ios_base@std@@AEAAXXZ 000000018005f0c8     libcpmt:ios.obj
 0002:000170c8       $unwind$??4?$_Yarn@D@std@@QEAAAEAV01@PEBD@Z 000000018005f0c8     libcpmt:locale0.obj
